
LoyerIAP2.elf:     file format elf32-littlearm

Sections:
Idx Name          Size      VMA       LMA       File off  Algn
  0 .isr_vector   000001e4  08000000  08000000  00010000  2**0
                  CONTENTS, ALLOC, LOAD, READONLY, DATA
  1 .text         00008cac  080001e8  080001e8  000101e8  2**3
                  CONTENTS, ALLOC, LOAD, READONLY, CODE
  2 .rodata       00000748  08008e98  08008e98  00018e98  2**3
                  CONTENTS, ALLOC, LOAD, READONLY, DATA
  3 .ARM          00000008  080095e0  080095e0  000195e0  2**2
                  CONTENTS, ALLOC, LOAD, READONLY, DATA
  4 .init_array   00000004  080095e8  080095e8  000195e8  2**2
                  CONTENTS, ALLOC, LOAD, DATA
  5 .fini_array   00000004  080095ec  080095ec  000195ec  2**2
                  CONTENTS, ALLOC, LOAD, DATA
  6 .data         000006cc  20000000  080095f0  00020000  2**2
                  CONTENTS, ALLOC, LOAD, DATA
  7 .bss          00001c68  200006cc  08009cbc  000206cc  2**2
                  ALLOC
  8 ._user_heap_stack 00000200  20002334  08009cbc  00022334  2**0
                  ALLOC
  9 .ARM.attributes 00000029  00000000  00000000  000206cc  2**0
                  CONTENTS, READONLY
 10 .comment      0000007c  00000000  00000000  000206f5  2**0
                  CONTENTS, READONLY
 11 .debug_frame  00001470  00000000  00000000  00020774  2**2
                  CONTENTS, READONLY, DEBUGGING

Disassembly of section .text:

080001e8 <__do_global_dtors_aux>:
 80001e8:	b510      	push	{r4, lr}
 80001ea:	4c05      	ldr	r4, [pc, #20]	; (8000200 <__do_global_dtors_aux+0x18>)
 80001ec:	7823      	ldrb	r3, [r4, #0]
 80001ee:	b933      	cbnz	r3, 80001fe <__do_global_dtors_aux+0x16>
 80001f0:	4b04      	ldr	r3, [pc, #16]	; (8000204 <__do_global_dtors_aux+0x1c>)
 80001f2:	b113      	cbz	r3, 80001fa <__do_global_dtors_aux+0x12>
 80001f4:	4804      	ldr	r0, [pc, #16]	; (8000208 <__do_global_dtors_aux+0x20>)
 80001f6:	f3af 8000 	nop.w
 80001fa:	2301      	movs	r3, #1
 80001fc:	7023      	strb	r3, [r4, #0]
 80001fe:	bd10      	pop	{r4, pc}
 8000200:	200006cc 	.word	0x200006cc
 8000204:	00000000 	.word	0x00000000
 8000208:	08008e7c 	.word	0x08008e7c

0800020c <frame_dummy>:
 800020c:	b508      	push	{r3, lr}
 800020e:	4b03      	ldr	r3, [pc, #12]	; (800021c <frame_dummy+0x10>)
 8000210:	b11b      	cbz	r3, 800021a <frame_dummy+0xe>
 8000212:	4903      	ldr	r1, [pc, #12]	; (8000220 <frame_dummy+0x14>)
 8000214:	4803      	ldr	r0, [pc, #12]	; (8000224 <frame_dummy+0x18>)
 8000216:	f3af 8000 	nop.w
 800021a:	bd08      	pop	{r3, pc}
 800021c:	00000000 	.word	0x00000000
 8000220:	200006d0 	.word	0x200006d0
 8000224:	08008e7c 	.word	0x08008e7c

08000228 <strlen>:
 8000228:	4603      	mov	r3, r0
 800022a:	f813 2b01 	ldrb.w	r2, [r3], #1
 800022e:	2a00      	cmp	r2, #0
 8000230:	d1fb      	bne.n	800022a <strlen+0x2>
 8000232:	1a18      	subs	r0, r3, r0
 8000234:	3801      	subs	r0, #1
 8000236:	4770      	bx	lr

08000238 <__aeabi_drsub>:
 8000238:	f081 4100 	eor.w	r1, r1, #2147483648	; 0x80000000
 800023c:	e002      	b.n	8000244 <__adddf3>
 800023e:	bf00      	nop

08000240 <__aeabi_dsub>:
 8000240:	f083 4300 	eor.w	r3, r3, #2147483648	; 0x80000000

08000244 <__adddf3>:
 8000244:	b530      	push	{r4, r5, lr}
 8000246:	ea4f 0441 	mov.w	r4, r1, lsl #1
 800024a:	ea4f 0543 	mov.w	r5, r3, lsl #1
 800024e:	ea94 0f05 	teq	r4, r5
 8000252:	bf08      	it	eq
 8000254:	ea90 0f02 	teqeq	r0, r2
 8000258:	bf1f      	itttt	ne
 800025a:	ea54 0c00 	orrsne.w	ip, r4, r0
 800025e:	ea55 0c02 	orrsne.w	ip, r5, r2
 8000262:	ea7f 5c64 	mvnsne.w	ip, r4, asr #21
 8000266:	ea7f 5c65 	mvnsne.w	ip, r5, asr #21
 800026a:	f000 80e2 	beq.w	8000432 <__adddf3+0x1ee>
 800026e:	ea4f 5454 	mov.w	r4, r4, lsr #21
 8000272:	ebd4 5555 	rsbs	r5, r4, r5, lsr #21
 8000276:	bfb8      	it	lt
 8000278:	426d      	neglt	r5, r5
 800027a:	dd0c      	ble.n	8000296 <__adddf3+0x52>
 800027c:	442c      	add	r4, r5
 800027e:	ea80 0202 	eor.w	r2, r0, r2
 8000282:	ea81 0303 	eor.w	r3, r1, r3
 8000286:	ea82 0000 	eor.w	r0, r2, r0
 800028a:	ea83 0101 	eor.w	r1, r3, r1
 800028e:	ea80 0202 	eor.w	r2, r0, r2
 8000292:	ea81 0303 	eor.w	r3, r1, r3
 8000296:	2d36      	cmp	r5, #54	; 0x36
 8000298:	bf88      	it	hi
 800029a:	bd30      	pophi	{r4, r5, pc}
 800029c:	f011 4f00 	tst.w	r1, #2147483648	; 0x80000000
 80002a0:	ea4f 3101 	mov.w	r1, r1, lsl #12
 80002a4:	f44f 1c80 	mov.w	ip, #1048576	; 0x100000
 80002a8:	ea4c 3111 	orr.w	r1, ip, r1, lsr #12
 80002ac:	d002      	beq.n	80002b4 <__adddf3+0x70>
 80002ae:	4240      	negs	r0, r0
 80002b0:	eb61 0141 	sbc.w	r1, r1, r1, lsl #1
 80002b4:	f013 4f00 	tst.w	r3, #2147483648	; 0x80000000
 80002b8:	ea4f 3303 	mov.w	r3, r3, lsl #12
 80002bc:	ea4c 3313 	orr.w	r3, ip, r3, lsr #12
 80002c0:	d002      	beq.n	80002c8 <__adddf3+0x84>
 80002c2:	4252      	negs	r2, r2
 80002c4:	eb63 0343 	sbc.w	r3, r3, r3, lsl #1
 80002c8:	ea94 0f05 	teq	r4, r5
 80002cc:	f000 80a7 	beq.w	800041e <__adddf3+0x1da>
 80002d0:	f1a4 0401 	sub.w	r4, r4, #1
 80002d4:	f1d5 0e20 	rsbs	lr, r5, #32
 80002d8:	db0d      	blt.n	80002f6 <__adddf3+0xb2>
 80002da:	fa02 fc0e 	lsl.w	ip, r2, lr
 80002de:	fa22 f205 	lsr.w	r2, r2, r5
 80002e2:	1880      	adds	r0, r0, r2
 80002e4:	f141 0100 	adc.w	r1, r1, #0
 80002e8:	fa03 f20e 	lsl.w	r2, r3, lr
 80002ec:	1880      	adds	r0, r0, r2
 80002ee:	fa43 f305 	asr.w	r3, r3, r5
 80002f2:	4159      	adcs	r1, r3
 80002f4:	e00e      	b.n	8000314 <__adddf3+0xd0>
 80002f6:	f1a5 0520 	sub.w	r5, r5, #32
 80002fa:	f10e 0e20 	add.w	lr, lr, #32
 80002fe:	2a01      	cmp	r2, #1
 8000300:	fa03 fc0e 	lsl.w	ip, r3, lr
 8000304:	bf28      	it	cs
 8000306:	f04c 0c02 	orrcs.w	ip, ip, #2
 800030a:	fa43 f305 	asr.w	r3, r3, r5
 800030e:	18c0      	adds	r0, r0, r3
 8000310:	eb51 71e3 	adcs.w	r1, r1, r3, asr #31
 8000314:	f001 4500 	and.w	r5, r1, #2147483648	; 0x80000000
 8000318:	d507      	bpl.n	800032a <__adddf3+0xe6>
 800031a:	f04f 0e00 	mov.w	lr, #0
 800031e:	f1dc 0c00 	rsbs	ip, ip, #0
 8000322:	eb7e 0000 	sbcs.w	r0, lr, r0
 8000326:	eb6e 0101 	sbc.w	r1, lr, r1
 800032a:	f5b1 1f80 	cmp.w	r1, #1048576	; 0x100000
 800032e:	d31b      	bcc.n	8000368 <__adddf3+0x124>
 8000330:	f5b1 1f00 	cmp.w	r1, #2097152	; 0x200000
 8000334:	d30c      	bcc.n	8000350 <__adddf3+0x10c>
 8000336:	0849      	lsrs	r1, r1, #1
 8000338:	ea5f 0030 	movs.w	r0, r0, rrx
 800033c:	ea4f 0c3c 	mov.w	ip, ip, rrx
 8000340:	f104 0401 	add.w	r4, r4, #1
 8000344:	ea4f 5244 	mov.w	r2, r4, lsl #21
 8000348:	f512 0f80 	cmn.w	r2, #4194304	; 0x400000
 800034c:	f080 809a 	bcs.w	8000484 <__adddf3+0x240>
 8000350:	f1bc 4f00 	cmp.w	ip, #2147483648	; 0x80000000
 8000354:	bf08      	it	eq
 8000356:	ea5f 0c50 	movseq.w	ip, r0, lsr #1
 800035a:	f150 0000 	adcs.w	r0, r0, #0
 800035e:	eb41 5104 	adc.w	r1, r1, r4, lsl #20
 8000362:	ea41 0105 	orr.w	r1, r1, r5
 8000366:	bd30      	pop	{r4, r5, pc}
 8000368:	ea5f 0c4c 	movs.w	ip, ip, lsl #1
 800036c:	4140      	adcs	r0, r0
 800036e:	eb41 0101 	adc.w	r1, r1, r1
 8000372:	f411 1f80 	tst.w	r1, #1048576	; 0x100000
 8000376:	f1a4 0401 	sub.w	r4, r4, #1
 800037a:	d1e9      	bne.n	8000350 <__adddf3+0x10c>
 800037c:	f091 0f00 	teq	r1, #0
 8000380:	bf04      	itt	eq
 8000382:	4601      	moveq	r1, r0
 8000384:	2000      	moveq	r0, #0
 8000386:	fab1 f381 	clz	r3, r1
 800038a:	bf08      	it	eq
 800038c:	3320      	addeq	r3, #32
 800038e:	f1a3 030b 	sub.w	r3, r3, #11
 8000392:	f1b3 0220 	subs.w	r2, r3, #32
 8000396:	da0c      	bge.n	80003b2 <__adddf3+0x16e>
 8000398:	320c      	adds	r2, #12
 800039a:	dd08      	ble.n	80003ae <__adddf3+0x16a>
 800039c:	f102 0c14 	add.w	ip, r2, #20
 80003a0:	f1c2 020c 	rsb	r2, r2, #12
 80003a4:	fa01 f00c 	lsl.w	r0, r1, ip
 80003a8:	fa21 f102 	lsr.w	r1, r1, r2
 80003ac:	e00c      	b.n	80003c8 <__adddf3+0x184>
 80003ae:	f102 0214 	add.w	r2, r2, #20
 80003b2:	bfd8      	it	le
 80003b4:	f1c2 0c20 	rsble	ip, r2, #32
 80003b8:	fa01 f102 	lsl.w	r1, r1, r2
 80003bc:	fa20 fc0c 	lsr.w	ip, r0, ip
 80003c0:	bfdc      	itt	le
 80003c2:	ea41 010c 	orrle.w	r1, r1, ip
 80003c6:	4090      	lslle	r0, r2
 80003c8:	1ae4      	subs	r4, r4, r3
 80003ca:	bfa2      	ittt	ge
 80003cc:	eb01 5104 	addge.w	r1, r1, r4, lsl #20
 80003d0:	4329      	orrge	r1, r5
 80003d2:	bd30      	popge	{r4, r5, pc}
 80003d4:	ea6f 0404 	mvn.w	r4, r4
 80003d8:	3c1f      	subs	r4, #31
 80003da:	da1c      	bge.n	8000416 <__adddf3+0x1d2>
 80003dc:	340c      	adds	r4, #12
 80003de:	dc0e      	bgt.n	80003fe <__adddf3+0x1ba>
 80003e0:	f104 0414 	add.w	r4, r4, #20
 80003e4:	f1c4 0220 	rsb	r2, r4, #32
 80003e8:	fa20 f004 	lsr.w	r0, r0, r4
 80003ec:	fa01 f302 	lsl.w	r3, r1, r2
 80003f0:	ea40 0003 	orr.w	r0, r0, r3
 80003f4:	fa21 f304 	lsr.w	r3, r1, r4
 80003f8:	ea45 0103 	orr.w	r1, r5, r3
 80003fc:	bd30      	pop	{r4, r5, pc}
 80003fe:	f1c4 040c 	rsb	r4, r4, #12
 8000402:	f1c4 0220 	rsb	r2, r4, #32
 8000406:	fa20 f002 	lsr.w	r0, r0, r2
 800040a:	fa01 f304 	lsl.w	r3, r1, r4
 800040e:	ea40 0003 	orr.w	r0, r0, r3
 8000412:	4629      	mov	r1, r5
 8000414:	bd30      	pop	{r4, r5, pc}
 8000416:	fa21 f004 	lsr.w	r0, r1, r4
 800041a:	4629      	mov	r1, r5
 800041c:	bd30      	pop	{r4, r5, pc}
 800041e:	f094 0f00 	teq	r4, #0
 8000422:	f483 1380 	eor.w	r3, r3, #1048576	; 0x100000
 8000426:	bf06      	itte	eq
 8000428:	f481 1180 	eoreq.w	r1, r1, #1048576	; 0x100000
 800042c:	3401      	addeq	r4, #1
 800042e:	3d01      	subne	r5, #1
 8000430:	e74e      	b.n	80002d0 <__adddf3+0x8c>
 8000432:	ea7f 5c64 	mvns.w	ip, r4, asr #21
 8000436:	bf18      	it	ne
 8000438:	ea7f 5c65 	mvnsne.w	ip, r5, asr #21
 800043c:	d029      	beq.n	8000492 <__adddf3+0x24e>
 800043e:	ea94 0f05 	teq	r4, r5
 8000442:	bf08      	it	eq
 8000444:	ea90 0f02 	teqeq	r0, r2
 8000448:	d005      	beq.n	8000456 <__adddf3+0x212>
 800044a:	ea54 0c00 	orrs.w	ip, r4, r0
 800044e:	bf04      	itt	eq
 8000450:	4619      	moveq	r1, r3
 8000452:	4610      	moveq	r0, r2
 8000454:	bd30      	pop	{r4, r5, pc}
 8000456:	ea91 0f03 	teq	r1, r3
 800045a:	bf1e      	ittt	ne
 800045c:	2100      	movne	r1, #0
 800045e:	2000      	movne	r0, #0
 8000460:	bd30      	popne	{r4, r5, pc}
 8000462:	ea5f 5c54 	movs.w	ip, r4, lsr #21
 8000466:	d105      	bne.n	8000474 <__adddf3+0x230>
 8000468:	0040      	lsls	r0, r0, #1
 800046a:	4149      	adcs	r1, r1
 800046c:	bf28      	it	cs
 800046e:	f041 4100 	orrcs.w	r1, r1, #2147483648	; 0x80000000
 8000472:	bd30      	pop	{r4, r5, pc}
 8000474:	f514 0480 	adds.w	r4, r4, #4194304	; 0x400000
 8000478:	bf3c      	itt	cc
 800047a:	f501 1180 	addcc.w	r1, r1, #1048576	; 0x100000
 800047e:	bd30      	popcc	{r4, r5, pc}
 8000480:	f001 4500 	and.w	r5, r1, #2147483648	; 0x80000000
 8000484:	f045 41fe 	orr.w	r1, r5, #2130706432	; 0x7f000000
 8000488:	f441 0170 	orr.w	r1, r1, #15728640	; 0xf00000
 800048c:	f04f 0000 	mov.w	r0, #0
 8000490:	bd30      	pop	{r4, r5, pc}
 8000492:	ea7f 5c64 	mvns.w	ip, r4, asr #21
 8000496:	bf1a      	itte	ne
 8000498:	4619      	movne	r1, r3
 800049a:	4610      	movne	r0, r2
 800049c:	ea7f 5c65 	mvnseq.w	ip, r5, asr #21
 80004a0:	bf1c      	itt	ne
 80004a2:	460b      	movne	r3, r1
 80004a4:	4602      	movne	r2, r0
 80004a6:	ea50 3401 	orrs.w	r4, r0, r1, lsl #12
 80004aa:	bf06      	itte	eq
 80004ac:	ea52 3503 	orrseq.w	r5, r2, r3, lsl #12
 80004b0:	ea91 0f03 	teqeq	r1, r3
 80004b4:	f441 2100 	orrne.w	r1, r1, #524288	; 0x80000
 80004b8:	bd30      	pop	{r4, r5, pc}
 80004ba:	bf00      	nop

080004bc <__aeabi_ui2d>:
 80004bc:	f090 0f00 	teq	r0, #0
 80004c0:	bf04      	itt	eq
 80004c2:	2100      	moveq	r1, #0
 80004c4:	4770      	bxeq	lr
 80004c6:	b530      	push	{r4, r5, lr}
 80004c8:	f44f 6480 	mov.w	r4, #1024	; 0x400
 80004cc:	f104 0432 	add.w	r4, r4, #50	; 0x32
 80004d0:	f04f 0500 	mov.w	r5, #0
 80004d4:	f04f 0100 	mov.w	r1, #0
 80004d8:	e750      	b.n	800037c <__adddf3+0x138>
 80004da:	bf00      	nop

080004dc <__aeabi_i2d>:
 80004dc:	f090 0f00 	teq	r0, #0
 80004e0:	bf04      	itt	eq
 80004e2:	2100      	moveq	r1, #0
 80004e4:	4770      	bxeq	lr
 80004e6:	b530      	push	{r4, r5, lr}
 80004e8:	f44f 6480 	mov.w	r4, #1024	; 0x400
 80004ec:	f104 0432 	add.w	r4, r4, #50	; 0x32
 80004f0:	f010 4500 	ands.w	r5, r0, #2147483648	; 0x80000000
 80004f4:	bf48      	it	mi
 80004f6:	4240      	negmi	r0, r0
 80004f8:	f04f 0100 	mov.w	r1, #0
 80004fc:	e73e      	b.n	800037c <__adddf3+0x138>
 80004fe:	bf00      	nop

08000500 <__aeabi_f2d>:
 8000500:	0042      	lsls	r2, r0, #1
 8000502:	ea4f 01e2 	mov.w	r1, r2, asr #3
 8000506:	ea4f 0131 	mov.w	r1, r1, rrx
 800050a:	ea4f 7002 	mov.w	r0, r2, lsl #28
 800050e:	bf1f      	itttt	ne
 8000510:	f012 437f 	andsne.w	r3, r2, #4278190080	; 0xff000000
 8000514:	f093 4f7f 	teqne	r3, #4278190080	; 0xff000000
 8000518:	f081 5160 	eorne.w	r1, r1, #939524096	; 0x38000000
 800051c:	4770      	bxne	lr
 800051e:	f092 0f00 	teq	r2, #0
 8000522:	bf14      	ite	ne
 8000524:	f093 4f7f 	teqne	r3, #4278190080	; 0xff000000
 8000528:	4770      	bxeq	lr
 800052a:	b530      	push	{r4, r5, lr}
 800052c:	f44f 7460 	mov.w	r4, #896	; 0x380
 8000530:	f001 4500 	and.w	r5, r1, #2147483648	; 0x80000000
 8000534:	f021 4100 	bic.w	r1, r1, #2147483648	; 0x80000000
 8000538:	e720      	b.n	800037c <__adddf3+0x138>
 800053a:	bf00      	nop

0800053c <__aeabi_ul2d>:
 800053c:	ea50 0201 	orrs.w	r2, r0, r1
 8000540:	bf08      	it	eq
 8000542:	4770      	bxeq	lr
 8000544:	b530      	push	{r4, r5, lr}
 8000546:	f04f 0500 	mov.w	r5, #0
 800054a:	e00a      	b.n	8000562 <__aeabi_l2d+0x16>

0800054c <__aeabi_l2d>:
 800054c:	ea50 0201 	orrs.w	r2, r0, r1
 8000550:	bf08      	it	eq
 8000552:	4770      	bxeq	lr
 8000554:	b530      	push	{r4, r5, lr}
 8000556:	f011 4500 	ands.w	r5, r1, #2147483648	; 0x80000000
 800055a:	d502      	bpl.n	8000562 <__aeabi_l2d+0x16>
 800055c:	4240      	negs	r0, r0
 800055e:	eb61 0141 	sbc.w	r1, r1, r1, lsl #1
 8000562:	f44f 6480 	mov.w	r4, #1024	; 0x400
 8000566:	f104 0432 	add.w	r4, r4, #50	; 0x32
 800056a:	ea5f 5c91 	movs.w	ip, r1, lsr #22
 800056e:	f43f aedc 	beq.w	800032a <__adddf3+0xe6>
 8000572:	f04f 0203 	mov.w	r2, #3
 8000576:	ea5f 0cdc 	movs.w	ip, ip, lsr #3
 800057a:	bf18      	it	ne
 800057c:	3203      	addne	r2, #3
 800057e:	ea5f 0cdc 	movs.w	ip, ip, lsr #3
 8000582:	bf18      	it	ne
 8000584:	3203      	addne	r2, #3
 8000586:	eb02 02dc 	add.w	r2, r2, ip, lsr #3
 800058a:	f1c2 0320 	rsb	r3, r2, #32
 800058e:	fa00 fc03 	lsl.w	ip, r0, r3
 8000592:	fa20 f002 	lsr.w	r0, r0, r2
 8000596:	fa01 fe03 	lsl.w	lr, r1, r3
 800059a:	ea40 000e 	orr.w	r0, r0, lr
 800059e:	fa21 f102 	lsr.w	r1, r1, r2
 80005a2:	4414      	add	r4, r2
 80005a4:	e6c1      	b.n	800032a <__adddf3+0xe6>
 80005a6:	bf00      	nop

080005a8 <__aeabi_dmul>:
 80005a8:	b570      	push	{r4, r5, r6, lr}
 80005aa:	f04f 0cff 	mov.w	ip, #255	; 0xff
 80005ae:	f44c 6ce0 	orr.w	ip, ip, #1792	; 0x700
 80005b2:	ea1c 5411 	ands.w	r4, ip, r1, lsr #20
 80005b6:	bf1d      	ittte	ne
 80005b8:	ea1c 5513 	andsne.w	r5, ip, r3, lsr #20
 80005bc:	ea94 0f0c 	teqne	r4, ip
 80005c0:	ea95 0f0c 	teqne	r5, ip
 80005c4:	f000 f8de 	bleq	8000784 <__aeabi_dmul+0x1dc>
 80005c8:	442c      	add	r4, r5
 80005ca:	ea81 0603 	eor.w	r6, r1, r3
 80005ce:	ea21 514c 	bic.w	r1, r1, ip, lsl #21
 80005d2:	ea23 534c 	bic.w	r3, r3, ip, lsl #21
 80005d6:	ea50 3501 	orrs.w	r5, r0, r1, lsl #12
 80005da:	bf18      	it	ne
 80005dc:	ea52 3503 	orrsne.w	r5, r2, r3, lsl #12
 80005e0:	f441 1180 	orr.w	r1, r1, #1048576	; 0x100000
 80005e4:	f443 1380 	orr.w	r3, r3, #1048576	; 0x100000
 80005e8:	d038      	beq.n	800065c <__aeabi_dmul+0xb4>
 80005ea:	fba0 ce02 	umull	ip, lr, r0, r2
 80005ee:	f04f 0500 	mov.w	r5, #0
 80005f2:	fbe1 e502 	umlal	lr, r5, r1, r2
 80005f6:	f006 4200 	and.w	r2, r6, #2147483648	; 0x80000000
 80005fa:	fbe0 e503 	umlal	lr, r5, r0, r3
 80005fe:	f04f 0600 	mov.w	r6, #0
 8000602:	fbe1 5603 	umlal	r5, r6, r1, r3
 8000606:	f09c 0f00 	teq	ip, #0
 800060a:	bf18      	it	ne
 800060c:	f04e 0e01 	orrne.w	lr, lr, #1
 8000610:	f1a4 04ff 	sub.w	r4, r4, #255	; 0xff
 8000614:	f5b6 7f00 	cmp.w	r6, #512	; 0x200
 8000618:	f564 7440 	sbc.w	r4, r4, #768	; 0x300
 800061c:	d204      	bcs.n	8000628 <__aeabi_dmul+0x80>
 800061e:	ea5f 0e4e 	movs.w	lr, lr, lsl #1
 8000622:	416d      	adcs	r5, r5
 8000624:	eb46 0606 	adc.w	r6, r6, r6
 8000628:	ea42 21c6 	orr.w	r1, r2, r6, lsl #11
 800062c:	ea41 5155 	orr.w	r1, r1, r5, lsr #21
 8000630:	ea4f 20c5 	mov.w	r0, r5, lsl #11
 8000634:	ea40 505e 	orr.w	r0, r0, lr, lsr #21
 8000638:	ea4f 2ece 	mov.w	lr, lr, lsl #11
 800063c:	f1b4 0cfd 	subs.w	ip, r4, #253	; 0xfd
 8000640:	bf88      	it	hi
 8000642:	f5bc 6fe0 	cmphi.w	ip, #1792	; 0x700
 8000646:	d81e      	bhi.n	8000686 <__aeabi_dmul+0xde>
 8000648:	f1be 4f00 	cmp.w	lr, #2147483648	; 0x80000000
 800064c:	bf08      	it	eq
 800064e:	ea5f 0e50 	movseq.w	lr, r0, lsr #1
 8000652:	f150 0000 	adcs.w	r0, r0, #0
 8000656:	eb41 5104 	adc.w	r1, r1, r4, lsl #20
 800065a:	bd70      	pop	{r4, r5, r6, pc}
 800065c:	f006 4600 	and.w	r6, r6, #2147483648	; 0x80000000
 8000660:	ea46 0101 	orr.w	r1, r6, r1
 8000664:	ea40 0002 	orr.w	r0, r0, r2
 8000668:	ea81 0103 	eor.w	r1, r1, r3
 800066c:	ebb4 045c 	subs.w	r4, r4, ip, lsr #1
 8000670:	bfc2      	ittt	gt
 8000672:	ebd4 050c 	rsbsgt	r5, r4, ip
 8000676:	ea41 5104 	orrgt.w	r1, r1, r4, lsl #20
 800067a:	bd70      	popgt	{r4, r5, r6, pc}
 800067c:	f441 1180 	orr.w	r1, r1, #1048576	; 0x100000
 8000680:	f04f 0e00 	mov.w	lr, #0
 8000684:	3c01      	subs	r4, #1
 8000686:	f300 80ab 	bgt.w	80007e0 <__aeabi_dmul+0x238>
 800068a:	f114 0f36 	cmn.w	r4, #54	; 0x36
 800068e:	bfde      	ittt	le
 8000690:	2000      	movle	r0, #0
 8000692:	f001 4100 	andle.w	r1, r1, #2147483648	; 0x80000000
 8000696:	bd70      	pople	{r4, r5, r6, pc}
 8000698:	f1c4 0400 	rsb	r4, r4, #0
 800069c:	3c20      	subs	r4, #32
 800069e:	da35      	bge.n	800070c <__aeabi_dmul+0x164>
 80006a0:	340c      	adds	r4, #12
 80006a2:	dc1b      	bgt.n	80006dc <__aeabi_dmul+0x134>
 80006a4:	f104 0414 	add.w	r4, r4, #20
 80006a8:	f1c4 0520 	rsb	r5, r4, #32
 80006ac:	fa00 f305 	lsl.w	r3, r0, r5
 80006b0:	fa20 f004 	lsr.w	r0, r0, r4
 80006b4:	fa01 f205 	lsl.w	r2, r1, r5
 80006b8:	ea40 0002 	orr.w	r0, r0, r2
 80006bc:	f001 4200 	and.w	r2, r1, #2147483648	; 0x80000000
 80006c0:	f021 4100 	bic.w	r1, r1, #2147483648	; 0x80000000
 80006c4:	eb10 70d3 	adds.w	r0, r0, r3, lsr #31
 80006c8:	fa21 f604 	lsr.w	r6, r1, r4
 80006cc:	eb42 0106 	adc.w	r1, r2, r6
 80006d0:	ea5e 0e43 	orrs.w	lr, lr, r3, lsl #1
 80006d4:	bf08      	it	eq
 80006d6:	ea20 70d3 	biceq.w	r0, r0, r3, lsr #31
 80006da:	bd70      	pop	{r4, r5, r6, pc}
 80006dc:	f1c4 040c 	rsb	r4, r4, #12
 80006e0:	f1c4 0520 	rsb	r5, r4, #32
 80006e4:	fa00 f304 	lsl.w	r3, r0, r4
 80006e8:	fa20 f005 	lsr.w	r0, r0, r5
 80006ec:	fa01 f204 	lsl.w	r2, r1, r4
 80006f0:	ea40 0002 	orr.w	r0, r0, r2
 80006f4:	f001 4100 	and.w	r1, r1, #2147483648	; 0x80000000
 80006f8:	eb10 70d3 	adds.w	r0, r0, r3, lsr #31
 80006fc:	f141 0100 	adc.w	r1, r1, #0
 8000700:	ea5e 0e43 	orrs.w	lr, lr, r3, lsl #1
 8000704:	bf08      	it	eq
 8000706:	ea20 70d3 	biceq.w	r0, r0, r3, lsr #31
 800070a:	bd70      	pop	{r4, r5, r6, pc}
 800070c:	f1c4 0520 	rsb	r5, r4, #32
 8000710:	fa00 f205 	lsl.w	r2, r0, r5
 8000714:	ea4e 0e02 	orr.w	lr, lr, r2
 8000718:	fa20 f304 	lsr.w	r3, r0, r4
 800071c:	fa01 f205 	lsl.w	r2, r1, r5
 8000720:	ea43 0302 	orr.w	r3, r3, r2
 8000724:	fa21 f004 	lsr.w	r0, r1, r4
 8000728:	f001 4100 	and.w	r1, r1, #2147483648	; 0x80000000
 800072c:	fa21 f204 	lsr.w	r2, r1, r4
 8000730:	ea20 0002 	bic.w	r0, r0, r2
 8000734:	eb00 70d3 	add.w	r0, r0, r3, lsr #31
 8000738:	ea5e 0e43 	orrs.w	lr, lr, r3, lsl #1
 800073c:	bf08      	it	eq
 800073e:	ea20 70d3 	biceq.w	r0, r0, r3, lsr #31
 8000742:	bd70      	pop	{r4, r5, r6, pc}
 8000744:	f094 0f00 	teq	r4, #0
 8000748:	d10f      	bne.n	800076a <__aeabi_dmul+0x1c2>
 800074a:	f001 4600 	and.w	r6, r1, #2147483648	; 0x80000000
 800074e:	0040      	lsls	r0, r0, #1
 8000750:	eb41 0101 	adc.w	r1, r1, r1
 8000754:	f411 1f80 	tst.w	r1, #1048576	; 0x100000
 8000758:	bf08      	it	eq
 800075a:	3c01      	subeq	r4, #1
 800075c:	d0f7      	beq.n	800074e <__aeabi_dmul+0x1a6>
 800075e:	ea41 0106 	orr.w	r1, r1, r6
 8000762:	f095 0f00 	teq	r5, #0
 8000766:	bf18      	it	ne
 8000768:	4770      	bxne	lr
 800076a:	f003 4600 	and.w	r6, r3, #2147483648	; 0x80000000
 800076e:	0052      	lsls	r2, r2, #1
 8000770:	eb43 0303 	adc.w	r3, r3, r3
 8000774:	f413 1f80 	tst.w	r3, #1048576	; 0x100000
 8000778:	bf08      	it	eq
 800077a:	3d01      	subeq	r5, #1
 800077c:	d0f7      	beq.n	800076e <__aeabi_dmul+0x1c6>
 800077e:	ea43 0306 	orr.w	r3, r3, r6
 8000782:	4770      	bx	lr
 8000784:	ea94 0f0c 	teq	r4, ip
 8000788:	ea0c 5513 	and.w	r5, ip, r3, lsr #20
 800078c:	bf18      	it	ne
 800078e:	ea95 0f0c 	teqne	r5, ip
 8000792:	d00c      	beq.n	80007ae <__aeabi_dmul+0x206>
 8000794:	ea50 0641 	orrs.w	r6, r0, r1, lsl #1
 8000798:	bf18      	it	ne
 800079a:	ea52 0643 	orrsne.w	r6, r2, r3, lsl #1
 800079e:	d1d1      	bne.n	8000744 <__aeabi_dmul+0x19c>
 80007a0:	ea81 0103 	eor.w	r1, r1, r3
 80007a4:	f001 4100 	and.w	r1, r1, #2147483648	; 0x80000000
 80007a8:	f04f 0000 	mov.w	r0, #0
 80007ac:	bd70      	pop	{r4, r5, r6, pc}
 80007ae:	ea50 0641 	orrs.w	r6, r0, r1, lsl #1
 80007b2:	bf06      	itte	eq
 80007b4:	4610      	moveq	r0, r2
 80007b6:	4619      	moveq	r1, r3
 80007b8:	ea52 0643 	orrsne.w	r6, r2, r3, lsl #1
 80007bc:	d019      	beq.n	80007f2 <__aeabi_dmul+0x24a>
 80007be:	ea94 0f0c 	teq	r4, ip
 80007c2:	d102      	bne.n	80007ca <__aeabi_dmul+0x222>
 80007c4:	ea50 3601 	orrs.w	r6, r0, r1, lsl #12
 80007c8:	d113      	bne.n	80007f2 <__aeabi_dmul+0x24a>
 80007ca:	ea95 0f0c 	teq	r5, ip
 80007ce:	d105      	bne.n	80007dc <__aeabi_dmul+0x234>
 80007d0:	ea52 3603 	orrs.w	r6, r2, r3, lsl #12
 80007d4:	bf1c      	itt	ne
 80007d6:	4610      	movne	r0, r2
 80007d8:	4619      	movne	r1, r3
 80007da:	d10a      	bne.n	80007f2 <__aeabi_dmul+0x24a>
 80007dc:	ea81 0103 	eor.w	r1, r1, r3
 80007e0:	f001 4100 	and.w	r1, r1, #2147483648	; 0x80000000
 80007e4:	f041 41fe 	orr.w	r1, r1, #2130706432	; 0x7f000000
 80007e8:	f441 0170 	orr.w	r1, r1, #15728640	; 0xf00000
 80007ec:	f04f 0000 	mov.w	r0, #0
 80007f0:	bd70      	pop	{r4, r5, r6, pc}
 80007f2:	f041 41fe 	orr.w	r1, r1, #2130706432	; 0x7f000000
 80007f6:	f441 0178 	orr.w	r1, r1, #16252928	; 0xf80000
 80007fa:	bd70      	pop	{r4, r5, r6, pc}

080007fc <__aeabi_ddiv>:
 80007fc:	b570      	push	{r4, r5, r6, lr}
 80007fe:	f04f 0cff 	mov.w	ip, #255	; 0xff
 8000802:	f44c 6ce0 	orr.w	ip, ip, #1792	; 0x700
 8000806:	ea1c 5411 	ands.w	r4, ip, r1, lsr #20
 800080a:	bf1d      	ittte	ne
 800080c:	ea1c 5513 	andsne.w	r5, ip, r3, lsr #20
 8000810:	ea94 0f0c 	teqne	r4, ip
 8000814:	ea95 0f0c 	teqne	r5, ip
 8000818:	f000 f8a7 	bleq	800096a <__aeabi_ddiv+0x16e>
 800081c:	eba4 0405 	sub.w	r4, r4, r5
 8000820:	ea81 0e03 	eor.w	lr, r1, r3
 8000824:	ea52 3503 	orrs.w	r5, r2, r3, lsl #12
 8000828:	ea4f 3101 	mov.w	r1, r1, lsl #12
 800082c:	f000 8088 	beq.w	8000940 <__aeabi_ddiv+0x144>
 8000830:	ea4f 3303 	mov.w	r3, r3, lsl #12
 8000834:	f04f 5580 	mov.w	r5, #268435456	; 0x10000000
 8000838:	ea45 1313 	orr.w	r3, r5, r3, lsr #4
 800083c:	ea43 6312 	orr.w	r3, r3, r2, lsr #24
 8000840:	ea4f 2202 	mov.w	r2, r2, lsl #8
 8000844:	ea45 1511 	orr.w	r5, r5, r1, lsr #4
 8000848:	ea45 6510 	orr.w	r5, r5, r0, lsr #24
 800084c:	ea4f 2600 	mov.w	r6, r0, lsl #8
 8000850:	f00e 4100 	and.w	r1, lr, #2147483648	; 0x80000000
 8000854:	429d      	cmp	r5, r3
 8000856:	bf08      	it	eq
 8000858:	4296      	cmpeq	r6, r2
 800085a:	f144 04fd 	adc.w	r4, r4, #253	; 0xfd
 800085e:	f504 7440 	add.w	r4, r4, #768	; 0x300
 8000862:	d202      	bcs.n	800086a <__aeabi_ddiv+0x6e>
 8000864:	085b      	lsrs	r3, r3, #1
 8000866:	ea4f 0232 	mov.w	r2, r2, rrx
 800086a:	1ab6      	subs	r6, r6, r2
 800086c:	eb65 0503 	sbc.w	r5, r5, r3
 8000870:	085b      	lsrs	r3, r3, #1
 8000872:	ea4f 0232 	mov.w	r2, r2, rrx
 8000876:	f44f 1080 	mov.w	r0, #1048576	; 0x100000
 800087a:	f44f 2c00 	mov.w	ip, #524288	; 0x80000
 800087e:	ebb6 0e02 	subs.w	lr, r6, r2
 8000882:	eb75 0e03 	sbcs.w	lr, r5, r3
 8000886:	bf22      	ittt	cs
 8000888:	1ab6      	subcs	r6, r6, r2
 800088a:	4675      	movcs	r5, lr
 800088c:	ea40 000c 	orrcs.w	r0, r0, ip
 8000890:	085b      	lsrs	r3, r3, #1
 8000892:	ea4f 0232 	mov.w	r2, r2, rrx
 8000896:	ebb6 0e02 	subs.w	lr, r6, r2
 800089a:	eb75 0e03 	sbcs.w	lr, r5, r3
 800089e:	bf22      	ittt	cs
 80008a0:	1ab6      	subcs	r6, r6, r2
 80008a2:	4675      	movcs	r5, lr
 80008a4:	ea40 005c 	orrcs.w	r0, r0, ip, lsr #1
 80008a8:	085b      	lsrs	r3, r3, #1
 80008aa:	ea4f 0232 	mov.w	r2, r2, rrx
 80008ae:	ebb6 0e02 	subs.w	lr, r6, r2
 80008b2:	eb75 0e03 	sbcs.w	lr, r5, r3
 80008b6:	bf22      	ittt	cs
 80008b8:	1ab6      	subcs	r6, r6, r2
 80008ba:	4675      	movcs	r5, lr
 80008bc:	ea40 009c 	orrcs.w	r0, r0, ip, lsr #2
 80008c0:	085b      	lsrs	r3, r3, #1
 80008c2:	ea4f 0232 	mov.w	r2, r2, rrx
 80008c6:	ebb6 0e02 	subs.w	lr, r6, r2
 80008ca:	eb75 0e03 	sbcs.w	lr, r5, r3
 80008ce:	bf22      	ittt	cs
 80008d0:	1ab6      	subcs	r6, r6, r2
 80008d2:	4675      	movcs	r5, lr
 80008d4:	ea40 00dc 	orrcs.w	r0, r0, ip, lsr #3
 80008d8:	ea55 0e06 	orrs.w	lr, r5, r6
 80008dc:	d018      	beq.n	8000910 <__aeabi_ddiv+0x114>
 80008de:	ea4f 1505 	mov.w	r5, r5, lsl #4
 80008e2:	ea45 7516 	orr.w	r5, r5, r6, lsr #28
 80008e6:	ea4f 1606 	mov.w	r6, r6, lsl #4
 80008ea:	ea4f 03c3 	mov.w	r3, r3, lsl #3
 80008ee:	ea43 7352 	orr.w	r3, r3, r2, lsr #29
 80008f2:	ea4f 02c2 	mov.w	r2, r2, lsl #3
 80008f6:	ea5f 1c1c 	movs.w	ip, ip, lsr #4
 80008fa:	d1c0      	bne.n	800087e <__aeabi_ddiv+0x82>
 80008fc:	f411 1f80 	tst.w	r1, #1048576	; 0x100000
 8000900:	d10b      	bne.n	800091a <__aeabi_ddiv+0x11e>
 8000902:	ea41 0100 	orr.w	r1, r1, r0
 8000906:	f04f 0000 	mov.w	r0, #0
 800090a:	f04f 4c00 	mov.w	ip, #2147483648	; 0x80000000
 800090e:	e7b6      	b.n	800087e <__aeabi_ddiv+0x82>
 8000910:	f411 1f80 	tst.w	r1, #1048576	; 0x100000
 8000914:	bf04      	itt	eq
 8000916:	4301      	orreq	r1, r0
 8000918:	2000      	moveq	r0, #0
 800091a:	f1b4 0cfd 	subs.w	ip, r4, #253	; 0xfd
 800091e:	bf88      	it	hi
 8000920:	f5bc 6fe0 	cmphi.w	ip, #1792	; 0x700
 8000924:	f63f aeaf 	bhi.w	8000686 <__aeabi_dmul+0xde>
 8000928:	ebb5 0c03 	subs.w	ip, r5, r3
 800092c:	bf04      	itt	eq
 800092e:	ebb6 0c02 	subseq.w	ip, r6, r2
 8000932:	ea5f 0c50 	movseq.w	ip, r0, lsr #1
 8000936:	f150 0000 	adcs.w	r0, r0, #0
 800093a:	eb41 5104 	adc.w	r1, r1, r4, lsl #20
 800093e:	bd70      	pop	{r4, r5, r6, pc}
 8000940:	f00e 4e00 	and.w	lr, lr, #2147483648	; 0x80000000
 8000944:	ea4e 3111 	orr.w	r1, lr, r1, lsr #12
 8000948:	eb14 045c 	adds.w	r4, r4, ip, lsr #1
 800094c:	bfc2      	ittt	gt
 800094e:	ebd4 050c 	rsbsgt	r5, r4, ip
 8000952:	ea41 5104 	orrgt.w	r1, r1, r4, lsl #20
 8000956:	bd70      	popgt	{r4, r5, r6, pc}
 8000958:	f441 1180 	orr.w	r1, r1, #1048576	; 0x100000
 800095c:	f04f 0e00 	mov.w	lr, #0
 8000960:	3c01      	subs	r4, #1
 8000962:	e690      	b.n	8000686 <__aeabi_dmul+0xde>
 8000964:	ea45 0e06 	orr.w	lr, r5, r6
 8000968:	e68d      	b.n	8000686 <__aeabi_dmul+0xde>
 800096a:	ea0c 5513 	and.w	r5, ip, r3, lsr #20
 800096e:	ea94 0f0c 	teq	r4, ip
 8000972:	bf08      	it	eq
 8000974:	ea95 0f0c 	teqeq	r5, ip
 8000978:	f43f af3b 	beq.w	80007f2 <__aeabi_dmul+0x24a>
 800097c:	ea94 0f0c 	teq	r4, ip
 8000980:	d10a      	bne.n	8000998 <__aeabi_ddiv+0x19c>
 8000982:	ea50 3401 	orrs.w	r4, r0, r1, lsl #12
 8000986:	f47f af34 	bne.w	80007f2 <__aeabi_dmul+0x24a>
 800098a:	ea95 0f0c 	teq	r5, ip
 800098e:	f47f af25 	bne.w	80007dc <__aeabi_dmul+0x234>
 8000992:	4610      	mov	r0, r2
 8000994:	4619      	mov	r1, r3
 8000996:	e72c      	b.n	80007f2 <__aeabi_dmul+0x24a>
 8000998:	ea95 0f0c 	teq	r5, ip
 800099c:	d106      	bne.n	80009ac <__aeabi_ddiv+0x1b0>
 800099e:	ea52 3503 	orrs.w	r5, r2, r3, lsl #12
 80009a2:	f43f aefd 	beq.w	80007a0 <__aeabi_dmul+0x1f8>
 80009a6:	4610      	mov	r0, r2
 80009a8:	4619      	mov	r1, r3
 80009aa:	e722      	b.n	80007f2 <__aeabi_dmul+0x24a>
 80009ac:	ea50 0641 	orrs.w	r6, r0, r1, lsl #1
 80009b0:	bf18      	it	ne
 80009b2:	ea52 0643 	orrsne.w	r6, r2, r3, lsl #1
 80009b6:	f47f aec5 	bne.w	8000744 <__aeabi_dmul+0x19c>
 80009ba:	ea50 0441 	orrs.w	r4, r0, r1, lsl #1
 80009be:	f47f af0d 	bne.w	80007dc <__aeabi_dmul+0x234>
 80009c2:	ea52 0543 	orrs.w	r5, r2, r3, lsl #1
 80009c6:	f47f aeeb 	bne.w	80007a0 <__aeabi_dmul+0x1f8>
 80009ca:	e712      	b.n	80007f2 <__aeabi_dmul+0x24a>

080009cc <__gedf2>:
 80009cc:	f04f 3cff 	mov.w	ip, #4294967295
 80009d0:	e006      	b.n	80009e0 <__cmpdf2+0x4>
 80009d2:	bf00      	nop

080009d4 <__ledf2>:
 80009d4:	f04f 0c01 	mov.w	ip, #1
 80009d8:	e002      	b.n	80009e0 <__cmpdf2+0x4>
 80009da:	bf00      	nop

080009dc <__cmpdf2>:
 80009dc:	f04f 0c01 	mov.w	ip, #1
 80009e0:	f84d cd04 	str.w	ip, [sp, #-4]!
 80009e4:	ea4f 0c41 	mov.w	ip, r1, lsl #1
 80009e8:	ea7f 5c6c 	mvns.w	ip, ip, asr #21
 80009ec:	ea4f 0c43 	mov.w	ip, r3, lsl #1
 80009f0:	bf18      	it	ne
 80009f2:	ea7f 5c6c 	mvnsne.w	ip, ip, asr #21
 80009f6:	d01b      	beq.n	8000a30 <__cmpdf2+0x54>
 80009f8:	b001      	add	sp, #4
 80009fa:	ea50 0c41 	orrs.w	ip, r0, r1, lsl #1
 80009fe:	bf0c      	ite	eq
 8000a00:	ea52 0c43 	orrseq.w	ip, r2, r3, lsl #1
 8000a04:	ea91 0f03 	teqne	r1, r3
 8000a08:	bf02      	ittt	eq
 8000a0a:	ea90 0f02 	teqeq	r0, r2
 8000a0e:	2000      	moveq	r0, #0
 8000a10:	4770      	bxeq	lr
 8000a12:	f110 0f00 	cmn.w	r0, #0
 8000a16:	ea91 0f03 	teq	r1, r3
 8000a1a:	bf58      	it	pl
 8000a1c:	4299      	cmppl	r1, r3
 8000a1e:	bf08      	it	eq
 8000a20:	4290      	cmpeq	r0, r2
 8000a22:	bf2c      	ite	cs
 8000a24:	17d8      	asrcs	r0, r3, #31
 8000a26:	ea6f 70e3 	mvncc.w	r0, r3, asr #31
 8000a2a:	f040 0001 	orr.w	r0, r0, #1
 8000a2e:	4770      	bx	lr
 8000a30:	ea4f 0c41 	mov.w	ip, r1, lsl #1
 8000a34:	ea7f 5c6c 	mvns.w	ip, ip, asr #21
 8000a38:	d102      	bne.n	8000a40 <__cmpdf2+0x64>
 8000a3a:	ea50 3c01 	orrs.w	ip, r0, r1, lsl #12
 8000a3e:	d107      	bne.n	8000a50 <__cmpdf2+0x74>
 8000a40:	ea4f 0c43 	mov.w	ip, r3, lsl #1
 8000a44:	ea7f 5c6c 	mvns.w	ip, ip, asr #21
 8000a48:	d1d6      	bne.n	80009f8 <__cmpdf2+0x1c>
 8000a4a:	ea52 3c03 	orrs.w	ip, r2, r3, lsl #12
 8000a4e:	d0d3      	beq.n	80009f8 <__cmpdf2+0x1c>
 8000a50:	f85d 0b04 	ldr.w	r0, [sp], #4
 8000a54:	4770      	bx	lr
 8000a56:	bf00      	nop

08000a58 <__aeabi_cdrcmple>:
 8000a58:	4684      	mov	ip, r0
 8000a5a:	4610      	mov	r0, r2
 8000a5c:	4662      	mov	r2, ip
 8000a5e:	468c      	mov	ip, r1
 8000a60:	4619      	mov	r1, r3
 8000a62:	4663      	mov	r3, ip
 8000a64:	e000      	b.n	8000a68 <__aeabi_cdcmpeq>
 8000a66:	bf00      	nop

08000a68 <__aeabi_cdcmpeq>:
 8000a68:	b501      	push	{r0, lr}
 8000a6a:	f7ff ffb7 	bl	80009dc <__cmpdf2>
 8000a6e:	2800      	cmp	r0, #0
 8000a70:	bf48      	it	mi
 8000a72:	f110 0f00 	cmnmi.w	r0, #0
 8000a76:	bd01      	pop	{r0, pc}

08000a78 <__aeabi_dcmpeq>:
 8000a78:	f84d ed08 	str.w	lr, [sp, #-8]!
 8000a7c:	f7ff fff4 	bl	8000a68 <__aeabi_cdcmpeq>
 8000a80:	bf0c      	ite	eq
 8000a82:	2001      	moveq	r0, #1
 8000a84:	2000      	movne	r0, #0
 8000a86:	f85d fb08 	ldr.w	pc, [sp], #8
 8000a8a:	bf00      	nop

08000a8c <__aeabi_dcmplt>:
 8000a8c:	f84d ed08 	str.w	lr, [sp, #-8]!
 8000a90:	f7ff ffea 	bl	8000a68 <__aeabi_cdcmpeq>
 8000a94:	bf34      	ite	cc
 8000a96:	2001      	movcc	r0, #1
 8000a98:	2000      	movcs	r0, #0
 8000a9a:	f85d fb08 	ldr.w	pc, [sp], #8
 8000a9e:	bf00      	nop

08000aa0 <__aeabi_dcmple>:
 8000aa0:	f84d ed08 	str.w	lr, [sp, #-8]!
 8000aa4:	f7ff ffe0 	bl	8000a68 <__aeabi_cdcmpeq>
 8000aa8:	bf94      	ite	ls
 8000aaa:	2001      	movls	r0, #1
 8000aac:	2000      	movhi	r0, #0
 8000aae:	f85d fb08 	ldr.w	pc, [sp], #8
 8000ab2:	bf00      	nop

08000ab4 <__aeabi_dcmpge>:
 8000ab4:	f84d ed08 	str.w	lr, [sp, #-8]!
 8000ab8:	f7ff ffce 	bl	8000a58 <__aeabi_cdrcmple>
 8000abc:	bf94      	ite	ls
 8000abe:	2001      	movls	r0, #1
 8000ac0:	2000      	movhi	r0, #0
 8000ac2:	f85d fb08 	ldr.w	pc, [sp], #8
 8000ac6:	bf00      	nop

08000ac8 <__aeabi_dcmpgt>:
 8000ac8:	f84d ed08 	str.w	lr, [sp, #-8]!
 8000acc:	f7ff ffc4 	bl	8000a58 <__aeabi_cdrcmple>
 8000ad0:	bf34      	ite	cc
 8000ad2:	2001      	movcc	r0, #1
 8000ad4:	2000      	movcs	r0, #0
 8000ad6:	f85d fb08 	ldr.w	pc, [sp], #8
 8000ada:	bf00      	nop

08000adc <__aeabi_dcmpun>:
 8000adc:	ea4f 0c41 	mov.w	ip, r1, lsl #1
 8000ae0:	ea7f 5c6c 	mvns.w	ip, ip, asr #21
 8000ae4:	d102      	bne.n	8000aec <__aeabi_dcmpun+0x10>
 8000ae6:	ea50 3c01 	orrs.w	ip, r0, r1, lsl #12
 8000aea:	d10a      	bne.n	8000b02 <__aeabi_dcmpun+0x26>
 8000aec:	ea4f 0c43 	mov.w	ip, r3, lsl #1
 8000af0:	ea7f 5c6c 	mvns.w	ip, ip, asr #21
 8000af4:	d102      	bne.n	8000afc <__aeabi_dcmpun+0x20>
 8000af6:	ea52 3c03 	orrs.w	ip, r2, r3, lsl #12
 8000afa:	d102      	bne.n	8000b02 <__aeabi_dcmpun+0x26>
 8000afc:	f04f 0000 	mov.w	r0, #0
 8000b00:	4770      	bx	lr
 8000b02:	f04f 0001 	mov.w	r0, #1
 8000b06:	4770      	bx	lr

08000b08 <__aeabi_d2iz>:
 8000b08:	ea4f 0241 	mov.w	r2, r1, lsl #1
 8000b0c:	f512 1200 	adds.w	r2, r2, #2097152	; 0x200000
 8000b10:	d215      	bcs.n	8000b3e <__aeabi_d2iz+0x36>
 8000b12:	d511      	bpl.n	8000b38 <__aeabi_d2iz+0x30>
 8000b14:	f46f 7378 	mvn.w	r3, #992	; 0x3e0
 8000b18:	ebb3 5262 	subs.w	r2, r3, r2, asr #21
 8000b1c:	d912      	bls.n	8000b44 <__aeabi_d2iz+0x3c>
 8000b1e:	ea4f 23c1 	mov.w	r3, r1, lsl #11
 8000b22:	f043 4300 	orr.w	r3, r3, #2147483648	; 0x80000000
 8000b26:	ea43 5350 	orr.w	r3, r3, r0, lsr #21
 8000b2a:	f011 4f00 	tst.w	r1, #2147483648	; 0x80000000
 8000b2e:	fa23 f002 	lsr.w	r0, r3, r2
 8000b32:	bf18      	it	ne
 8000b34:	4240      	negne	r0, r0
 8000b36:	4770      	bx	lr
 8000b38:	f04f 0000 	mov.w	r0, #0
 8000b3c:	4770      	bx	lr
 8000b3e:	ea50 3001 	orrs.w	r0, r0, r1, lsl #12
 8000b42:	d105      	bne.n	8000b50 <__aeabi_d2iz+0x48>
 8000b44:	f011 4000 	ands.w	r0, r1, #2147483648	; 0x80000000
 8000b48:	bf08      	it	eq
 8000b4a:	f06f 4000 	mvneq.w	r0, #2147483648	; 0x80000000
 8000b4e:	4770      	bx	lr
 8000b50:	f04f 0000 	mov.w	r0, #0
 8000b54:	4770      	bx	lr
 8000b56:	bf00      	nop

08000b58 <__aeabi_uldivmod>:
 8000b58:	b953      	cbnz	r3, 8000b70 <__aeabi_uldivmod+0x18>
 8000b5a:	b94a      	cbnz	r2, 8000b70 <__aeabi_uldivmod+0x18>
 8000b5c:	2900      	cmp	r1, #0
 8000b5e:	bf08      	it	eq
 8000b60:	2800      	cmpeq	r0, #0
 8000b62:	bf1c      	itt	ne
 8000b64:	f04f 31ff 	movne.w	r1, #4294967295
 8000b68:	f04f 30ff 	movne.w	r0, #4294967295
 8000b6c:	f000 b97a 	b.w	8000e64 <__aeabi_idiv0>
 8000b70:	f1ad 0c08 	sub.w	ip, sp, #8
 8000b74:	e96d ce04 	strd	ip, lr, [sp, #-16]!
 8000b78:	f000 f806 	bl	8000b88 <__udivmoddi4>
 8000b7c:	f8dd e004 	ldr.w	lr, [sp, #4]
 8000b80:	e9dd 2302 	ldrd	r2, r3, [sp, #8]
 8000b84:	b004      	add	sp, #16
 8000b86:	4770      	bx	lr

08000b88 <__udivmoddi4>:
 8000b88:	e92d 47f0 	stmdb	sp!, {r4, r5, r6, r7, r8, r9, sl, lr}
 8000b8c:	468c      	mov	ip, r1
 8000b8e:	460e      	mov	r6, r1
 8000b90:	4604      	mov	r4, r0
 8000b92:	9d08      	ldr	r5, [sp, #32]
 8000b94:	2b00      	cmp	r3, #0
 8000b96:	d150      	bne.n	8000c3a <__udivmoddi4+0xb2>
 8000b98:	428a      	cmp	r2, r1
 8000b9a:	4617      	mov	r7, r2
 8000b9c:	d96c      	bls.n	8000c78 <__udivmoddi4+0xf0>
 8000b9e:	fab2 fe82 	clz	lr, r2
 8000ba2:	f1be 0f00 	cmp.w	lr, #0
 8000ba6:	d00b      	beq.n	8000bc0 <__udivmoddi4+0x38>
 8000ba8:	f1ce 0c20 	rsb	ip, lr, #32
 8000bac:	fa01 f60e 	lsl.w	r6, r1, lr
 8000bb0:	fa20 fc0c 	lsr.w	ip, r0, ip
 8000bb4:	fa02 f70e 	lsl.w	r7, r2, lr
 8000bb8:	ea4c 0c06 	orr.w	ip, ip, r6
 8000bbc:	fa00 f40e 	lsl.w	r4, r0, lr
 8000bc0:	0c3a      	lsrs	r2, r7, #16
 8000bc2:	fbbc f9f2 	udiv	r9, ip, r2
 8000bc6:	b2bb      	uxth	r3, r7
 8000bc8:	fb02 cc19 	mls	ip, r2, r9, ip
 8000bcc:	fb09 fa03 	mul.w	sl, r9, r3
 8000bd0:	ea4f 4814 	mov.w	r8, r4, lsr #16
 8000bd4:	ea48 460c 	orr.w	r6, r8, ip, lsl #16
 8000bd8:	45b2      	cmp	sl, r6
 8000bda:	d90a      	bls.n	8000bf2 <__udivmoddi4+0x6a>
 8000bdc:	19f6      	adds	r6, r6, r7
 8000bde:	f109 31ff 	add.w	r1, r9, #4294967295
 8000be2:	f080 8125 	bcs.w	8000e30 <__udivmoddi4+0x2a8>
 8000be6:	45b2      	cmp	sl, r6
 8000be8:	f240 8122 	bls.w	8000e30 <__udivmoddi4+0x2a8>
 8000bec:	f1a9 0902 	sub.w	r9, r9, #2
 8000bf0:	443e      	add	r6, r7
 8000bf2:	eba6 060a 	sub.w	r6, r6, sl
 8000bf6:	fbb6 f0f2 	udiv	r0, r6, r2
 8000bfa:	fb02 6610 	mls	r6, r2, r0, r6
 8000bfe:	fb00 f303 	mul.w	r3, r0, r3
 8000c02:	b2a4      	uxth	r4, r4
 8000c04:	ea44 4406 	orr.w	r4, r4, r6, lsl #16
 8000c08:	42a3      	cmp	r3, r4
 8000c0a:	d909      	bls.n	8000c20 <__udivmoddi4+0x98>
 8000c0c:	19e4      	adds	r4, r4, r7
 8000c0e:	f100 32ff 	add.w	r2, r0, #4294967295
 8000c12:	f080 810b 	bcs.w	8000e2c <__udivmoddi4+0x2a4>
 8000c16:	42a3      	cmp	r3, r4
 8000c18:	f240 8108 	bls.w	8000e2c <__udivmoddi4+0x2a4>
 8000c1c:	3802      	subs	r0, #2
 8000c1e:	443c      	add	r4, r7
 8000c20:	2100      	movs	r1, #0
 8000c22:	1ae4      	subs	r4, r4, r3
 8000c24:	ea40 4009 	orr.w	r0, r0, r9, lsl #16
 8000c28:	2d00      	cmp	r5, #0
 8000c2a:	d062      	beq.n	8000cf2 <__udivmoddi4+0x16a>
 8000c2c:	2300      	movs	r3, #0
 8000c2e:	fa24 f40e 	lsr.w	r4, r4, lr
 8000c32:	602c      	str	r4, [r5, #0]
 8000c34:	606b      	str	r3, [r5, #4]
 8000c36:	e8bd 87f0 	ldmia.w	sp!, {r4, r5, r6, r7, r8, r9, sl, pc}
 8000c3a:	428b      	cmp	r3, r1
 8000c3c:	d907      	bls.n	8000c4e <__udivmoddi4+0xc6>
 8000c3e:	2d00      	cmp	r5, #0
 8000c40:	d055      	beq.n	8000cee <__udivmoddi4+0x166>
 8000c42:	2100      	movs	r1, #0
 8000c44:	e885 0041 	stmia.w	r5, {r0, r6}
 8000c48:	4608      	mov	r0, r1
 8000c4a:	e8bd 87f0 	ldmia.w	sp!, {r4, r5, r6, r7, r8, r9, sl, pc}
 8000c4e:	fab3 f183 	clz	r1, r3
 8000c52:	2900      	cmp	r1, #0
 8000c54:	f040 808f 	bne.w	8000d76 <__udivmoddi4+0x1ee>
 8000c58:	42b3      	cmp	r3, r6
 8000c5a:	d302      	bcc.n	8000c62 <__udivmoddi4+0xda>
 8000c5c:	4282      	cmp	r2, r0
 8000c5e:	f200 80fc 	bhi.w	8000e5a <__udivmoddi4+0x2d2>
 8000c62:	1a84      	subs	r4, r0, r2
 8000c64:	eb66 0603 	sbc.w	r6, r6, r3
 8000c68:	2001      	movs	r0, #1
 8000c6a:	46b4      	mov	ip, r6
 8000c6c:	2d00      	cmp	r5, #0
 8000c6e:	d040      	beq.n	8000cf2 <__udivmoddi4+0x16a>
 8000c70:	e885 1010 	stmia.w	r5, {r4, ip}
 8000c74:	e8bd 87f0 	ldmia.w	sp!, {r4, r5, r6, r7, r8, r9, sl, pc}
 8000c78:	b912      	cbnz	r2, 8000c80 <__udivmoddi4+0xf8>
 8000c7a:	2701      	movs	r7, #1
 8000c7c:	fbb7 f7f2 	udiv	r7, r7, r2
 8000c80:	fab7 fe87 	clz	lr, r7
 8000c84:	f1be 0f00 	cmp.w	lr, #0
 8000c88:	d135      	bne.n	8000cf6 <__udivmoddi4+0x16e>
 8000c8a:	2101      	movs	r1, #1
 8000c8c:	1bf6      	subs	r6, r6, r7
 8000c8e:	ea4f 4c17 	mov.w	ip, r7, lsr #16
 8000c92:	fa1f f887 	uxth.w	r8, r7
 8000c96:	fbb6 f2fc 	udiv	r2, r6, ip
 8000c9a:	fb0c 6612 	mls	r6, ip, r2, r6
 8000c9e:	fb08 f002 	mul.w	r0, r8, r2
 8000ca2:	0c23      	lsrs	r3, r4, #16
 8000ca4:	ea43 4606 	orr.w	r6, r3, r6, lsl #16
 8000ca8:	42b0      	cmp	r0, r6
 8000caa:	d907      	bls.n	8000cbc <__udivmoddi4+0x134>
 8000cac:	19f6      	adds	r6, r6, r7
 8000cae:	f102 33ff 	add.w	r3, r2, #4294967295
 8000cb2:	d202      	bcs.n	8000cba <__udivmoddi4+0x132>
 8000cb4:	42b0      	cmp	r0, r6
 8000cb6:	f200 80d2 	bhi.w	8000e5e <__udivmoddi4+0x2d6>
 8000cba:	461a      	mov	r2, r3
 8000cbc:	1a36      	subs	r6, r6, r0
 8000cbe:	fbb6 f0fc 	udiv	r0, r6, ip
 8000cc2:	fb0c 6610 	mls	r6, ip, r0, r6
 8000cc6:	fb08 f800 	mul.w	r8, r8, r0
 8000cca:	b2a3      	uxth	r3, r4
 8000ccc:	ea43 4406 	orr.w	r4, r3, r6, lsl #16
 8000cd0:	45a0      	cmp	r8, r4
 8000cd2:	d907      	bls.n	8000ce4 <__udivmoddi4+0x15c>
 8000cd4:	19e4      	adds	r4, r4, r7
 8000cd6:	f100 33ff 	add.w	r3, r0, #4294967295
 8000cda:	d202      	bcs.n	8000ce2 <__udivmoddi4+0x15a>
 8000cdc:	45a0      	cmp	r8, r4
 8000cde:	f200 80b9 	bhi.w	8000e54 <__udivmoddi4+0x2cc>
 8000ce2:	4618      	mov	r0, r3
 8000ce4:	eba4 0408 	sub.w	r4, r4, r8
 8000ce8:	ea40 4002 	orr.w	r0, r0, r2, lsl #16
 8000cec:	e79c      	b.n	8000c28 <__udivmoddi4+0xa0>
 8000cee:	4629      	mov	r1, r5
 8000cf0:	4628      	mov	r0, r5
 8000cf2:	e8bd 87f0 	ldmia.w	sp!, {r4, r5, r6, r7, r8, r9, sl, pc}
 8000cf6:	fa07 f70e 	lsl.w	r7, r7, lr
 8000cfa:	f1ce 0320 	rsb	r3, lr, #32
 8000cfe:	fa26 f203 	lsr.w	r2, r6, r3
 8000d02:	ea4f 4c17 	mov.w	ip, r7, lsr #16
 8000d06:	fbb2 f1fc 	udiv	r1, r2, ip
 8000d0a:	fa1f f887 	uxth.w	r8, r7
 8000d0e:	fb0c 2211 	mls	r2, ip, r1, r2
 8000d12:	fa06 f60e 	lsl.w	r6, r6, lr
 8000d16:	fa20 f303 	lsr.w	r3, r0, r3
 8000d1a:	fb01 f908 	mul.w	r9, r1, r8
 8000d1e:	4333      	orrs	r3, r6
 8000d20:	0c1e      	lsrs	r6, r3, #16
 8000d22:	ea46 4602 	orr.w	r6, r6, r2, lsl #16
 8000d26:	45b1      	cmp	r9, r6
 8000d28:	fa00 f40e 	lsl.w	r4, r0, lr
 8000d2c:	d909      	bls.n	8000d42 <__udivmoddi4+0x1ba>
 8000d2e:	19f6      	adds	r6, r6, r7
 8000d30:	f101 32ff 	add.w	r2, r1, #4294967295
 8000d34:	f080 808c 	bcs.w	8000e50 <__udivmoddi4+0x2c8>
 8000d38:	45b1      	cmp	r9, r6
 8000d3a:	f240 8089 	bls.w	8000e50 <__udivmoddi4+0x2c8>
 8000d3e:	3902      	subs	r1, #2
 8000d40:	443e      	add	r6, r7
 8000d42:	eba6 0609 	sub.w	r6, r6, r9
 8000d46:	fbb6 f0fc 	udiv	r0, r6, ip
 8000d4a:	fb0c 6210 	mls	r2, ip, r0, r6
 8000d4e:	fb00 f908 	mul.w	r9, r0, r8
 8000d52:	b29e      	uxth	r6, r3
 8000d54:	ea46 4602 	orr.w	r6, r6, r2, lsl #16
 8000d58:	45b1      	cmp	r9, r6
 8000d5a:	d907      	bls.n	8000d6c <__udivmoddi4+0x1e4>
 8000d5c:	19f6      	adds	r6, r6, r7
 8000d5e:	f100 33ff 	add.w	r3, r0, #4294967295
 8000d62:	d271      	bcs.n	8000e48 <__udivmoddi4+0x2c0>
 8000d64:	45b1      	cmp	r9, r6
 8000d66:	d96f      	bls.n	8000e48 <__udivmoddi4+0x2c0>
 8000d68:	3802      	subs	r0, #2
 8000d6a:	443e      	add	r6, r7
 8000d6c:	eba6 0609 	sub.w	r6, r6, r9
 8000d70:	ea40 4101 	orr.w	r1, r0, r1, lsl #16
 8000d74:	e78f      	b.n	8000c96 <__udivmoddi4+0x10e>
 8000d76:	f1c1 0720 	rsb	r7, r1, #32
 8000d7a:	fa22 f807 	lsr.w	r8, r2, r7
 8000d7e:	408b      	lsls	r3, r1
 8000d80:	ea48 0303 	orr.w	r3, r8, r3
 8000d84:	fa26 f407 	lsr.w	r4, r6, r7
 8000d88:	ea4f 4e13 	mov.w	lr, r3, lsr #16
 8000d8c:	fbb4 f9fe 	udiv	r9, r4, lr
 8000d90:	fa1f fc83 	uxth.w	ip, r3
 8000d94:	fb0e 4419 	mls	r4, lr, r9, r4
 8000d98:	408e      	lsls	r6, r1
 8000d9a:	fa20 f807 	lsr.w	r8, r0, r7
 8000d9e:	fb09 fa0c 	mul.w	sl, r9, ip
 8000da2:	ea48 0806 	orr.w	r8, r8, r6
 8000da6:	ea4f 4618 	mov.w	r6, r8, lsr #16
 8000daa:	ea46 4404 	orr.w	r4, r6, r4, lsl #16
 8000dae:	45a2      	cmp	sl, r4
 8000db0:	fa02 f201 	lsl.w	r2, r2, r1
 8000db4:	fa00 f601 	lsl.w	r6, r0, r1
 8000db8:	d908      	bls.n	8000dcc <__udivmoddi4+0x244>
 8000dba:	18e4      	adds	r4, r4, r3
 8000dbc:	f109 30ff 	add.w	r0, r9, #4294967295
 8000dc0:	d244      	bcs.n	8000e4c <__udivmoddi4+0x2c4>
 8000dc2:	45a2      	cmp	sl, r4
 8000dc4:	d942      	bls.n	8000e4c <__udivmoddi4+0x2c4>
 8000dc6:	f1a9 0902 	sub.w	r9, r9, #2
 8000dca:	441c      	add	r4, r3
 8000dcc:	eba4 040a 	sub.w	r4, r4, sl
 8000dd0:	fbb4 f0fe 	udiv	r0, r4, lr
 8000dd4:	fb0e 4410 	mls	r4, lr, r0, r4
 8000dd8:	fb00 fc0c 	mul.w	ip, r0, ip
 8000ddc:	fa1f f888 	uxth.w	r8, r8
 8000de0:	ea48 4404 	orr.w	r4, r8, r4, lsl #16
 8000de4:	45a4      	cmp	ip, r4
 8000de6:	d907      	bls.n	8000df8 <__udivmoddi4+0x270>
 8000de8:	18e4      	adds	r4, r4, r3
 8000dea:	f100 3eff 	add.w	lr, r0, #4294967295
 8000dee:	d229      	bcs.n	8000e44 <__udivmoddi4+0x2bc>
 8000df0:	45a4      	cmp	ip, r4
 8000df2:	d927      	bls.n	8000e44 <__udivmoddi4+0x2bc>
 8000df4:	3802      	subs	r0, #2
 8000df6:	441c      	add	r4, r3
 8000df8:	ea40 4009 	orr.w	r0, r0, r9, lsl #16
 8000dfc:	fba0 8902 	umull	r8, r9, r0, r2
 8000e00:	eba4 0c0c 	sub.w	ip, r4, ip
 8000e04:	45cc      	cmp	ip, r9
 8000e06:	46c2      	mov	sl, r8
 8000e08:	46ce      	mov	lr, r9
 8000e0a:	d315      	bcc.n	8000e38 <__udivmoddi4+0x2b0>
 8000e0c:	d012      	beq.n	8000e34 <__udivmoddi4+0x2ac>
 8000e0e:	b155      	cbz	r5, 8000e26 <__udivmoddi4+0x29e>
 8000e10:	ebb6 030a 	subs.w	r3, r6, sl
 8000e14:	eb6c 060e 	sbc.w	r6, ip, lr
 8000e18:	fa06 f707 	lsl.w	r7, r6, r7
 8000e1c:	40cb      	lsrs	r3, r1
 8000e1e:	431f      	orrs	r7, r3
 8000e20:	40ce      	lsrs	r6, r1
 8000e22:	602f      	str	r7, [r5, #0]
 8000e24:	606e      	str	r6, [r5, #4]
 8000e26:	2100      	movs	r1, #0
 8000e28:	e8bd 87f0 	ldmia.w	sp!, {r4, r5, r6, r7, r8, r9, sl, pc}
 8000e2c:	4610      	mov	r0, r2
 8000e2e:	e6f7      	b.n	8000c20 <__udivmoddi4+0x98>
 8000e30:	4689      	mov	r9, r1
 8000e32:	e6de      	b.n	8000bf2 <__udivmoddi4+0x6a>
 8000e34:	4546      	cmp	r6, r8
 8000e36:	d2ea      	bcs.n	8000e0e <__udivmoddi4+0x286>
 8000e38:	ebb8 0a02 	subs.w	sl, r8, r2
 8000e3c:	eb69 0e03 	sbc.w	lr, r9, r3
 8000e40:	3801      	subs	r0, #1
 8000e42:	e7e4      	b.n	8000e0e <__udivmoddi4+0x286>
 8000e44:	4670      	mov	r0, lr
 8000e46:	e7d7      	b.n	8000df8 <__udivmoddi4+0x270>
 8000e48:	4618      	mov	r0, r3
 8000e4a:	e78f      	b.n	8000d6c <__udivmoddi4+0x1e4>
 8000e4c:	4681      	mov	r9, r0
 8000e4e:	e7bd      	b.n	8000dcc <__udivmoddi4+0x244>
 8000e50:	4611      	mov	r1, r2
 8000e52:	e776      	b.n	8000d42 <__udivmoddi4+0x1ba>
 8000e54:	3802      	subs	r0, #2
 8000e56:	443c      	add	r4, r7
 8000e58:	e744      	b.n	8000ce4 <__udivmoddi4+0x15c>
 8000e5a:	4608      	mov	r0, r1
 8000e5c:	e706      	b.n	8000c6c <__udivmoddi4+0xe4>
 8000e5e:	3a02      	subs	r2, #2
 8000e60:	443e      	add	r6, r7
 8000e62:	e72b      	b.n	8000cbc <__udivmoddi4+0x134>

08000e64 <__aeabi_idiv0>:
 8000e64:	4770      	bx	lr
 8000e66:	bf00      	nop

08000e68 <Init_led>:
 8000e68:	b537      	push	{r0, r1, r2, r4, r5, lr}
 8000e6a:	2101      	movs	r1, #1
 8000e6c:	2004      	movs	r0, #4
 8000e6e:	f002 fae5 	bl	800343c <RCC_APB2PeriphClockCmd>
 8000e72:	2310      	movs	r3, #16
 8000e74:	f44f 4500 	mov.w	r5, #32768	; 0x8000
 8000e78:	f88d 3007 	strb.w	r3, [sp, #7]
 8000e7c:	2303      	movs	r3, #3
 8000e7e:	4c0b      	ldr	r4, [pc, #44]	; (8000eac <Init_led+0x44>)
 8000e80:	a901      	add	r1, sp, #4
 8000e82:	4620      	mov	r0, r4
 8000e84:	f88d 3006 	strb.w	r3, [sp, #6]
 8000e88:	f8ad 5004 	strh.w	r5, [sp, #4]
 8000e8c:	f002 f9a6 	bl	80031dc <GPIO_Init>
 8000e90:	2101      	movs	r1, #1
 8000e92:	4608      	mov	r0, r1
 8000e94:	f002 fad2 	bl	800343c <RCC_APB2PeriphClockCmd>
 8000e98:	2101      	movs	r1, #1
 8000e9a:	4805      	ldr	r0, [pc, #20]	; (8000eb0 <Init_led+0x48>)
 8000e9c:	f002 f9f4 	bl	8003288 <GPIO_PinRemapConfig>
 8000ea0:	4629      	mov	r1, r5
 8000ea2:	4620      	mov	r0, r4
 8000ea4:	f002 f9ee 	bl	8003284 <GPIO_ResetBits>
 8000ea8:	b003      	add	sp, #12
 8000eaa:	bd30      	pop	{r4, r5, pc}
 8000eac:	40010800 	.word	0x40010800
 8000eb0:	00300200 	.word	0x00300200

08000eb4 <TIM4_Init>:
 8000eb4:	b57f      	push	{r0, r1, r2, r3, r4, r5, r6, lr}
 8000eb6:	4c1b      	ldr	r4, [pc, #108]	; (8000f24 <TIM4_Init+0x70>)
 8000eb8:	460d      	mov	r5, r1
 8000eba:	4606      	mov	r6, r0
 8000ebc:	f7ff ffd4 	bl	8000e68 <Init_led>
 8000ec0:	4620      	mov	r0, r4
 8000ec2:	f002 faff 	bl	80034c4 <TIM_DeInit>
 8000ec6:	2101      	movs	r1, #1
 8000ec8:	2004      	movs	r0, #4
 8000eca:	f002 fac3 	bl	8003454 <RCC_APB1PeriphClockCmd>
 8000ece:	2300      	movs	r3, #0
 8000ed0:	a901      	add	r1, sp, #4
 8000ed2:	4620      	mov	r0, r4
 8000ed4:	f8ad 300a 	strh.w	r3, [sp, #10]
 8000ed8:	f8ad 3006 	strh.w	r3, [sp, #6]
 8000edc:	f8ad 5004 	strh.w	r5, [sp, #4]
 8000ee0:	f8ad 6008 	strh.w	r6, [sp, #8]
 8000ee4:	f002 fbd2 	bl	800368c <TIM_TimeBaseInit>
 8000ee8:	2201      	movs	r2, #1
 8000eea:	4620      	mov	r0, r4
 8000eec:	4611      	mov	r1, r2
 8000eee:	f002 fc2c 	bl	800374a <TIM_ITConfig>
 8000ef2:	2101      	movs	r1, #1
 8000ef4:	4620      	mov	r0, r4
 8000ef6:	f002 fc35 	bl	8003764 <TIM_ClearITPendingBit>
 8000efa:	231e      	movs	r3, #30
 8000efc:	2501      	movs	r5, #1
 8000efe:	f88d 3000 	strb.w	r3, [sp]
 8000f02:	2304      	movs	r3, #4
 8000f04:	4668      	mov	r0, sp
 8000f06:	f88d 3001 	strb.w	r3, [sp, #1]
 8000f0a:	f88d 3002 	strb.w	r3, [sp, #2]
 8000f0e:	f88d 5003 	strb.w	r5, [sp, #3]
 8000f12:	f001 ff95 	bl	8002e40 <NVIC_Init>
 8000f16:	4629      	mov	r1, r5
 8000f18:	4620      	mov	r0, r4
 8000f1a:	f002 fc01 	bl	8003720 <TIM_Cmd>
 8000f1e:	b004      	add	sp, #16
 8000f20:	bd70      	pop	{r4, r5, r6, pc}
 8000f22:	bf00      	nop
 8000f24:	40000800 	.word	0x40000800

08000f28 <TIM4_IRQHandler>:
 8000f28:	b508      	push	{r3, lr}
 8000f2a:	2101      	movs	r1, #1
 8000f2c:	4816      	ldr	r0, [pc, #88]	; (8000f88 <TIM4_IRQHandler+0x60>)
 8000f2e:	f002 fc0e 	bl	800374e <TIM_GetITStatus>
 8000f32:	b318      	cbz	r0, 8000f7c <TIM4_IRQHandler+0x54>
 8000f34:	4b15      	ldr	r3, [pc, #84]	; (8000f8c <TIM4_IRQHandler+0x64>)
 8000f36:	781b      	ldrb	r3, [r3, #0]
 8000f38:	b173      	cbz	r3, 8000f58 <TIM4_IRQHandler+0x30>
 8000f3a:	4a15      	ldr	r2, [pc, #84]	; (8000f90 <TIM4_IRQHandler+0x68>)
 8000f3c:	7813      	ldrb	r3, [r2, #0]
 8000f3e:	3301      	adds	r3, #1
 8000f40:	b2db      	uxtb	r3, r3
 8000f42:	7013      	strb	r3, [r2, #0]
 8000f44:	7813      	ldrb	r3, [r2, #0]
 8000f46:	2b14      	cmp	r3, #20
 8000f48:	d106      	bne.n	8000f58 <TIM4_IRQHandler+0x30>
 8000f4a:	2300      	movs	r3, #0
 8000f4c:	7013      	strb	r3, [r2, #0]
 8000f4e:	4a11      	ldr	r2, [pc, #68]	; (8000f94 <TIM4_IRQHandler+0x6c>)
 8000f50:	6813      	ldr	r3, [r2, #0]
 8000f52:	f083 0301 	eor.w	r3, r3, #1
 8000f56:	6013      	str	r3, [r2, #0]
 8000f58:	4b0f      	ldr	r3, [pc, #60]	; (8000f98 <TIM4_IRQHandler+0x70>)
 8000f5a:	781b      	ldrb	r3, [r3, #0]
 8000f5c:	b173      	cbz	r3, 8000f7c <TIM4_IRQHandler+0x54>
 8000f5e:	4a0f      	ldr	r2, [pc, #60]	; (8000f9c <TIM4_IRQHandler+0x74>)
 8000f60:	7813      	ldrb	r3, [r2, #0]
 8000f62:	3301      	adds	r3, #1
 8000f64:	b2db      	uxtb	r3, r3
 8000f66:	7013      	strb	r3, [r2, #0]
 8000f68:	7813      	ldrb	r3, [r2, #0]
 8000f6a:	2b32      	cmp	r3, #50	; 0x32
 8000f6c:	d106      	bne.n	8000f7c <TIM4_IRQHandler+0x54>
 8000f6e:	2300      	movs	r3, #0
 8000f70:	7013      	strb	r3, [r2, #0]
 8000f72:	4a08      	ldr	r2, [pc, #32]	; (8000f94 <TIM4_IRQHandler+0x6c>)
 8000f74:	6813      	ldr	r3, [r2, #0]
 8000f76:	f083 0301 	eor.w	r3, r3, #1
 8000f7a:	6013      	str	r3, [r2, #0]
 8000f7c:	2101      	movs	r1, #1
 8000f7e:	e8bd 4008 	ldmia.w	sp!, {r3, lr}
 8000f82:	4801      	ldr	r0, [pc, #4]	; (8000f88 <TIM4_IRQHandler+0x60>)
 8000f84:	f002 bbee 	b.w	8003764 <TIM_ClearITPendingBit>
 8000f88:	40000800 	.word	0x40000800
 8000f8c:	20001245 	.word	0x20001245
 8000f90:	200006e9 	.word	0x200006e9
 8000f94:	422101bc 	.word	0x422101bc
 8000f98:	200011c4 	.word	0x200011c4
 8000f9c:	200006e8 	.word	0x200006e8

08000fa0 <STMFLASH_ReadHalfWord>:
 8000fa0:	8800      	ldrh	r0, [r0, #0]
 8000fa2:	b280      	uxth	r0, r0
 8000fa4:	4770      	bx	lr

08000fa6 <STMFLASH_Write_NoCheck>:
 8000fa6:	b570      	push	{r4, r5, r6, lr}
 8000fa8:	460c      	mov	r4, r1
 8000faa:	eb01 0542 	add.w	r5, r1, r2, lsl #1
 8000fae:	1a46      	subs	r6, r0, r1
 8000fb0:	42ac      	cmp	r4, r5
 8000fb2:	eb06 0004 	add.w	r0, r6, r4
 8000fb6:	d100      	bne.n	8000fba <STMFLASH_Write_NoCheck+0x14>
 8000fb8:	bd70      	pop	{r4, r5, r6, pc}
 8000fba:	f834 1b02 	ldrh.w	r1, [r4], #2
 8000fbe:	f002 f865 	bl	800308c <FLASH_ProgramHalfWord>
 8000fc2:	e7f5      	b.n	8000fb0 <STMFLASH_Write_NoCheck+0xa>

08000fc4 <STMFLASH_Read>:
 8000fc4:	eb01 0242 	add.w	r2, r1, r2, lsl #1
 8000fc8:	1a40      	subs	r0, r0, r1
 8000fca:	4291      	cmp	r1, r2
 8000fcc:	d100      	bne.n	8000fd0 <STMFLASH_Read+0xc>
 8000fce:	4770      	bx	lr
 8000fd0:	5a43      	ldrh	r3, [r0, r1]
 8000fd2:	f821 3b02 	strh.w	r3, [r1], #2
 8000fd6:	e7f8      	b.n	8000fca <STMFLASH_Read+0x6>

08000fd8 <STMFLASH_Write>:
 8000fd8:	e92d 47f0 	stmdb	sp!, {r4, r5, r6, r7, r8, r9, sl, lr}
 8000fdc:	f100 4578 	add.w	r5, r0, #4160749568	; 0xf8000000
 8000fe0:	f5b5 2f80 	cmp.w	r5, #262144	; 0x40000
 8000fe4:	4607      	mov	r7, r0
 8000fe6:	4688      	mov	r8, r1
 8000fe8:	4616      	mov	r6, r2
 8000fea:	d254      	bcs.n	8001096 <STMFLASH_Write+0xbe>
 8000fec:	f3c5 0949 	ubfx	r9, r5, #1, #10
 8000ff0:	f5c9 6480 	rsb	r4, r9, #1024	; 0x400
 8000ff4:	b2a4      	uxth	r4, r4
 8000ff6:	f001 ff7f 	bl	8002ef8 <FLASH_Unlock>
 8000ffa:	42b4      	cmp	r4, r6
 8000ffc:	bf28      	it	cs
 8000ffe:	4634      	movcs	r4, r6
 8001000:	f425 65ff 	bic.w	r5, r5, #2040	; 0x7f8
 8001004:	f025 0507 	bic.w	r5, r5, #7
 8001008:	f8df a090 	ldr.w	sl, [pc, #144]	; 800109c <STMFLASH_Write+0xc4>
 800100c:	f105 6500 	add.w	r5, r5, #134217728	; 0x8000000
 8001010:	4651      	mov	r1, sl
 8001012:	f44f 6280 	mov.w	r2, #1024	; 0x400
 8001016:	4628      	mov	r0, r5
 8001018:	f7ff ffd4 	bl	8000fc4 <STMFLASH_Read>
 800101c:	2300      	movs	r3, #0
 800101e:	f64f 71ff 	movw	r1, #65535	; 0xffff
 8001022:	b29a      	uxth	r2, r3
 8001024:	4294      	cmp	r4, r2
 8001026:	d803      	bhi.n	8001030 <STMFLASH_Write+0x58>
 8001028:	4622      	mov	r2, r4
 800102a:	4641      	mov	r1, r8
 800102c:	4638      	mov	r0, r7
 800102e:	e01a      	b.n	8001066 <STMFLASH_Write+0x8e>
 8001030:	3301      	adds	r3, #1
 8001032:	eb09 0203 	add.w	r2, r9, r3
 8001036:	eb0a 0242 	add.w	r2, sl, r2, lsl #1
 800103a:	f832 2c02 	ldrh.w	r2, [r2, #-2]
 800103e:	428a      	cmp	r2, r1
 8001040:	d0ef      	beq.n	8001022 <STMFLASH_Write+0x4a>
 8001042:	4628      	mov	r0, r5
 8001044:	f002 f8aa 	bl	800319c <FLASH_ErasePage>
 8001048:	2300      	movs	r3, #0
 800104a:	f838 1013 	ldrh.w	r1, [r8, r3, lsl #1]
 800104e:	eb09 0203 	add.w	r2, r9, r3
 8001052:	3301      	adds	r3, #1
 8001054:	f82a 1012 	strh.w	r1, [sl, r2, lsl #1]
 8001058:	b29a      	uxth	r2, r3
 800105a:	4294      	cmp	r4, r2
 800105c:	d8f5      	bhi.n	800104a <STMFLASH_Write+0x72>
 800105e:	f44f 6280 	mov.w	r2, #1024	; 0x400
 8001062:	4651      	mov	r1, sl
 8001064:	4628      	mov	r0, r5
 8001066:	f7ff ff9e 	bl	8000fa6 <STMFLASH_Write_NoCheck>
 800106a:	42a6      	cmp	r6, r4
 800106c:	f505 6500 	add.w	r5, r5, #2048	; 0x800
 8001070:	d00d      	beq.n	800108e <STMFLASH_Write+0xb6>
 8001072:	1b36      	subs	r6, r6, r4
 8001074:	b2b6      	uxth	r6, r6
 8001076:	f5b6 6f80 	cmp.w	r6, #1024	; 0x400
 800107a:	eb08 0844 	add.w	r8, r8, r4, lsl #1
 800107e:	4427      	add	r7, r4
 8001080:	f04f 0900 	mov.w	r9, #0
 8001084:	4634      	mov	r4, r6
 8001086:	bf28      	it	cs
 8001088:	f44f 6480 	movcs.w	r4, #1024	; 0x400
 800108c:	e7c0      	b.n	8001010 <STMFLASH_Write+0x38>
 800108e:	e8bd 47f0 	ldmia.w	sp!, {r4, r5, r6, r7, r8, r9, sl, lr}
 8001092:	f001 bf3b 	b.w	8002f0c <FLASH_Lock>
 8001096:	e8bd 87f0 	ldmia.w	sp!, {r4, r5, r6, r7, r8, r9, sl, pc}
 800109a:	bf00      	nop
 800109c:	20001a98 	.word	0x20001a98

080010a0 <WriteDeviceID>:
 80010a0:	4b02      	ldr	r3, [pc, #8]	; (80010ac <WriteDeviceID+0xc>)
 80010a2:	2208      	movs	r2, #8
 80010a4:	6819      	ldr	r1, [r3, #0]
 80010a6:	4802      	ldr	r0, [pc, #8]	; (80010b0 <WriteDeviceID+0x10>)
 80010a8:	f7ff bf96 	b.w	8000fd8 <STMFLASH_Write>
 80010ac:	200006ec 	.word	0x200006ec
 80010b0:	0803f804 	.word	0x0803f804

080010b4 <ReadDeviceID>:
 80010b4:	2208      	movs	r2, #8
 80010b6:	4902      	ldr	r1, [pc, #8]	; (80010c0 <ReadDeviceID+0xc>)
 80010b8:	4802      	ldr	r0, [pc, #8]	; (80010c4 <ReadDeviceID+0x10>)
 80010ba:	f7ff bf83 	b.w	8000fc4 <STMFLASH_Read>
 80010be:	bf00      	nop
 80010c0:	200022ac 	.word	0x200022ac
 80010c4:	0803f804 	.word	0x0803f804

080010c8 <writeVersion>:
 80010c8:	4b02      	ldr	r3, [pc, #8]	; (80010d4 <writeVersion+0xc>)
 80010ca:	2214      	movs	r2, #20
 80010cc:	6819      	ldr	r1, [r3, #0]
 80010ce:	4802      	ldr	r0, [pc, #8]	; (80010d8 <writeVersion+0x10>)
 80010d0:	f7ff bf82 	b.w	8000fd8 <STMFLASH_Write>
 80010d4:	20001a94 	.word	0x20001a94
 80010d8:	0803f820 	.word	0x0803f820

080010dc <ReadVersion>:
 80010dc:	2214      	movs	r2, #20
 80010de:	4902      	ldr	r1, [pc, #8]	; (80010e8 <ReadVersion+0xc>)
 80010e0:	4802      	ldr	r0, [pc, #8]	; (80010ec <ReadVersion+0x10>)
 80010e2:	f7ff bf6f 	b.w	8000fc4 <STMFLASH_Read>
 80010e6:	bf00      	nop
 80010e8:	20002298 	.word	0x20002298
 80010ec:	0803f820 	.word	0x0803f820

080010f0 <WriteAPPServer>:
 80010f0:	4601      	mov	r1, r0
 80010f2:	2264      	movs	r2, #100	; 0x64
 80010f4:	4801      	ldr	r0, [pc, #4]	; (80010fc <WriteAPPServer+0xc>)
 80010f6:	f7ff bf6f 	b.w	8000fd8 <STMFLASH_Write>
 80010fa:	bf00      	nop
 80010fc:	0803f840 	.word	0x0803f840

08001100 <USART2_Init>:
 8001100:	b5f0      	push	{r4, r5, r6, r7, lr}
 8001102:	4d28      	ldr	r5, [pc, #160]	; (80011a4 <USART2_Init+0xa4>)
 8001104:	b087      	sub	sp, #28
 8001106:	4607      	mov	r7, r0
 8001108:	4628      	mov	r0, r5
 800110a:	f002 fb2f 	bl	800376c <USART_DeInit>
 800110e:	2101      	movs	r1, #1
 8001110:	f44f 3000 	mov.w	r0, #131072	; 0x20000
 8001114:	f002 f99e 	bl	8003454 <RCC_APB1PeriphClockCmd>
 8001118:	2101      	movs	r1, #1
 800111a:	2004      	movs	r0, #4
 800111c:	f002 f98e 	bl	800343c <RCC_APB2PeriphClockCmd>
 8001120:	2303      	movs	r3, #3
 8001122:	2604      	movs	r6, #4
 8001124:	f88d 3002 	strb.w	r3, [sp, #2]
 8001128:	2318      	movs	r3, #24
 800112a:	4c1f      	ldr	r4, [pc, #124]	; (80011a8 <USART2_Init+0xa8>)
 800112c:	4669      	mov	r1, sp
 800112e:	4620      	mov	r0, r4
 8001130:	f8ad 6000 	strh.w	r6, [sp]
 8001134:	f88d 3003 	strb.w	r3, [sp, #3]
 8001138:	f002 f850 	bl	80031dc <GPIO_Init>
 800113c:	2308      	movs	r3, #8
 800113e:	4669      	mov	r1, sp
 8001140:	4620      	mov	r0, r4
 8001142:	f8ad 3000 	strh.w	r3, [sp]
 8001146:	2400      	movs	r4, #0
 8001148:	f88d 6003 	strb.w	r6, [sp, #3]
 800114c:	f002 f846 	bl	80031dc <GPIO_Init>
 8001150:	2601      	movs	r6, #1
 8001152:	2326      	movs	r3, #38	; 0x26
 8001154:	a801      	add	r0, sp, #4
 8001156:	f88d 3004 	strb.w	r3, [sp, #4]
 800115a:	f88d 4005 	strb.w	r4, [sp, #5]
 800115e:	f88d 4006 	strb.w	r4, [sp, #6]
 8001162:	f88d 6007 	strb.w	r6, [sp, #7]
 8001166:	f001 fe6b 	bl	8002e40 <NVIC_Init>
 800116a:	230c      	movs	r3, #12
 800116c:	a902      	add	r1, sp, #8
 800116e:	4628      	mov	r0, r5
 8001170:	f8ad 3012 	strh.w	r3, [sp, #18]
 8001174:	9702      	str	r7, [sp, #8]
 8001176:	f8ad 400c 	strh.w	r4, [sp, #12]
 800117a:	f8ad 400e 	strh.w	r4, [sp, #14]
 800117e:	f8ad 4010 	strh.w	r4, [sp, #16]
 8001182:	f8ad 4014 	strh.w	r4, [sp, #20]
 8001186:	f002 fb3f 	bl	8003808 <USART_Init>
 800118a:	4632      	mov	r2, r6
 800118c:	4628      	mov	r0, r5
 800118e:	f240 5125 	movw	r1, #1317	; 0x525
 8001192:	f002 fb9b 	bl	80038cc <USART_ITConfig>
 8001196:	4631      	mov	r1, r6
 8001198:	4628      	mov	r0, r5
 800119a:	f002 fb8b 	bl	80038b4 <USART_Cmd>
 800119e:	b007      	add	sp, #28
 80011a0:	bdf0      	pop	{r4, r5, r6, r7, pc}
 80011a2:	bf00      	nop
 80011a4:	40004400 	.word	0x40004400
 80011a8:	40010800 	.word	0x40010800

080011ac <USART2_IRQHandler>:
 80011ac:	b538      	push	{r3, r4, r5, lr}
 80011ae:	f240 5125 	movw	r1, #1317	; 0x525
 80011b2:	482e      	ldr	r0, [pc, #184]	; (800126c <USART2_IRQHandler+0xc0>)
 80011b4:	f002 fbb4 	bl	8003920 <USART_GetITStatus>
 80011b8:	2800      	cmp	r0, #0
 80011ba:	d050      	beq.n	800125e <USART2_IRQHandler+0xb2>
 80011bc:	482b      	ldr	r0, [pc, #172]	; (800126c <USART2_IRQHandler+0xc0>)
 80011be:	f002 fba1 	bl	8003904 <USART_ReceiveData>
 80011c2:	4c2b      	ldr	r4, [pc, #172]	; (8001270 <USART2_IRQHandler+0xc4>)
 80011c4:	b2c5      	uxtb	r5, r0
 80011c6:	f8b4 3a3e 	ldrh.w	r3, [r4, #2622]	; 0xa3e
 80011ca:	f3c3 030e 	ubfx	r3, r3, #0, #15
 80011ce:	f5b3 6f80 	cmp.w	r3, #1024	; 0x400
 80011d2:	db0e      	blt.n	80011f2 <USART2_IRQHandler+0x46>
 80011d4:	4827      	ldr	r0, [pc, #156]	; (8001274 <USART2_IRQHandler+0xc8>)
 80011d6:	f002 ff6b 	bl	80040b0 <puts>
 80011da:	f44f 6280 	mov.w	r2, #1024	; 0x400
 80011de:	2100      	movs	r1, #0
 80011e0:	4620      	mov	r0, r4
 80011e2:	f002 fee5 	bl	8003fb0 <memset>
 80011e6:	f8b4 3a3e 	ldrh.w	r3, [r4, #2622]	; 0xa3e
 80011ea:	f36f 030e 	bfc	r3, #0, #15
 80011ee:	f8a4 3a3e 	strh.w	r3, [r4, #2622]	; 0xa3e
 80011f2:	f8b4 3a3e 	ldrh.w	r3, [r4, #2622]	; 0xa3e
 80011f6:	041b      	lsls	r3, r3, #16
 80011f8:	d40b      	bmi.n	8001212 <USART2_IRQHandler+0x66>
 80011fa:	f8b4 3a3e 	ldrh.w	r3, [r4, #2622]	; 0xa3e
 80011fe:	f8b4 2a3e 	ldrh.w	r2, [r4, #2622]	; 0xa3e
 8001202:	f3c3 030e 	ubfx	r3, r3, #0, #15
 8001206:	1c59      	adds	r1, r3, #1
 8001208:	f361 020e 	bfi	r2, r1, #0, #15
 800120c:	f8a4 2a3e 	strh.w	r2, [r4, #2622]	; 0xa3e
 8001210:	54e5      	strb	r5, [r4, r3]
 8001212:	2d5d      	cmp	r5, #93	; 0x5d
 8001214:	d123      	bne.n	800125e <USART2_IRQHandler+0xb2>
 8001216:	215b      	movs	r1, #91	; 0x5b
 8001218:	4815      	ldr	r0, [pc, #84]	; (8001270 <USART2_IRQHandler+0xc4>)
 800121a:	f002 ff84 	bl	8004126 <strchr>
 800121e:	b1f0      	cbz	r0, 800125e <USART2_IRQHandler+0xb2>
 8001220:	4b13      	ldr	r3, [pc, #76]	; (8001270 <USART2_IRQHandler+0xc4>)
 8001222:	4618      	mov	r0, r3
 8001224:	7802      	ldrb	r2, [r0, #0]
 8001226:	3301      	adds	r3, #1
 8001228:	2a5b      	cmp	r2, #91	; 0x5b
 800122a:	d1fa      	bne.n	8001222 <USART2_IRQHandler+0x76>
 800122c:	4618      	mov	r0, r3
 800122e:	4912      	ldr	r1, [pc, #72]	; (8001278 <USART2_IRQHandler+0xcc>)
 8001230:	f002 ffbe 	bl	80041b0 <strtok>
 8001234:	4911      	ldr	r1, [pc, #68]	; (800127c <USART2_IRQHandler+0xd0>)
 8001236:	f8c4 0800 	str.w	r0, [r4, #2048]	; 0x800
 800123a:	f000 fadb 	bl	80017f4 <base64_decode>
 800123e:	490f      	ldr	r1, [pc, #60]	; (800127c <USART2_IRQHandler+0xd0>)
 8001240:	480f      	ldr	r0, [pc, #60]	; (8001280 <USART2_IRQHandler+0xd4>)
 8001242:	f002 febd 	bl	8003fc0 <printf>
 8001246:	f8b4 3a3e 	ldrh.w	r3, [r4, #2622]	; 0xa3e
 800124a:	f36f 030e 	bfc	r3, #0, #15
 800124e:	f8a4 3a3e 	strh.w	r3, [r4, #2622]	; 0xa3e
 8001252:	f8b4 3a3e 	ldrh.w	r3, [r4, #2622]	; 0xa3e
 8001256:	f443 4300 	orr.w	r3, r3, #32768	; 0x8000
 800125a:	f8a4 3a3e 	strh.w	r3, [r4, #2622]	; 0xa3e
 800125e:	2140      	movs	r1, #64	; 0x40
 8001260:	e8bd 4038 	ldmia.w	sp!, {r3, r4, r5, lr}
 8001264:	4801      	ldr	r0, [pc, #4]	; (800126c <USART2_IRQHandler+0xc0>)
 8001266:	f002 bb57 	b.w	8003918 <USART_ClearFlag>
 800126a:	bf00      	nop
 800126c:	40004400 	.word	0x40004400
 8001270:	200006f0 	.word	0x200006f0
 8001274:	08008efe 	.word	0x08008efe
 8001278:	08008f11 	.word	0x08008f11
 800127c:	20000af0 	.word	0x20000af0
 8001280:	08008f13 	.word	0x08008f13

08001284 <split>:
 8001284:	b570      	push	{r4, r5, r6, lr}
 8001286:	2300      	movs	r3, #0
 8001288:	460d      	mov	r5, r1
 800128a:	4606      	mov	r6, r0
 800128c:	4601      	mov	r1, r0
 800128e:	7848      	ldrb	r0, [r1, #1]
 8001290:	1c4a      	adds	r2, r1, #1
 8001292:	282c      	cmp	r0, #44	; 0x2c
 8001294:	d118      	bne.n	80012c8 <split+0x44>
 8001296:	3301      	adds	r3, #1
 8001298:	b2db      	uxtb	r3, r3
 800129a:	2b01      	cmp	r3, #1
 800129c:	d914      	bls.n	80012c8 <split+0x44>
 800129e:	4c0b      	ldr	r4, [pc, #44]	; (80012cc <split+0x48>)
 80012a0:	f44f 7200 	mov.w	r2, #512	; 0x200
 80012a4:	3102      	adds	r1, #2
 80012a6:	f604 0004 	addw	r0, r4, #2052	; 0x804
 80012aa:	f002 fe76 	bl	8003f9a <memcpy>
 80012ae:	4629      	mov	r1, r5
 80012b0:	4630      	mov	r0, r6
 80012b2:	f002 ff7d 	bl	80041b0 <strtok>
 80012b6:	4629      	mov	r1, r5
 80012b8:	f8c4 0a04 	str.w	r0, [r4, #2564]	; 0xa04
 80012bc:	2000      	movs	r0, #0
 80012be:	f002 ff77 	bl	80041b0 <strtok>
 80012c2:	f8c4 0a08 	str.w	r0, [r4, #2568]	; 0xa08
 80012c6:	bd70      	pop	{r4, r5, r6, pc}
 80012c8:	4611      	mov	r1, r2
 80012ca:	e7e0      	b.n	800128e <split+0xa>
 80012cc:	200006f0 	.word	0x200006f0

080012d0 <Send_AT_Cmd>:
 80012d0:	b5f8      	push	{r3, r4, r5, r6, r7, lr}
 80012d2:	460e      	mov	r6, r1
 80012d4:	4c16      	ldr	r4, [pc, #88]	; (8001330 <Send_AT_Cmd+0x60>)
 80012d6:	4615      	mov	r5, r2
 80012d8:	f8b4 2a3e 	ldrh.w	r2, [r4, #2622]	; 0xa3e
 80012dc:	4915      	ldr	r1, [pc, #84]	; (8001334 <Send_AT_Cmd+0x64>)
 80012de:	f36f 020e 	bfc	r2, #0, #15
 80012e2:	f8a4 2a3e 	strh.w	r2, [r4, #2622]	; 0xa3e
 80012e6:	4602      	mov	r2, r0
 80012e8:	4813      	ldr	r0, [pc, #76]	; (8001338 <Send_AT_Cmd+0x68>)
 80012ea:	461f      	mov	r7, r3
 80012ec:	f000 fee4 	bl	80020b8 <Wifi_USART_printf>
 80012f0:	b906      	cbnz	r6, 80012f4 <Send_AT_Cmd+0x24>
 80012f2:	b1dd      	cbz	r5, 800132c <Send_AT_Cmd+0x5c>
 80012f4:	b2b8      	uxth	r0, r7
 80012f6:	f002 fb49 	bl	800398c <delay_ms>
 80012fa:	2200      	movs	r2, #0
 80012fc:	f8b4 3a3e 	ldrh.w	r3, [r4, #2622]	; 0xa3e
 8001300:	490b      	ldr	r1, [pc, #44]	; (8001330 <Send_AT_Cmd+0x60>)
 8001302:	f3c3 030e 	ubfx	r3, r3, #0, #15
 8001306:	480d      	ldr	r0, [pc, #52]	; (800133c <Send_AT_Cmd+0x6c>)
 8001308:	54e2      	strb	r2, [r4, r3]
 800130a:	f002 fe59 	bl	8003fc0 <printf>
 800130e:	b12e      	cbz	r6, 800131c <Send_AT_Cmd+0x4c>
 8001310:	4631      	mov	r1, r6
 8001312:	4807      	ldr	r0, [pc, #28]	; (8001330 <Send_AT_Cmd+0x60>)
 8001314:	b125      	cbz	r5, 8001320 <Send_AT_Cmd+0x50>
 8001316:	f002 ff30 	bl	800417a <strstr>
 800131a:	b938      	cbnz	r0, 800132c <Send_AT_Cmd+0x5c>
 800131c:	4629      	mov	r1, r5
 800131e:	4804      	ldr	r0, [pc, #16]	; (8001330 <Send_AT_Cmd+0x60>)
 8001320:	f002 ff2b 	bl	800417a <strstr>
 8001324:	3000      	adds	r0, #0
 8001326:	bf18      	it	ne
 8001328:	2001      	movne	r0, #1
 800132a:	bdf8      	pop	{r3, r4, r5, r6, r7, pc}
 800132c:	2001      	movs	r0, #1
 800132e:	bdf8      	pop	{r3, r4, r5, r6, r7, pc}
 8001330:	200006f0 	.word	0x200006f0
 8001334:	08009128 	.word	0x08009128
 8001338:	40004400 	.word	0x40004400
 800133c:	08008f4d 	.word	0x08008f4d

08001340 <F4G_AT_Test>:
 8001340:	b510      	push	{r4, lr}
 8001342:	240a      	movs	r4, #10
 8001344:	f44f 73fa 	mov.w	r3, #500	; 0x1f4
 8001348:	2200      	movs	r2, #0
 800134a:	490d      	ldr	r1, [pc, #52]	; (8001380 <F4G_AT_Test+0x40>)
 800134c:	480d      	ldr	r0, [pc, #52]	; (8001384 <F4G_AT_Test+0x44>)
 800134e:	3c01      	subs	r4, #1
 8001350:	f7ff ffbe 	bl	80012d0 <Send_AT_Cmd>
 8001354:	f014 04ff 	ands.w	r4, r4, #255	; 0xff
 8001358:	d1f4      	bne.n	8001344 <F4G_AT_Test+0x4>
 800135a:	f44f 73fa 	mov.w	r3, #500	; 0x1f4
 800135e:	4622      	mov	r2, r4
 8001360:	4907      	ldr	r1, [pc, #28]	; (8001380 <F4G_AT_Test+0x40>)
 8001362:	4808      	ldr	r0, [pc, #32]	; (8001384 <F4G_AT_Test+0x44>)
 8001364:	f7ff ffb4 	bl	80012d0 <Send_AT_Cmd>
 8001368:	b120      	cbz	r0, 8001374 <F4G_AT_Test+0x34>
 800136a:	4807      	ldr	r0, [pc, #28]	; (8001388 <F4G_AT_Test+0x48>)
 800136c:	f002 fea0 	bl	80040b0 <puts>
 8001370:	2001      	movs	r0, #1
 8001372:	bd10      	pop	{r4, pc}
 8001374:	4805      	ldr	r0, [pc, #20]	; (800138c <F4G_AT_Test+0x4c>)
 8001376:	f002 fe9b 	bl	80040b0 <puts>
 800137a:	4620      	mov	r0, r4
 800137c:	bd10      	pop	{r4, pc}
 800137e:	bf00      	nop
 8001380:	08008e98 	.word	0x08008e98
 8001384:	08008e9b 	.word	0x08008e9b
 8001388:	08008e9e 	.word	0x08008e9e
 800138c:	08008eb7 	.word	0x08008eb7

08001390 <connectToTCPServer>:
 8001390:	b570      	push	{r4, r5, r6, lr}
 8001392:	4605      	mov	r5, r0
 8001394:	460e      	mov	r6, r1
 8001396:	b09a      	sub	sp, #104	; 0x68
 8001398:	4c0d      	ldr	r4, [pc, #52]	; (80013d0 <connectToTCPServer+0x40>)
 800139a:	2264      	movs	r2, #100	; 0x64
 800139c:	2100      	movs	r1, #0
 800139e:	a801      	add	r0, sp, #4
 80013a0:	f002 fe06 	bl	8003fb0 <memset>
 80013a4:	4621      	mov	r1, r4
 80013a6:	f44f 73fa 	mov.w	r3, #500	; 0x1f4
 80013aa:	2200      	movs	r2, #0
 80013ac:	4809      	ldr	r0, [pc, #36]	; (80013d4 <connectToTCPServer+0x44>)
 80013ae:	f7ff ff8f 	bl	80012d0 <Send_AT_Cmd>
 80013b2:	4633      	mov	r3, r6
 80013b4:	462a      	mov	r2, r5
 80013b6:	4908      	ldr	r1, [pc, #32]	; (80013d8 <connectToTCPServer+0x48>)
 80013b8:	a801      	add	r0, sp, #4
 80013ba:	f002 fe81 	bl	80040c0 <sprintf>
 80013be:	f44f 63e1 	mov.w	r3, #1800	; 0x708
 80013c2:	2200      	movs	r2, #0
 80013c4:	4621      	mov	r1, r4
 80013c6:	a801      	add	r0, sp, #4
 80013c8:	f7ff ff82 	bl	80012d0 <Send_AT_Cmd>
 80013cc:	b01a      	add	sp, #104	; 0x68
 80013ce:	bd70      	pop	{r4, r5, r6, pc}
 80013d0:	08008e98 	.word	0x08008e98
 80013d4:	08008f29 	.word	0x08008f29
 80013d8:	08008f36 	.word	0x08008f36

080013dc <F4G_sendStr>:
 80013dc:	b530      	push	{r4, r5, lr}
 80013de:	f642 037b 	movw	r3, #10363	; 0x287b
 80013e2:	4604      	mov	r4, r0
 80013e4:	b0a1      	sub	sp, #132	; 0x84
 80013e6:	227c      	movs	r2, #124	; 0x7c
 80013e8:	2100      	movs	r1, #0
 80013ea:	a801      	add	r0, sp, #4
 80013ec:	9300      	str	r3, [sp, #0]
 80013ee:	f002 fddf 	bl	8003fb0 <memset>
 80013f2:	4621      	mov	r1, r4
 80013f4:	4668      	mov	r0, sp
 80013f6:	f002 fe87 	bl	8004108 <strcat>
 80013fa:	4912      	ldr	r1, [pc, #72]	; (8001444 <F4G_sendStr+0x68>)
 80013fc:	4668      	mov	r0, sp
 80013fe:	f002 fe83 	bl	8004108 <strcat>
 8001402:	2400      	movs	r4, #0
 8001404:	4d10      	ldr	r5, [pc, #64]	; (8001448 <F4G_sendStr+0x6c>)
 8001406:	b2e3      	uxtb	r3, r4
 8001408:	aa20      	add	r2, sp, #128	; 0x80
 800140a:	4413      	add	r3, r2
 800140c:	f813 1c80 	ldrb.w	r1, [r3, #-128]
 8001410:	297d      	cmp	r1, #125	; 0x7d
 8001412:	d10b      	bne.n	800142c <F4G_sendStr+0x50>
 8001414:	480c      	ldr	r0, [pc, #48]	; (8001448 <F4G_sendStr+0x6c>)
 8001416:	f002 fa71 	bl	80038fc <USART_SendData>
 800141a:	4c0b      	ldr	r4, [pc, #44]	; (8001448 <F4G_sendStr+0x6c>)
 800141c:	2180      	movs	r1, #128	; 0x80
 800141e:	4620      	mov	r0, r4
 8001420:	f002 fa74 	bl	800390c <USART_GetFlagStatus>
 8001424:	2800      	cmp	r0, #0
 8001426:	d0f9      	beq.n	800141c <F4G_sendStr+0x40>
 8001428:	b021      	add	sp, #132	; 0x84
 800142a:	bd30      	pop	{r4, r5, pc}
 800142c:	4628      	mov	r0, r5
 800142e:	f002 fa65 	bl	80038fc <USART_SendData>
 8001432:	2180      	movs	r1, #128	; 0x80
 8001434:	4628      	mov	r0, r5
 8001436:	f002 fa69 	bl	800390c <USART_GetFlagStatus>
 800143a:	2800      	cmp	r0, #0
 800143c:	d0f9      	beq.n	8001432 <F4G_sendStr+0x56>
 800143e:	3401      	adds	r4, #1
 8001440:	e7e1      	b.n	8001406 <F4G_sendStr+0x2a>
 8001442:	bf00      	nop
 8001444:	080092bb 	.word	0x080092bb
 8001448:	40004400 	.word	0x40004400

0800144c <F4G_ExitUnvarnishSend>:
 800144c:	b508      	push	{r3, lr}
 800144e:	f44f 707a 	mov.w	r0, #1000	; 0x3e8
 8001452:	f002 fa9b 	bl	800398c <delay_ms>
 8001456:	4805      	ldr	r0, [pc, #20]	; (800146c <F4G_ExitUnvarnishSend+0x20>)
 8001458:	4905      	ldr	r1, [pc, #20]	; (8001470 <F4G_ExitUnvarnishSend+0x24>)
 800145a:	f000 fe2d 	bl	80020b8 <Wifi_USART_printf>
 800145e:	e8bd 4008 	ldmia.w	sp!, {r3, lr}
 8001462:	f44f 70fa 	mov.w	r0, #500	; 0x1f4
 8001466:	f002 ba91 	b.w	800398c <delay_ms>
 800146a:	bf00      	nop
 800146c:	40004400 	.word	0x40004400
 8001470:	08008ecd 	.word	0x08008ecd

08001474 <getModuleMes>:
 8001474:	b570      	push	{r4, r5, r6, lr}
 8001476:	4d57      	ldr	r5, [pc, #348]	; (80015d4 <getModuleMes+0x160>)
 8001478:	4c57      	ldr	r4, [pc, #348]	; (80015d8 <getModuleMes+0x164>)
 800147a:	f44f 73fa 	mov.w	r3, #500	; 0x1f4
 800147e:	2200      	movs	r2, #0
 8001480:	4629      	mov	r1, r5
 8001482:	4620      	mov	r0, r4
 8001484:	f7ff ff24 	bl	80012d0 <Send_AT_Cmd>
 8001488:	2800      	cmp	r0, #0
 800148a:	d0f6      	beq.n	800147a <getModuleMes+0x6>
 800148c:	4d51      	ldr	r5, [pc, #324]	; (80015d4 <getModuleMes+0x160>)
 800148e:	4c53      	ldr	r4, [pc, #332]	; (80015dc <getModuleMes+0x168>)
 8001490:	f44f 73fa 	mov.w	r3, #500	; 0x1f4
 8001494:	2200      	movs	r2, #0
 8001496:	4629      	mov	r1, r5
 8001498:	4620      	mov	r0, r4
 800149a:	f7ff ff19 	bl	80012d0 <Send_AT_Cmd>
 800149e:	2800      	cmp	r0, #0
 80014a0:	d0f6      	beq.n	8001490 <getModuleMes+0x1c>
 80014a2:	4d4c      	ldr	r5, [pc, #304]	; (80015d4 <getModuleMes+0x160>)
 80014a4:	4c4e      	ldr	r4, [pc, #312]	; (80015e0 <getModuleMes+0x16c>)
 80014a6:	f44f 73fa 	mov.w	r3, #500	; 0x1f4
 80014aa:	2200      	movs	r2, #0
 80014ac:	4629      	mov	r1, r5
 80014ae:	4620      	mov	r0, r4
 80014b0:	f7ff ff0e 	bl	80012d0 <Send_AT_Cmd>
 80014b4:	2800      	cmp	r0, #0
 80014b6:	d0f6      	beq.n	80014a6 <getModuleMes+0x32>
 80014b8:	4d46      	ldr	r5, [pc, #280]	; (80015d4 <getModuleMes+0x160>)
 80014ba:	4c4a      	ldr	r4, [pc, #296]	; (80015e4 <getModuleMes+0x170>)
 80014bc:	f44f 73fa 	mov.w	r3, #500	; 0x1f4
 80014c0:	2200      	movs	r2, #0
 80014c2:	4629      	mov	r1, r5
 80014c4:	4620      	mov	r0, r4
 80014c6:	f7ff ff03 	bl	80012d0 <Send_AT_Cmd>
 80014ca:	2800      	cmp	r0, #0
 80014cc:	d0f6      	beq.n	80014bc <getModuleMes+0x48>
 80014ce:	4d41      	ldr	r5, [pc, #260]	; (80015d4 <getModuleMes+0x160>)
 80014d0:	4c45      	ldr	r4, [pc, #276]	; (80015e8 <getModuleMes+0x174>)
 80014d2:	f44f 73fa 	mov.w	r3, #500	; 0x1f4
 80014d6:	2200      	movs	r2, #0
 80014d8:	4629      	mov	r1, r5
 80014da:	4620      	mov	r0, r4
 80014dc:	f7ff fef8 	bl	80012d0 <Send_AT_Cmd>
 80014e0:	2800      	cmp	r0, #0
 80014e2:	d0f6      	beq.n	80014d2 <getModuleMes+0x5e>
 80014e4:	4941      	ldr	r1, [pc, #260]	; (80015ec <getModuleMes+0x178>)
 80014e6:	4842      	ldr	r0, [pc, #264]	; (80015f0 <getModuleMes+0x17c>)
 80014e8:	f002 fe62 	bl	80041b0 <strtok>
 80014ec:	493f      	ldr	r1, [pc, #252]	; (80015ec <getModuleMes+0x178>)
 80014ee:	2000      	movs	r0, #0
 80014f0:	f002 fe5e 	bl	80041b0 <strtok>
 80014f4:	493d      	ldr	r1, [pc, #244]	; (80015ec <getModuleMes+0x178>)
 80014f6:	2000      	movs	r0, #0
 80014f8:	f002 fe5a 	bl	80041b0 <strtok>
 80014fc:	4601      	mov	r1, r0
 80014fe:	483d      	ldr	r0, [pc, #244]	; (80015f4 <getModuleMes+0x180>)
 8001500:	f002 fe1f 	bl	8004142 <strcpy>
 8001504:	493b      	ldr	r1, [pc, #236]	; (80015f4 <getModuleMes+0x180>)
 8001506:	483c      	ldr	r0, [pc, #240]	; (80015f8 <getModuleMes+0x184>)
 8001508:	f002 fd5a 	bl	8003fc0 <printf>
 800150c:	4937      	ldr	r1, [pc, #220]	; (80015ec <getModuleMes+0x178>)
 800150e:	2000      	movs	r0, #0
 8001510:	f002 fe4e 	bl	80041b0 <strtok>
 8001514:	4601      	mov	r1, r0
 8001516:	4839      	ldr	r0, [pc, #228]	; (80015fc <getModuleMes+0x188>)
 8001518:	f002 fe13 	bl	8004142 <strcpy>
 800151c:	4937      	ldr	r1, [pc, #220]	; (80015fc <getModuleMes+0x188>)
 800151e:	4838      	ldr	r0, [pc, #224]	; (8001600 <getModuleMes+0x18c>)
 8001520:	f002 fd4e 	bl	8003fc0 <printf>
 8001524:	4d2b      	ldr	r5, [pc, #172]	; (80015d4 <getModuleMes+0x160>)
 8001526:	4c37      	ldr	r4, [pc, #220]	; (8001604 <getModuleMes+0x190>)
 8001528:	f44f 73fa 	mov.w	r3, #500	; 0x1f4
 800152c:	2200      	movs	r2, #0
 800152e:	4629      	mov	r1, r5
 8001530:	4620      	mov	r0, r4
 8001532:	f7ff fecd 	bl	80012d0 <Send_AT_Cmd>
 8001536:	2800      	cmp	r0, #0
 8001538:	d0f6      	beq.n	8001528 <getModuleMes+0xb4>
 800153a:	4b2d      	ldr	r3, [pc, #180]	; (80015f0 <getModuleMes+0x17c>)
 800153c:	461c      	mov	r4, r3
 800153e:	781a      	ldrb	r2, [r3, #0]
 8001540:	1c59      	adds	r1, r3, #1
 8001542:	3a30      	subs	r2, #48	; 0x30
 8001544:	2a09      	cmp	r2, #9
 8001546:	d836      	bhi.n	80015b6 <getModuleMes+0x142>
 8001548:	461d      	mov	r5, r3
 800154a:	1aea      	subs	r2, r5, r3
 800154c:	f815 0b01 	ldrb.w	r0, [r5], #1
 8001550:	b2d2      	uxtb	r2, r2
 8001552:	f1a0 0130 	sub.w	r1, r0, #48	; 0x30
 8001556:	2909      	cmp	r1, #9
 8001558:	d92f      	bls.n	80015ba <getModuleMes+0x146>
 800155a:	f020 0120 	bic.w	r1, r0, #32
 800155e:	3941      	subs	r1, #65	; 0x41
 8001560:	2919      	cmp	r1, #25
 8001562:	d92a      	bls.n	80015ba <getModuleMes+0x146>
 8001564:	4928      	ldr	r1, [pc, #160]	; (8001608 <getModuleMes+0x194>)
 8001566:	4829      	ldr	r0, [pc, #164]	; (800160c <getModuleMes+0x198>)
 8001568:	f002 fd2a 	bl	8003fc0 <printf>
 800156c:	4e19      	ldr	r6, [pc, #100]	; (80015d4 <getModuleMes+0x160>)
 800156e:	4d28      	ldr	r5, [pc, #160]	; (8001610 <getModuleMes+0x19c>)
 8001570:	f44f 73fa 	mov.w	r3, #500	; 0x1f4
 8001574:	2200      	movs	r2, #0
 8001576:	4631      	mov	r1, r6
 8001578:	4628      	mov	r0, r5
 800157a:	f7ff fea9 	bl	80012d0 <Send_AT_Cmd>
 800157e:	2800      	cmp	r0, #0
 8001580:	d0f6      	beq.n	8001570 <getModuleMes+0xfc>
 8001582:	4e14      	ldr	r6, [pc, #80]	; (80015d4 <getModuleMes+0x160>)
 8001584:	4d23      	ldr	r5, [pc, #140]	; (8001614 <getModuleMes+0x1a0>)
 8001586:	f44f 73fa 	mov.w	r3, #500	; 0x1f4
 800158a:	2200      	movs	r2, #0
 800158c:	4631      	mov	r1, r6
 800158e:	4628      	mov	r0, r5
 8001590:	f7ff fe9e 	bl	80012d0 <Send_AT_Cmd>
 8001594:	2800      	cmp	r0, #0
 8001596:	d0f6      	beq.n	8001586 <getModuleMes+0x112>
 8001598:	491f      	ldr	r1, [pc, #124]	; (8001618 <getModuleMes+0x1a4>)
 800159a:	4815      	ldr	r0, [pc, #84]	; (80015f0 <getModuleMes+0x17c>)
 800159c:	f002 fded 	bl	800417a <strstr>
 80015a0:	b178      	cbz	r0, 80015c2 <getModuleMes+0x14e>
 80015a2:	2333      	movs	r3, #51	; 0x33
 80015a4:	f884 3a3c 	strb.w	r3, [r4, #2620]	; 0xa3c
 80015a8:	f894 1a3c 	ldrb.w	r1, [r4, #2620]	; 0xa3c
 80015ac:	481b      	ldr	r0, [pc, #108]	; (800161c <getModuleMes+0x1a8>)
 80015ae:	e8bd 4070 	ldmia.w	sp!, {r4, r5, r6, lr}
 80015b2:	f002 bd05 	b.w	8003fc0 <printf>
 80015b6:	460b      	mov	r3, r1
 80015b8:	e7c1      	b.n	800153e <getModuleMes+0xca>
 80015ba:	4422      	add	r2, r4
 80015bc:	f882 0a24 	strb.w	r0, [r2, #2596]	; 0xa24
 80015c0:	e7c3      	b.n	800154a <getModuleMes+0xd6>
 80015c2:	4917      	ldr	r1, [pc, #92]	; (8001620 <getModuleMes+0x1ac>)
 80015c4:	480a      	ldr	r0, [pc, #40]	; (80015f0 <getModuleMes+0x17c>)
 80015c6:	f002 fdd8 	bl	800417a <strstr>
 80015ca:	b108      	cbz	r0, 80015d0 <getModuleMes+0x15c>
 80015cc:	2336      	movs	r3, #54	; 0x36
 80015ce:	e7e9      	b.n	80015a4 <getModuleMes+0x130>
 80015d0:	2339      	movs	r3, #57	; 0x39
 80015d2:	e7e7      	b.n	80015a4 <getModuleMes+0x130>
 80015d4:	08008e98 	.word	0x08008e98
 80015d8:	08008f50 	.word	0x08008f50
 80015dc:	08008f6e 	.word	0x08008f6e
 80015e0:	08008f84 	.word	0x08008f84
 80015e4:	08008f91 	.word	0x08008f91
 80015e8:	08008f9e 	.word	0x08008f9e
 80015ec:	08009142 	.word	0x08009142
 80015f0:	200006f0 	.word	0x200006f0
 80015f4:	200010fc 	.word	0x200010fc
 80015f8:	08008faf 	.word	0x08008faf
 80015fc:	20001108 	.word	0x20001108
 8001600:	08008fc2 	.word	0x08008fc2
 8001604:	08008fd4 	.word	0x08008fd4
 8001608:	20001114 	.word	0x20001114
 800160c:	08008fdc 	.word	0x08008fdc
 8001610:	08008fe6 	.word	0x08008fe6
 8001614:	08008ff2 	.word	0x08008ff2
 8001618:	08008ffb 	.word	0x08008ffb
 800161c:	08009007 	.word	0x08009007
 8001620:	08009000 	.word	0x08009000

08001624 <F4G_Init>:
 8001624:	b537      	push	{r0, r1, r2, r4, r5, lr}
 8001626:	2401      	movs	r4, #1
 8001628:	4b2e      	ldr	r3, [pc, #184]	; (80016e4 <F4G_Init+0xc0>)
 800162a:	701c      	strb	r4, [r3, #0]
 800162c:	f7ff fd68 	bl	8001100 <USART2_Init>
 8001630:	4621      	mov	r1, r4
 8001632:	2010      	movs	r0, #16
 8001634:	f001 ff02 	bl	800343c <RCC_APB2PeriphClockCmd>
 8001638:	2303      	movs	r3, #3
 800163a:	2210      	movs	r2, #16
 800163c:	a901      	add	r1, sp, #4
 800163e:	482a      	ldr	r0, [pc, #168]	; (80016e8 <F4G_Init+0xc4>)
 8001640:	f8ad 3004 	strh.w	r3, [sp, #4]
 8001644:	f88d 3006 	strb.w	r3, [sp, #6]
 8001648:	f88d 2007 	strb.w	r2, [sp, #7]
 800164c:	f001 fdc6 	bl	80031dc <GPIO_Init>
 8001650:	4b26      	ldr	r3, [pc, #152]	; (80016ec <F4G_Init+0xc8>)
 8001652:	781b      	ldrb	r3, [r3, #0]
 8001654:	2b00      	cmp	r3, #0
 8001656:	d143      	bne.n	80016e0 <F4G_Init+0xbc>
 8001658:	4c23      	ldr	r4, [pc, #140]	; (80016e8 <F4G_Init+0xc4>)
 800165a:	4d25      	ldr	r5, [pc, #148]	; (80016f0 <F4G_Init+0xcc>)
 800165c:	2102      	movs	r1, #2
 800165e:	4620      	mov	r0, r4
 8001660:	f001 fe0e 	bl	8003280 <GPIO_SetBits>
 8001664:	f44f 707a 	mov.w	r0, #1000	; 0x3e8
 8001668:	f002 f990 	bl	800398c <delay_ms>
 800166c:	f44f 707a 	mov.w	r0, #1000	; 0x3e8
 8001670:	f002 f98c 	bl	800398c <delay_ms>
 8001674:	f44f 707a 	mov.w	r0, #1000	; 0x3e8
 8001678:	f002 f988 	bl	800398c <delay_ms>
 800167c:	2102      	movs	r1, #2
 800167e:	4620      	mov	r0, r4
 8001680:	f001 fe00 	bl	8003284 <GPIO_ResetBits>
 8001684:	2101      	movs	r1, #1
 8001686:	4620      	mov	r0, r4
 8001688:	f001 fdfa 	bl	8003280 <GPIO_SetBits>
 800168c:	f240 404c 	movw	r0, #1100	; 0x44c
 8001690:	f002 f97c 	bl	800398c <delay_ms>
 8001694:	2101      	movs	r1, #1
 8001696:	4620      	mov	r0, r4
 8001698:	f001 fdf4 	bl	8003284 <GPIO_ResetBits>
 800169c:	f44f 70fa 	mov.w	r0, #500	; 0x1f4
 80016a0:	f002 f974 	bl	800398c <delay_ms>
 80016a4:	f7ff fed2 	bl	800144c <F4G_ExitUnvarnishSend>
 80016a8:	f44f 73fa 	mov.w	r3, #500	; 0x1f4
 80016ac:	2200      	movs	r2, #0
 80016ae:	4629      	mov	r1, r5
 80016b0:	4810      	ldr	r0, [pc, #64]	; (80016f4 <F4G_Init+0xd0>)
 80016b2:	f7ff fe0d 	bl	80012d0 <Send_AT_Cmd>
 80016b6:	f44f 73fa 	mov.w	r3, #500	; 0x1f4
 80016ba:	2200      	movs	r2, #0
 80016bc:	4629      	mov	r1, r5
 80016be:	480e      	ldr	r0, [pc, #56]	; (80016f8 <F4G_Init+0xd4>)
 80016c0:	f7ff fe06 	bl	80012d0 <Send_AT_Cmd>
 80016c4:	f7ff fe3c 	bl	8001340 <F4G_AT_Test>
 80016c8:	2800      	cmp	r0, #0
 80016ca:	d0c7      	beq.n	800165c <F4G_Init+0x38>
 80016cc:	f7ff fed2 	bl	8001474 <getModuleMes>
 80016d0:	4d0a      	ldr	r5, [pc, #40]	; (80016fc <F4G_Init+0xd8>)
 80016d2:	4c0b      	ldr	r4, [pc, #44]	; (8001700 <F4G_Init+0xdc>)
 80016d4:	4629      	mov	r1, r5
 80016d6:	4620      	mov	r0, r4
 80016d8:	f7ff fe5a 	bl	8001390 <connectToTCPServer>
 80016dc:	2800      	cmp	r0, #0
 80016de:	d0f9      	beq.n	80016d4 <F4G_Init+0xb0>
 80016e0:	b003      	add	sp, #12
 80016e2:	bd30      	pop	{r4, r5, pc}
 80016e4:	200011c4 	.word	0x200011c4
 80016e8:	40011000 	.word	0x40011000
 80016ec:	20001a58 	.word	0x20001a58
 80016f0:	08008e98 	.word	0x08008e98
 80016f4:	08008ed1 	.word	0x08008ed1
 80016f8:	08008edd 	.word	0x08008edd
 80016fc:	08008ee7 	.word	0x08008ee7
 8001700:	08008eec 	.word	0x08008eec

08001704 <request2Server>:
 8001704:	b510      	push	{r4, lr}
 8001706:	4c04      	ldr	r4, [pc, #16]	; (8001718 <request2Server+0x14>)
 8001708:	4621      	mov	r1, r4
 800170a:	f000 f807 	bl	800171c <base64_encode>
 800170e:	4620      	mov	r0, r4
 8001710:	e8bd 4010 	ldmia.w	sp!, {r4, lr}
 8001714:	f7ff be62 	b.w	80013dc <F4G_sendStr>
 8001718:	20000cf0 	.word	0x20000cf0

0800171c <base64_encode>:
 800171c:	b5f8      	push	{r3, r4, r5, r6, r7, lr}
 800171e:	4605      	mov	r5, r0
 8001720:	460c      	mov	r4, r1
 8001722:	2700      	movs	r7, #0
 8001724:	f7fe fd80 	bl	8000228 <strlen>
 8001728:	462a      	mov	r2, r5
 800172a:	2301      	movs	r3, #1
 800172c:	4e2b      	ldr	r6, [pc, #172]	; (80017dc <base64_encode+0xc0>)
 800172e:	4287      	cmp	r7, r0
 8001730:	f103 31ff 	add.w	r1, r3, #4294967295
 8001734:	da3a      	bge.n	80017ac <base64_encode+0x90>
 8001736:	f892 e000 	ldrb.w	lr, [r2]
 800173a:	6835      	ldr	r5, [r6, #0]
 800173c:	ea4f 0e9e 	mov.w	lr, lr, lsr #2
 8001740:	f815 e00e 	ldrb.w	lr, [r5, lr]
 8001744:	18e5      	adds	r5, r4, r3
 8001746:	f805 ec01 	strb.w	lr, [r5, #-1]
 800174a:	7815      	ldrb	r5, [r2, #0]
 800174c:	f107 0e01 	add.w	lr, r7, #1
 8001750:	012d      	lsls	r5, r5, #4
 8001752:	4570      	cmp	r0, lr
 8001754:	f005 0530 	and.w	r5, r5, #48	; 0x30
 8001758:	dd1f      	ble.n	800179a <base64_encode+0x7e>
 800175a:	f892 c001 	ldrb.w	ip, [r2, #1]
 800175e:	f103 0e01 	add.w	lr, r3, #1
 8001762:	ea45 1c1c 	orr.w	ip, r5, ip, lsr #4
 8001766:	6835      	ldr	r5, [r6, #0]
 8001768:	3203      	adds	r2, #3
 800176a:	f815 500c 	ldrb.w	r5, [r5, ip]
 800176e:	f107 0c02 	add.w	ip, r7, #2
 8001772:	54e5      	strb	r5, [r4, r3]
 8001774:	f812 5c02 	ldrb.w	r5, [r2, #-2]
 8001778:	4560      	cmp	r0, ip
 800177a:	ea4f 0585 	mov.w	r5, r5, lsl #2
 800177e:	f005 053c 	and.w	r5, r5, #60	; 0x3c
 8001782:	f103 0304 	add.w	r3, r3, #4
 8001786:	dc14      	bgt.n	80017b2 <base64_encode+0x96>
 8001788:	6832      	ldr	r2, [r6, #0]
 800178a:	1ccb      	adds	r3, r1, #3
 800178c:	5d52      	ldrb	r2, [r2, r5]
 800178e:	3104      	adds	r1, #4
 8001790:	f804 200e 	strb.w	r2, [r4, lr]
 8001794:	223d      	movs	r2, #61	; 0x3d
 8001796:	54e2      	strb	r2, [r4, r3]
 8001798:	e008      	b.n	80017ac <base64_encode+0x90>
 800179a:	6832      	ldr	r2, [r6, #0]
 800179c:	4421      	add	r1, r4
 800179e:	5d52      	ldrb	r2, [r2, r5]
 80017a0:	1c98      	adds	r0, r3, #2
 80017a2:	54e2      	strb	r2, [r4, r3]
 80017a4:	223d      	movs	r2, #61	; 0x3d
 80017a6:	708a      	strb	r2, [r1, #2]
 80017a8:	1cd9      	adds	r1, r3, #3
 80017aa:	5422      	strb	r2, [r4, r0]
 80017ac:	2000      	movs	r0, #0
 80017ae:	5460      	strb	r0, [r4, r1]
 80017b0:	bdf8      	pop	{r3, r4, r5, r6, r7, pc}
 80017b2:	f812 1c01 	ldrb.w	r1, [r2, #-1]
 80017b6:	eb04 0e03 	add.w	lr, r4, r3
 80017ba:	ea45 1591 	orr.w	r5, r5, r1, lsr #6
 80017be:	6831      	ldr	r1, [r6, #0]
 80017c0:	3703      	adds	r7, #3
 80017c2:	5d49      	ldrb	r1, [r1, r5]
 80017c4:	f80e 1c03 	strb.w	r1, [lr, #-3]
 80017c8:	f812 1c01 	ldrb.w	r1, [r2, #-1]
 80017cc:	6835      	ldr	r5, [r6, #0]
 80017ce:	f001 013f 	and.w	r1, r1, #63	; 0x3f
 80017d2:	5c69      	ldrb	r1, [r5, r1]
 80017d4:	f80e 1c02 	strb.w	r1, [lr, #-2]
 80017d8:	e7a9      	b.n	800172e <base64_encode+0x12>
 80017da:	bf00      	nop
 80017dc:	20000000 	.word	0x20000000

080017e0 <num_strchr>:
 80017e0:	b510      	push	{r4, lr}
 80017e2:	4604      	mov	r4, r0
 80017e4:	f002 fc9f 	bl	8004126 <strchr>
 80017e8:	b108      	cbz	r0, 80017ee <num_strchr+0xe>
 80017ea:	1b00      	subs	r0, r0, r4
 80017ec:	bd10      	pop	{r4, pc}
 80017ee:	f04f 30ff 	mov.w	r0, #4294967295
 80017f2:	bd10      	pop	{r4, pc}

080017f4 <base64_decode>:
 80017f4:	e92d 4ff8 	stmdb	sp!, {r3, r4, r5, r6, r7, r8, r9, sl, fp, lr}
 80017f8:	460e      	mov	r6, r1
 80017fa:	4605      	mov	r5, r0
 80017fc:	2400      	movs	r4, #0
 80017fe:	f8df 8074 	ldr.w	r8, [pc, #116]	; 8001874 <base64_decode+0x80>
 8001802:	7829      	ldrb	r1, [r5, #0]
 8001804:	b919      	cbnz	r1, 800180e <base64_decode+0x1a>
 8001806:	5531      	strb	r1, [r6, r4]
 8001808:	4608      	mov	r0, r1
 800180a:	e8bd 8ff8 	ldmia.w	sp!, {r3, r4, r5, r6, r7, r8, r9, sl, fp, pc}
 800180e:	f8d8 7000 	ldr.w	r7, [r8]
 8001812:	4638      	mov	r0, r7
 8001814:	f7ff ffe4 	bl	80017e0 <num_strchr>
 8001818:	7869      	ldrb	r1, [r5, #1]
 800181a:	4681      	mov	r9, r0
 800181c:	4638      	mov	r0, r7
 800181e:	f7ff ffdf 	bl	80017e0 <num_strchr>
 8001822:	4683      	mov	fp, r0
 8001824:	f3c0 1001 	ubfx	r0, r0, #4, #2
 8001828:	ea40 0089 	orr.w	r0, r0, r9, lsl #2
 800182c:	5530      	strb	r0, [r6, r4]
 800182e:	78a9      	ldrb	r1, [r5, #2]
 8001830:	1c67      	adds	r7, r4, #1
 8001832:	293d      	cmp	r1, #61	; 0x3d
 8001834:	d019      	beq.n	800186a <base64_decode+0x76>
 8001836:	f8d8 0000 	ldr.w	r0, [r8]
 800183a:	f7ff ffd1 	bl	80017e0 <num_strchr>
 800183e:	4682      	mov	sl, r0
 8001840:	f3c0 0083 	ubfx	r0, r0, #2, #4
 8001844:	ea40 100b 	orr.w	r0, r0, fp, lsl #4
 8001848:	55f0      	strb	r0, [r6, r7]
 800184a:	78e9      	ldrb	r1, [r5, #3]
 800184c:	f104 0902 	add.w	r9, r4, #2
 8001850:	293d      	cmp	r1, #61	; 0x3d
 8001852:	d00d      	beq.n	8001870 <base64_decode+0x7c>
 8001854:	f8d8 0000 	ldr.w	r0, [r8]
 8001858:	f7ff ffc2 	bl	80017e0 <num_strchr>
 800185c:	f000 003f 	and.w	r0, r0, #63	; 0x3f
 8001860:	ea40 108a 	orr.w	r0, r0, sl, lsl #6
 8001864:	1ce7      	adds	r7, r4, #3
 8001866:	f806 0009 	strb.w	r0, [r6, r9]
 800186a:	3504      	adds	r5, #4
 800186c:	463c      	mov	r4, r7
 800186e:	e7c8      	b.n	8001802 <base64_decode+0xe>
 8001870:	464f      	mov	r7, r9
 8001872:	e7fa      	b.n	800186a <base64_decode+0x76>
 8001874:	20000000 	.word	0x20000000

08001878 <MD5Init>:
 8001878:	2300      	movs	r3, #0
 800187a:	6003      	str	r3, [r0, #0]
 800187c:	6043      	str	r3, [r0, #4]
 800187e:	4b08      	ldr	r3, [pc, #32]	; (80018a0 <MD5Init+0x28>)
 8001880:	6083      	str	r3, [r0, #8]
 8001882:	f103 3388 	add.w	r3, r3, #2290649224	; 0x88888888
 8001886:	60c3      	str	r3, [r0, #12]
 8001888:	f103 4329 	add.w	r3, r3, #2835349504	; 0xa9000000
 800188c:	f5a3 1396 	sub.w	r3, r3, #1228800	; 0x12c000
 8001890:	f6a3 638b 	subw	r3, r3, #3723	; 0xe8b
 8001894:	6103      	str	r3, [r0, #16]
 8001896:	f1a3 3388 	sub.w	r3, r3, #2290649224	; 0x88888888
 800189a:	6143      	str	r3, [r0, #20]
 800189c:	4770      	bx	lr
 800189e:	bf00      	nop
 80018a0:	67452301 	.word	0x67452301

080018a4 <MD5Encode>:
 80018a4:	4603      	mov	r3, r0
 80018a6:	b510      	push	{r4, lr}
 80018a8:	3904      	subs	r1, #4
 80018aa:	1a1c      	subs	r4, r3, r0
 80018ac:	42a2      	cmp	r2, r4
 80018ae:	d800      	bhi.n	80018b2 <MD5Encode+0xe>
 80018b0:	bd10      	pop	{r4, pc}
 80018b2:	684c      	ldr	r4, [r1, #4]
 80018b4:	3304      	adds	r3, #4
 80018b6:	f803 4c04 	strb.w	r4, [r3, #-4]
 80018ba:	684c      	ldr	r4, [r1, #4]
 80018bc:	0a24      	lsrs	r4, r4, #8
 80018be:	f803 4c03 	strb.w	r4, [r3, #-3]
 80018c2:	88cc      	ldrh	r4, [r1, #6]
 80018c4:	f803 4c02 	strb.w	r4, [r3, #-2]
 80018c8:	f851 4f04 	ldr.w	r4, [r1, #4]!
 80018cc:	0e24      	lsrs	r4, r4, #24
 80018ce:	f803 4c01 	strb.w	r4, [r3, #-1]
 80018d2:	e7ea      	b.n	80018aa <MD5Encode+0x6>

080018d4 <MD5Decode>:
 80018d4:	b530      	push	{r4, r5, lr}
 80018d6:	4604      	mov	r4, r0
 80018d8:	1a23      	subs	r3, r4, r0
 80018da:	429a      	cmp	r2, r3
 80018dc:	f101 0104 	add.w	r1, r1, #4
 80018e0:	d800      	bhi.n	80018e4 <MD5Decode+0x10>
 80018e2:	bd30      	pop	{r4, r5, pc}
 80018e4:	f811 3c02 	ldrb.w	r3, [r1, #-2]
 80018e8:	f811 5c03 	ldrb.w	r5, [r1, #-3]
 80018ec:	041b      	lsls	r3, r3, #16
 80018ee:	ea43 2305 	orr.w	r3, r3, r5, lsl #8
 80018f2:	f811 5c04 	ldrb.w	r5, [r1, #-4]
 80018f6:	432b      	orrs	r3, r5
 80018f8:	f811 5c01 	ldrb.w	r5, [r1, #-1]
 80018fc:	ea43 6305 	orr.w	r3, r3, r5, lsl #24
 8001900:	f844 3b04 	str.w	r3, [r4], #4
 8001904:	e7e8      	b.n	80018d8 <MD5Decode+0x4>
	...

08001908 <MD5Transform>:
 8001908:	e92d 4ff0 	stmdb	sp!, {r4, r5, r6, r7, r8, r9, sl, fp, lr}
 800190c:	b0cb      	sub	sp, #300	; 0x12c
 800190e:	4604      	mov	r4, r0
 8001910:	f8d0 8000 	ldr.w	r8, [r0]
 8001914:	1d05      	adds	r5, r0, #4
 8001916:	2240      	movs	r2, #64	; 0x40
 8001918:	cde0      	ldmia	r5, {r5, r6, r7}
 800191a:	a80a      	add	r0, sp, #40	; 0x28
 800191c:	f7ff ffda 	bl	80018d4 <MD5Decode>
 8001920:	f8dd a028 	ldr.w	sl, [sp, #40]	; 0x28
 8001924:	4ad7      	ldr	r2, [pc, #860]	; (8001c84 <MD5Transform+0x37c>)
 8001926:	ea86 0307 	eor.w	r3, r6, r7
 800192a:	4452      	add	r2, sl
 800192c:	402b      	ands	r3, r5
 800192e:	4442      	add	r2, r8
 8001930:	407b      	eors	r3, r7
 8001932:	4413      	add	r3, r2
 8001934:	49d4      	ldr	r1, [pc, #848]	; (8001c88 <MD5Transform+0x380>)
 8001936:	9a0b      	ldr	r2, [sp, #44]	; 0x2c
 8001938:	eb05 6373 	add.w	r3, r5, r3, ror #25
 800193c:	4411      	add	r1, r2
 800193e:	440f      	add	r7, r1
 8001940:	ea85 0106 	eor.w	r1, r5, r6
 8001944:	9200      	str	r2, [sp, #0]
 8001946:	4019      	ands	r1, r3
 8001948:	9a0c      	ldr	r2, [sp, #48]	; 0x30
 800194a:	48d0      	ldr	r0, [pc, #832]	; (8001c8c <MD5Transform+0x384>)
 800194c:	4071      	eors	r1, r6
 800194e:	4410      	add	r0, r2
 8001950:	4439      	add	r1, r7
 8001952:	eb03 5131 	add.w	r1, r3, r1, ror #20
 8001956:	9201      	str	r2, [sp, #4]
 8001958:	4406      	add	r6, r0
 800195a:	9a0d      	ldr	r2, [sp, #52]	; 0x34
 800195c:	ea85 0003 	eor.w	r0, r5, r3
 8001960:	4008      	ands	r0, r1
 8001962:	9202      	str	r2, [sp, #8]
 8001964:	4068      	eors	r0, r5
 8001966:	4430      	add	r0, r6
 8001968:	4ac9      	ldr	r2, [pc, #804]	; (8001c90 <MD5Transform+0x388>)
 800196a:	9e02      	ldr	r6, [sp, #8]
 800196c:	eb01 30f0 	add.w	r0, r1, r0, ror #15
 8001970:	4432      	add	r2, r6
 8001972:	4415      	add	r5, r2
 8001974:	ea83 0201 	eor.w	r2, r3, r1
 8001978:	4002      	ands	r2, r0
 800197a:	405a      	eors	r2, r3
 800197c:	442a      	add	r2, r5
 800197e:	9d0e      	ldr	r5, [sp, #56]	; 0x38
 8001980:	eb00 22b2 	add.w	r2, r0, r2, ror #10
 8001984:	9503      	str	r5, [sp, #12]
 8001986:	9e03      	ldr	r6, [sp, #12]
 8001988:	4dc2      	ldr	r5, [pc, #776]	; (8001c94 <MD5Transform+0x38c>)
 800198a:	f8dd c03c 	ldr.w	ip, [sp, #60]	; 0x3c
 800198e:	4435      	add	r5, r6
 8001990:	441d      	add	r5, r3
 8001992:	ea81 0300 	eor.w	r3, r1, r0
 8001996:	4013      	ands	r3, r2
 8001998:	404b      	eors	r3, r1
 800199a:	442b      	add	r3, r5
 800199c:	4dbe      	ldr	r5, [pc, #760]	; (8001c98 <MD5Transform+0x390>)
 800199e:	eb02 6373 	add.w	r3, r2, r3, ror #25
 80019a2:	4465      	add	r5, ip
 80019a4:	440d      	add	r5, r1
 80019a6:	ea80 0102 	eor.w	r1, r0, r2
 80019aa:	4019      	ands	r1, r3
 80019ac:	4041      	eors	r1, r0
 80019ae:	4429      	add	r1, r5
 80019b0:	9d10      	ldr	r5, [sp, #64]	; 0x40
 80019b2:	eb03 5131 	add.w	r1, r3, r1, ror #20
 80019b6:	9504      	str	r5, [sp, #16]
 80019b8:	9e04      	ldr	r6, [sp, #16]
 80019ba:	4db8      	ldr	r5, [pc, #736]	; (8001c9c <MD5Transform+0x394>)
 80019bc:	f8dd 9044 	ldr.w	r9, [sp, #68]	; 0x44
 80019c0:	4435      	add	r5, r6
 80019c2:	4405      	add	r5, r0
 80019c4:	ea82 0003 	eor.w	r0, r2, r3
 80019c8:	4008      	ands	r0, r1
 80019ca:	4050      	eors	r0, r2
 80019cc:	4428      	add	r0, r5
 80019ce:	4db4      	ldr	r5, [pc, #720]	; (8001ca0 <MD5Transform+0x398>)
 80019d0:	eb01 30f0 	add.w	r0, r1, r0, ror #15
 80019d4:	444d      	add	r5, r9
 80019d6:	4415      	add	r5, r2
 80019d8:	ea83 0201 	eor.w	r2, r3, r1
 80019dc:	4002      	ands	r2, r0
 80019de:	405a      	eors	r2, r3
 80019e0:	442a      	add	r2, r5
 80019e2:	9d12      	ldr	r5, [sp, #72]	; 0x48
 80019e4:	eb00 22b2 	add.w	r2, r0, r2, ror #10
 80019e8:	9505      	str	r5, [sp, #20]
 80019ea:	9e05      	ldr	r6, [sp, #20]
 80019ec:	4dad      	ldr	r5, [pc, #692]	; (8001ca4 <MD5Transform+0x39c>)
 80019ee:	f8dd e058 	ldr.w	lr, [sp, #88]	; 0x58
 80019f2:	4435      	add	r5, r6
 80019f4:	441d      	add	r5, r3
 80019f6:	ea81 0300 	eor.w	r3, r1, r0
 80019fa:	4013      	ands	r3, r2
 80019fc:	404b      	eors	r3, r1
 80019fe:	442b      	add	r3, r5
 8001a00:	9d13      	ldr	r5, [sp, #76]	; 0x4c
 8001a02:	eb02 6373 	add.w	r3, r2, r3, ror #25
 8001a06:	9506      	str	r5, [sp, #24]
 8001a08:	9e06      	ldr	r6, [sp, #24]
 8001a0a:	4da7      	ldr	r5, [pc, #668]	; (8001ca8 <MD5Transform+0x3a0>)
 8001a0c:	f8dd 8060 	ldr.w	r8, [sp, #96]	; 0x60
 8001a10:	4435      	add	r5, r6
 8001a12:	440d      	add	r5, r1
 8001a14:	ea80 0102 	eor.w	r1, r0, r2
 8001a18:	4019      	ands	r1, r3
 8001a1a:	4041      	eors	r1, r0
 8001a1c:	4429      	add	r1, r5
 8001a1e:	9d14      	ldr	r5, [sp, #80]	; 0x50
 8001a20:	eb03 5131 	add.w	r1, r3, r1, ror #20
 8001a24:	9507      	str	r5, [sp, #28]
 8001a26:	f5a5 4524 	sub.w	r5, r5, #41984	; 0xa400
 8001a2a:	3d4f      	subs	r5, #79	; 0x4f
 8001a2c:	4405      	add	r5, r0
 8001a2e:	ea82 0003 	eor.w	r0, r2, r3
 8001a32:	4008      	ands	r0, r1
 8001a34:	4050      	eors	r0, r2
 8001a36:	4428      	add	r0, r5
 8001a38:	9d15      	ldr	r5, [sp, #84]	; 0x54
 8001a3a:	eb01 30f0 	add.w	r0, r1, r0, ror #15
 8001a3e:	9508      	str	r5, [sp, #32]
 8001a40:	9e08      	ldr	r6, [sp, #32]
 8001a42:	4d9a      	ldr	r5, [pc, #616]	; (8001cac <MD5Transform+0x3a4>)
 8001a44:	f8df b2cc 	ldr.w	fp, [pc, #716]	; 8001d14 <MD5Transform+0x40c>
 8001a48:	4435      	add	r5, r6
 8001a4a:	4415      	add	r5, r2
 8001a4c:	ea83 0201 	eor.w	r2, r3, r1
 8001a50:	4002      	ands	r2, r0
 8001a52:	405a      	eors	r2, r3
 8001a54:	442a      	add	r2, r5
 8001a56:	4d96      	ldr	r5, [pc, #600]	; (8001cb0 <MD5Transform+0x3a8>)
 8001a58:	eb00 22b2 	add.w	r2, r0, r2, ror #10
 8001a5c:	4475      	add	r5, lr
 8001a5e:	441d      	add	r5, r3
 8001a60:	ea81 0300 	eor.w	r3, r1, r0
 8001a64:	4013      	ands	r3, r2
 8001a66:	404b      	eors	r3, r1
 8001a68:	442b      	add	r3, r5
 8001a6a:	9d17      	ldr	r5, [sp, #92]	; 0x5c
 8001a6c:	eb02 6373 	add.w	r3, r2, r3, ror #25
 8001a70:	9509      	str	r5, [sp, #36]	; 0x24
 8001a72:	9e09      	ldr	r6, [sp, #36]	; 0x24
 8001a74:	4d8f      	ldr	r5, [pc, #572]	; (8001cb4 <MD5Transform+0x3ac>)
 8001a76:	9f19      	ldr	r7, [sp, #100]	; 0x64
 8001a78:	4435      	add	r5, r6
 8001a7a:	440d      	add	r5, r1
 8001a7c:	ea80 0102 	eor.w	r1, r0, r2
 8001a80:	4019      	ands	r1, r3
 8001a82:	4041      	eors	r1, r0
 8001a84:	4429      	add	r1, r5
 8001a86:	4d8c      	ldr	r5, [pc, #560]	; (8001cb8 <MD5Transform+0x3b0>)
 8001a88:	eb03 5131 	add.w	r1, r3, r1, ror #20
 8001a8c:	4445      	add	r5, r8
 8001a8e:	4405      	add	r5, r0
 8001a90:	ea82 0003 	eor.w	r0, r2, r3
 8001a94:	4008      	ands	r0, r1
 8001a96:	4050      	eors	r0, r2
 8001a98:	4428      	add	r0, r5
 8001a9a:	4d88      	ldr	r5, [pc, #544]	; (8001cbc <MD5Transform+0x3b4>)
 8001a9c:	eb01 30f0 	add.w	r0, r1, r0, ror #15
 8001aa0:	443d      	add	r5, r7
 8001aa2:	4415      	add	r5, r2
 8001aa4:	ea83 0201 	eor.w	r2, r3, r1
 8001aa8:	4002      	ands	r2, r0
 8001aaa:	405a      	eors	r2, r3
 8001aac:	9e00      	ldr	r6, [sp, #0]
 8001aae:	442a      	add	r2, r5
 8001ab0:	4d83      	ldr	r5, [pc, #524]	; (8001cc0 <MD5Transform+0x3b8>)
 8001ab2:	eb00 22b2 	add.w	r2, r0, r2, ror #10
 8001ab6:	4435      	add	r5, r6
 8001ab8:	441d      	add	r5, r3
 8001aba:	ea80 0302 	eor.w	r3, r0, r2
 8001abe:	400b      	ands	r3, r1
 8001ac0:	4043      	eors	r3, r0
 8001ac2:	9e04      	ldr	r6, [sp, #16]
 8001ac4:	442b      	add	r3, r5
 8001ac6:	4d7f      	ldr	r5, [pc, #508]	; (8001cc4 <MD5Transform+0x3bc>)
 8001ac8:	eb02 63f3 	add.w	r3, r2, r3, ror #27
 8001acc:	4435      	add	r5, r6
 8001ace:	440d      	add	r5, r1
 8001ad0:	ea82 0103 	eor.w	r1, r2, r3
 8001ad4:	4001      	ands	r1, r0
 8001ad6:	4051      	eors	r1, r2
 8001ad8:	9e08      	ldr	r6, [sp, #32]
 8001ada:	4429      	add	r1, r5
 8001adc:	4d7a      	ldr	r5, [pc, #488]	; (8001cc8 <MD5Transform+0x3c0>)
 8001ade:	eb03 51f1 	add.w	r1, r3, r1, ror #23
 8001ae2:	4435      	add	r5, r6
 8001ae4:	4405      	add	r5, r0
 8001ae6:	ea83 0001 	eor.w	r0, r3, r1
 8001aea:	4010      	ands	r0, r2
 8001aec:	4058      	eors	r0, r3
 8001aee:	4428      	add	r0, r5
 8001af0:	4d76      	ldr	r5, [pc, #472]	; (8001ccc <MD5Transform+0x3c4>)
 8001af2:	eb01 40b0 	add.w	r0, r1, r0, ror #18
 8001af6:	4455      	add	r5, sl
 8001af8:	4415      	add	r5, r2
 8001afa:	ea81 0200 	eor.w	r2, r1, r0
 8001afe:	401a      	ands	r2, r3
 8001b00:	404a      	eors	r2, r1
 8001b02:	442a      	add	r2, r5
 8001b04:	4d72      	ldr	r5, [pc, #456]	; (8001cd0 <MD5Transform+0x3c8>)
 8001b06:	eb00 3232 	add.w	r2, r0, r2, ror #12
 8001b0a:	4465      	add	r5, ip
 8001b0c:	441d      	add	r5, r3
 8001b0e:	ea80 0302 	eor.w	r3, r0, r2
 8001b12:	400b      	ands	r3, r1
 8001b14:	4043      	eors	r3, r0
 8001b16:	9e07      	ldr	r6, [sp, #28]
 8001b18:	442b      	add	r3, r5
 8001b1a:	4d6e      	ldr	r5, [pc, #440]	; (8001cd4 <MD5Transform+0x3cc>)
 8001b1c:	eb02 63f3 	add.w	r3, r2, r3, ror #27
 8001b20:	4435      	add	r5, r6
 8001b22:	440d      	add	r5, r1
 8001b24:	ea82 0103 	eor.w	r1, r2, r3
 8001b28:	4001      	ands	r1, r0
 8001b2a:	4051      	eors	r1, r2
 8001b2c:	4429      	add	r1, r5
 8001b2e:	4d6a      	ldr	r5, [pc, #424]	; (8001cd8 <MD5Transform+0x3d0>)
 8001b30:	eb03 51f1 	add.w	r1, r3, r1, ror #23
 8001b34:	443d      	add	r5, r7
 8001b36:	4405      	add	r5, r0
 8001b38:	ea83 0001 	eor.w	r0, r3, r1
 8001b3c:	4010      	ands	r0, r2
 8001b3e:	4058      	eors	r0, r3
 8001b40:	9e03      	ldr	r6, [sp, #12]
 8001b42:	4428      	add	r0, r5
 8001b44:	4d65      	ldr	r5, [pc, #404]	; (8001cdc <MD5Transform+0x3d4>)
 8001b46:	eb01 40b0 	add.w	r0, r1, r0, ror #18
 8001b4a:	4435      	add	r5, r6
 8001b4c:	4415      	add	r5, r2
 8001b4e:	ea81 0200 	eor.w	r2, r1, r0
 8001b52:	401a      	ands	r2, r3
 8001b54:	404a      	eors	r2, r1
 8001b56:	9e06      	ldr	r6, [sp, #24]
 8001b58:	442a      	add	r2, r5
 8001b5a:	4d61      	ldr	r5, [pc, #388]	; (8001ce0 <MD5Transform+0x3d8>)
 8001b5c:	eb00 3232 	add.w	r2, r0, r2, ror #12
 8001b60:	4435      	add	r5, r6
 8001b62:	441d      	add	r5, r3
 8001b64:	ea80 0302 	eor.w	r3, r0, r2
 8001b68:	400b      	ands	r3, r1
 8001b6a:	4043      	eors	r3, r0
 8001b6c:	442b      	add	r3, r5
 8001b6e:	4d5d      	ldr	r5, [pc, #372]	; (8001ce4 <MD5Transform+0x3dc>)
 8001b70:	eb02 63f3 	add.w	r3, r2, r3, ror #27
 8001b74:	4445      	add	r5, r8
 8001b76:	440d      	add	r5, r1
 8001b78:	ea82 0103 	eor.w	r1, r2, r3
 8001b7c:	4001      	ands	r1, r0
 8001b7e:	4051      	eors	r1, r2
 8001b80:	9e02      	ldr	r6, [sp, #8]
 8001b82:	4429      	add	r1, r5
 8001b84:	4d58      	ldr	r5, [pc, #352]	; (8001ce8 <MD5Transform+0x3e0>)
 8001b86:	eb03 51f1 	add.w	r1, r3, r1, ror #23
 8001b8a:	4435      	add	r5, r6
 8001b8c:	4428      	add	r0, r5
 8001b8e:	ea83 0501 	eor.w	r5, r3, r1
 8001b92:	4015      	ands	r5, r2
 8001b94:	405d      	eors	r5, r3
 8001b96:	9e05      	ldr	r6, [sp, #20]
 8001b98:	4428      	add	r0, r5
 8001b9a:	4d54      	ldr	r5, [pc, #336]	; (8001cec <MD5Transform+0x3e4>)
 8001b9c:	eb01 40b0 	add.w	r0, r1, r0, ror #18
 8001ba0:	4435      	add	r5, r6
 8001ba2:	442a      	add	r2, r5
 8001ba4:	ea81 0500 	eor.w	r5, r1, r0
 8001ba8:	401d      	ands	r5, r3
 8001baa:	404d      	eors	r5, r1
 8001bac:	9e09      	ldr	r6, [sp, #36]	; 0x24
 8001bae:	442a      	add	r2, r5
 8001bb0:	4d4f      	ldr	r5, [pc, #316]	; (8001cf0 <MD5Transform+0x3e8>)
 8001bb2:	eb00 3232 	add.w	r2, r0, r2, ror #12
 8001bb6:	4435      	add	r5, r6
 8001bb8:	442b      	add	r3, r5
 8001bba:	ea80 0502 	eor.w	r5, r0, r2
 8001bbe:	400d      	ands	r5, r1
 8001bc0:	4045      	eors	r5, r0
 8001bc2:	9e01      	ldr	r6, [sp, #4]
 8001bc4:	442b      	add	r3, r5
 8001bc6:	4d4b      	ldr	r5, [pc, #300]	; (8001cf4 <MD5Transform+0x3ec>)
 8001bc8:	eb02 63f3 	add.w	r3, r2, r3, ror #27
 8001bcc:	4435      	add	r5, r6
 8001bce:	4429      	add	r1, r5
 8001bd0:	ea82 0503 	eor.w	r5, r2, r3
 8001bd4:	4005      	ands	r5, r0
 8001bd6:	4055      	eors	r5, r2
 8001bd8:	4429      	add	r1, r5
 8001bda:	4d47      	ldr	r5, [pc, #284]	; (8001cf8 <MD5Transform+0x3f0>)
 8001bdc:	eb03 51f1 	add.w	r1, r3, r1, ror #23
 8001be0:	444d      	add	r5, r9
 8001be2:	4428      	add	r0, r5
 8001be4:	ea83 0501 	eor.w	r5, r3, r1
 8001be8:	4015      	ands	r5, r2
 8001bea:	405d      	eors	r5, r3
 8001bec:	4405      	add	r5, r0
 8001bee:	eb01 45b5 	add.w	r5, r1, r5, ror #18
 8001bf2:	ea81 0005 	eor.w	r0, r1, r5
 8001bf6:	44f3      	add	fp, lr
 8001bf8:	4493      	add	fp, r2
 8001bfa:	ea03 0200 	and.w	r2, r3, r0
 8001bfe:	404a      	eors	r2, r1
 8001c00:	445a      	add	r2, fp
 8001c02:	f5ac 2bb8 	sub.w	fp, ip, #376832	; 0x5c000
 8001c06:	eb05 3232 	add.w	r2, r5, r2, ror #12
 8001c0a:	f2ab 6bbe 	subw	fp, fp, #1726	; 0x6be
 8001c0e:	4050      	eors	r0, r2
 8001c10:	445b      	add	r3, fp
 8001c12:	9e05      	ldr	r6, [sp, #20]
 8001c14:	4403      	add	r3, r0
 8001c16:	4839      	ldr	r0, [pc, #228]	; (8001cfc <MD5Transform+0x3f4>)
 8001c18:	eb02 7333 	add.w	r3, r2, r3, ror #28
 8001c1c:	4430      	add	r0, r6
 8001c1e:	4408      	add	r0, r1
 8001c20:	ea85 0102 	eor.w	r1, r5, r2
 8001c24:	4059      	eors	r1, r3
 8001c26:	9e08      	ldr	r6, [sp, #32]
 8001c28:	4401      	add	r1, r0
 8001c2a:	4835      	ldr	r0, [pc, #212]	; (8001d00 <MD5Transform+0x3f8>)
 8001c2c:	eb03 5171 	add.w	r1, r3, r1, ror #21
 8001c30:	4430      	add	r0, r6
 8001c32:	4405      	add	r5, r0
 8001c34:	ea82 0003 	eor.w	r0, r2, r3
 8001c38:	4048      	eors	r0, r1
 8001c3a:	4405      	add	r5, r0
 8001c3c:	4831      	ldr	r0, [pc, #196]	; (8001d04 <MD5Transform+0x3fc>)
 8001c3e:	eb01 4535 	add.w	r5, r1, r5, ror #16
 8001c42:	4440      	add	r0, r8
 8001c44:	4410      	add	r0, r2
 8001c46:	ea83 0201 	eor.w	r2, r3, r1
 8001c4a:	406a      	eors	r2, r5
 8001c4c:	9e00      	ldr	r6, [sp, #0]
 8001c4e:	4402      	add	r2, r0
 8001c50:	482d      	ldr	r0, [pc, #180]	; (8001d08 <MD5Transform+0x400>)
 8001c52:	eb05 2272 	add.w	r2, r5, r2, ror #9
 8001c56:	4430      	add	r0, r6
 8001c58:	4418      	add	r0, r3
 8001c5a:	ea81 0305 	eor.w	r3, r1, r5
 8001c5e:	4053      	eors	r3, r2
 8001c60:	9e03      	ldr	r6, [sp, #12]
 8001c62:	4403      	add	r3, r0
 8001c64:	4829      	ldr	r0, [pc, #164]	; (8001d0c <MD5Transform+0x404>)
 8001c66:	eb02 7333 	add.w	r3, r2, r3, ror #28
 8001c6a:	4430      	add	r0, r6
 8001c6c:	4408      	add	r0, r1
 8001c6e:	ea85 0102 	eor.w	r1, r5, r2
 8001c72:	4059      	eors	r1, r3
 8001c74:	4401      	add	r1, r0
 8001c76:	4826      	ldr	r0, [pc, #152]	; (8001d10 <MD5Transform+0x408>)
 8001c78:	eb03 5171 	add.w	r1, r3, r1, ror #21
 8001c7c:	4448      	add	r0, r9
 8001c7e:	4405      	add	r5, r0
 8001c80:	e04a      	b.n	8001d18 <MD5Transform+0x410>
 8001c82:	bf00      	nop
 8001c84:	d76aa478 	.word	0xd76aa478
 8001c88:	e8c7b756 	.word	0xe8c7b756
 8001c8c:	242070db 	.word	0x242070db
 8001c90:	c1bdceee 	.word	0xc1bdceee
 8001c94:	f57c0faf 	.word	0xf57c0faf
 8001c98:	4787c62a 	.word	0x4787c62a
 8001c9c:	a8304613 	.word	0xa8304613
 8001ca0:	fd469501 	.word	0xfd469501
 8001ca4:	698098d8 	.word	0x698098d8
 8001ca8:	8b44f7af 	.word	0x8b44f7af
 8001cac:	895cd7be 	.word	0x895cd7be
 8001cb0:	6b901122 	.word	0x6b901122
 8001cb4:	fd987193 	.word	0xfd987193
 8001cb8:	a679438e 	.word	0xa679438e
 8001cbc:	49b40821 	.word	0x49b40821
 8001cc0:	f61e2562 	.word	0xf61e2562
 8001cc4:	c040b340 	.word	0xc040b340
 8001cc8:	265e5a51 	.word	0x265e5a51
 8001ccc:	e9b6c7aa 	.word	0xe9b6c7aa
 8001cd0:	d62f105d 	.word	0xd62f105d
 8001cd4:	02441453 	.word	0x02441453
 8001cd8:	d8a1e681 	.word	0xd8a1e681
 8001cdc:	e7d3fbc8 	.word	0xe7d3fbc8
 8001ce0:	21e1cde6 	.word	0x21e1cde6
 8001ce4:	c33707d6 	.word	0xc33707d6
 8001ce8:	f4d50d87 	.word	0xf4d50d87
 8001cec:	455a14ed 	.word	0x455a14ed
 8001cf0:	a9e3e905 	.word	0xa9e3e905
 8001cf4:	fcefa3f8 	.word	0xfcefa3f8
 8001cf8:	676f02d9 	.word	0x676f02d9
 8001cfc:	8771f681 	.word	0x8771f681
 8001d00:	6d9d6122 	.word	0x6d9d6122
 8001d04:	fde5380c 	.word	0xfde5380c
 8001d08:	a4beea44 	.word	0xa4beea44
 8001d0c:	4bdecfa9 	.word	0x4bdecfa9
 8001d10:	f6bb4b60 	.word	0xf6bb4b60
 8001d14:	8d2a4c8a 	.word	0x8d2a4c8a
 8001d18:	ea82 0003 	eor.w	r0, r2, r3
 8001d1c:	4048      	eors	r0, r1
 8001d1e:	9e07      	ldr	r6, [sp, #28]
 8001d20:	4428      	add	r0, r5
 8001d22:	4d84      	ldr	r5, [pc, #528]	; (8001f34 <MD5Transform+0x62c>)
 8001d24:	eb01 4030 	add.w	r0, r1, r0, ror #16
 8001d28:	4435      	add	r5, r6
 8001d2a:	4415      	add	r5, r2
 8001d2c:	ea83 0201 	eor.w	r2, r3, r1
 8001d30:	4042      	eors	r2, r0
 8001d32:	9e09      	ldr	r6, [sp, #36]	; 0x24
 8001d34:	442a      	add	r2, r5
 8001d36:	4d80      	ldr	r5, [pc, #512]	; (8001f38 <MD5Transform+0x630>)
 8001d38:	eb00 2272 	add.w	r2, r0, r2, ror #9
 8001d3c:	4435      	add	r5, r6
 8001d3e:	441d      	add	r5, r3
 8001d40:	ea81 0300 	eor.w	r3, r1, r0
 8001d44:	4053      	eors	r3, r2
 8001d46:	442b      	add	r3, r5
 8001d48:	4d7c      	ldr	r5, [pc, #496]	; (8001f3c <MD5Transform+0x634>)
 8001d4a:	eb02 7333 	add.w	r3, r2, r3, ror #28
 8001d4e:	4455      	add	r5, sl
 8001d50:	4429      	add	r1, r5
 8001d52:	ea80 0502 	eor.w	r5, r0, r2
 8001d56:	405d      	eors	r5, r3
 8001d58:	9e02      	ldr	r6, [sp, #8]
 8001d5a:	4429      	add	r1, r5
 8001d5c:	4d78      	ldr	r5, [pc, #480]	; (8001f40 <MD5Transform+0x638>)
 8001d5e:	eb03 5171 	add.w	r1, r3, r1, ror #21
 8001d62:	4435      	add	r5, r6
 8001d64:	4405      	add	r5, r0
 8001d66:	ea82 0003 	eor.w	r0, r2, r3
 8001d6a:	4048      	eors	r0, r1
 8001d6c:	9e04      	ldr	r6, [sp, #16]
 8001d6e:	4428      	add	r0, r5
 8001d70:	4d74      	ldr	r5, [pc, #464]	; (8001f44 <MD5Transform+0x63c>)
 8001d72:	eb01 4030 	add.w	r0, r1, r0, ror #16
 8001d76:	4435      	add	r5, r6
 8001d78:	442a      	add	r2, r5
 8001d7a:	ea83 0501 	eor.w	r5, r3, r1
 8001d7e:	4045      	eors	r5, r0
 8001d80:	9e06      	ldr	r6, [sp, #24]
 8001d82:	4415      	add	r5, r2
 8001d84:	4a70      	ldr	r2, [pc, #448]	; (8001f48 <MD5Transform+0x640>)
 8001d86:	eb00 2575 	add.w	r5, r0, r5, ror #9
 8001d8a:	4432      	add	r2, r6
 8001d8c:	4413      	add	r3, r2
 8001d8e:	ea81 0200 	eor.w	r2, r1, r0
 8001d92:	406a      	eors	r2, r5
 8001d94:	441a      	add	r2, r3
 8001d96:	4b6d      	ldr	r3, [pc, #436]	; (8001f4c <MD5Transform+0x644>)
 8001d98:	eb05 7232 	add.w	r2, r5, r2, ror #28
 8001d9c:	4473      	add	r3, lr
 8001d9e:	440b      	add	r3, r1
 8001da0:	ea80 0105 	eor.w	r1, r0, r5
 8001da4:	4051      	eors	r1, r2
 8001da6:	4419      	add	r1, r3
 8001da8:	4b69      	ldr	r3, [pc, #420]	; (8001f50 <MD5Transform+0x648>)
 8001daa:	eb02 5171 	add.w	r1, r2, r1, ror #21
 8001dae:	443b      	add	r3, r7
 8001db0:	4418      	add	r0, r3
 8001db2:	ea85 0302 	eor.w	r3, r5, r2
 8001db6:	404b      	eors	r3, r1
 8001db8:	9e01      	ldr	r6, [sp, #4]
 8001dba:	4418      	add	r0, r3
 8001dbc:	4b65      	ldr	r3, [pc, #404]	; (8001f54 <MD5Transform+0x64c>)
 8001dbe:	eb01 4030 	add.w	r0, r1, r0, ror #16
 8001dc2:	4433      	add	r3, r6
 8001dc4:	441d      	add	r5, r3
 8001dc6:	ea82 0301 	eor.w	r3, r2, r1
 8001dca:	4043      	eors	r3, r0
 8001dcc:	442b      	add	r3, r5
 8001dce:	4d62      	ldr	r5, [pc, #392]	; (8001f58 <MD5Transform+0x650>)
 8001dd0:	eb00 2373 	add.w	r3, r0, r3, ror #9
 8001dd4:	4455      	add	r5, sl
 8001dd6:	ea63 0a01 	orn	sl, r3, r1
 8001dda:	ea8a 0a00 	eor.w	sl, sl, r0
 8001dde:	442a      	add	r2, r5
 8001de0:	4452      	add	r2, sl
 8001de2:	4d5e      	ldr	r5, [pc, #376]	; (8001f5c <MD5Transform+0x654>)
 8001de4:	eb03 62b2 	add.w	r2, r3, r2, ror #26
 8001de8:	444d      	add	r5, r9
 8001dea:	ea62 0900 	orn	r9, r2, r0
 8001dee:	ea89 0903 	eor.w	r9, r9, r3
 8001df2:	4429      	add	r1, r5
 8001df4:	4449      	add	r1, r9
 8001df6:	4d5a      	ldr	r5, [pc, #360]	; (8001f60 <MD5Transform+0x658>)
 8001df8:	eb02 51b1 	add.w	r1, r2, r1, ror #22
 8001dfc:	4445      	add	r5, r8
 8001dfe:	ea61 0803 	orn	r8, r1, r3
 8001e02:	ea88 0802 	eor.w	r8, r8, r2
 8001e06:	4428      	add	r0, r5
 8001e08:	4440      	add	r0, r8
 8001e0a:	4d56      	ldr	r5, [pc, #344]	; (8001f64 <MD5Transform+0x65c>)
 8001e0c:	eb01 4070 	add.w	r0, r1, r0, ror #17
 8001e10:	4465      	add	r5, ip
 8001e12:	ea60 0c02 	orn	ip, r0, r2
 8001e16:	ea8c 0c01 	eor.w	ip, ip, r1
 8001e1a:	442b      	add	r3, r5
 8001e1c:	4463      	add	r3, ip
 8001e1e:	4d52      	ldr	r5, [pc, #328]	; (8001f68 <MD5Transform+0x660>)
 8001e20:	eb00 23f3 	add.w	r3, r0, r3, ror #11
 8001e24:	4475      	add	r5, lr
 8001e26:	ea63 0e01 	orn	lr, r3, r1
 8001e2a:	9e02      	ldr	r6, [sp, #8]
 8001e2c:	ea8e 0e00 	eor.w	lr, lr, r0
 8001e30:	442a      	add	r2, r5
 8001e32:	4d4e      	ldr	r5, [pc, #312]	; (8001f6c <MD5Transform+0x664>)
 8001e34:	4472      	add	r2, lr
 8001e36:	eb03 62b2 	add.w	r2, r3, r2, ror #26
 8001e3a:	4435      	add	r5, r6
 8001e3c:	ea62 0e00 	orn	lr, r2, r0
 8001e40:	4429      	add	r1, r5
 8001e42:	9d07      	ldr	r5, [sp, #28]
 8001e44:	ea8e 0e03 	eor.w	lr, lr, r3
 8001e48:	4471      	add	r1, lr
 8001e4a:	f5a5 1580 	sub.w	r5, r5, #1048576	; 0x100000
 8001e4e:	eb02 51b1 	add.w	r1, r2, r1, ror #22
 8001e52:	f6a5 3583 	subw	r5, r5, #2947	; 0xb83
 8001e56:	4405      	add	r5, r0
 8001e58:	ea61 0003 	orn	r0, r1, r3
 8001e5c:	4050      	eors	r0, r2
 8001e5e:	9e00      	ldr	r6, [sp, #0]
 8001e60:	4428      	add	r0, r5
 8001e62:	4d43      	ldr	r5, [pc, #268]	; (8001f70 <MD5Transform+0x668>)
 8001e64:	eb01 4070 	add.w	r0, r1, r0, ror #17
 8001e68:	4435      	add	r5, r6
 8001e6a:	441d      	add	r5, r3
 8001e6c:	ea60 0302 	orn	r3, r0, r2
 8001e70:	404b      	eors	r3, r1
 8001e72:	9e05      	ldr	r6, [sp, #20]
 8001e74:	442b      	add	r3, r5
 8001e76:	4d3f      	ldr	r5, [pc, #252]	; (8001f74 <MD5Transform+0x66c>)
 8001e78:	eb00 23f3 	add.w	r3, r0, r3, ror #11
 8001e7c:	4435      	add	r5, r6
 8001e7e:	4415      	add	r5, r2
 8001e80:	ea63 0201 	orn	r2, r3, r1
 8001e84:	4042      	eors	r2, r0
 8001e86:	442a      	add	r2, r5
 8001e88:	4d3b      	ldr	r5, [pc, #236]	; (8001f78 <MD5Transform+0x670>)
 8001e8a:	eb03 62b2 	add.w	r2, r3, r2, ror #26
 8001e8e:	443d      	add	r5, r7
 8001e90:	440d      	add	r5, r1
 8001e92:	ea62 0100 	orn	r1, r2, r0
 8001e96:	4059      	eors	r1, r3
 8001e98:	9e04      	ldr	r6, [sp, #16]
 8001e9a:	4429      	add	r1, r5
 8001e9c:	4d37      	ldr	r5, [pc, #220]	; (8001f7c <MD5Transform+0x674>)
 8001e9e:	eb02 51b1 	add.w	r1, r2, r1, ror #22
 8001ea2:	4435      	add	r5, r6
 8001ea4:	4405      	add	r5, r0
 8001ea6:	ea61 0003 	orn	r0, r1, r3
 8001eaa:	4050      	eors	r0, r2
 8001eac:	9e09      	ldr	r6, [sp, #36]	; 0x24
 8001eae:	4428      	add	r0, r5
 8001eb0:	4d33      	ldr	r5, [pc, #204]	; (8001f80 <MD5Transform+0x678>)
 8001eb2:	eb01 4070 	add.w	r0, r1, r0, ror #17
 8001eb6:	4435      	add	r5, r6
 8001eb8:	442b      	add	r3, r5
 8001eba:	ea60 0502 	orn	r5, r0, r2
 8001ebe:	404d      	eors	r5, r1
 8001ec0:	9e03      	ldr	r6, [sp, #12]
 8001ec2:	441d      	add	r5, r3
 8001ec4:	4b2f      	ldr	r3, [pc, #188]	; (8001f84 <MD5Transform+0x67c>)
 8001ec6:	eb00 25f5 	add.w	r5, r0, r5, ror #11
 8001eca:	4433      	add	r3, r6
 8001ecc:	441a      	add	r2, r3
 8001ece:	ea65 0301 	orn	r3, r5, r1
 8001ed2:	4043      	eors	r3, r0
 8001ed4:	9e08      	ldr	r6, [sp, #32]
 8001ed6:	4413      	add	r3, r2
 8001ed8:	4a2b      	ldr	r2, [pc, #172]	; (8001f88 <MD5Transform+0x680>)
 8001eda:	eb05 63b3 	add.w	r3, r5, r3, ror #26
 8001ede:	4432      	add	r2, r6
 8001ee0:	440a      	add	r2, r1
 8001ee2:	ea63 0100 	orn	r1, r3, r0
 8001ee6:	4069      	eors	r1, r5
 8001ee8:	9e01      	ldr	r6, [sp, #4]
 8001eea:	4411      	add	r1, r2
 8001eec:	4a27      	ldr	r2, [pc, #156]	; (8001f8c <MD5Transform+0x684>)
 8001eee:	eb03 51b1 	add.w	r1, r3, r1, ror #22
 8001ef2:	4432      	add	r2, r6
 8001ef4:	4402      	add	r2, r0
 8001ef6:	ea61 0005 	orn	r0, r1, r5
 8001efa:	4058      	eors	r0, r3
 8001efc:	9e06      	ldr	r6, [sp, #24]
 8001efe:	4410      	add	r0, r2
 8001f00:	4a23      	ldr	r2, [pc, #140]	; (8001f90 <MD5Transform+0x688>)
 8001f02:	eb01 4070 	add.w	r0, r1, r0, ror #17
 8001f06:	4432      	add	r2, r6
 8001f08:	442a      	add	r2, r5
 8001f0a:	ea60 0503 	orn	r5, r0, r3
 8001f0e:	404d      	eors	r5, r1
 8001f10:	4415      	add	r5, r2
 8001f12:	6822      	ldr	r2, [r4, #0]
 8001f14:	4413      	add	r3, r2
 8001f16:	6023      	str	r3, [r4, #0]
 8001f18:	6863      	ldr	r3, [r4, #4]
 8001f1a:	4403      	add	r3, r0
 8001f1c:	eb03 23f5 	add.w	r3, r3, r5, ror #11
 8001f20:	6063      	str	r3, [r4, #4]
 8001f22:	68a3      	ldr	r3, [r4, #8]
 8001f24:	4418      	add	r0, r3
 8001f26:	68e3      	ldr	r3, [r4, #12]
 8001f28:	60a0      	str	r0, [r4, #8]
 8001f2a:	4419      	add	r1, r3
 8001f2c:	60e1      	str	r1, [r4, #12]
 8001f2e:	b04b      	add	sp, #300	; 0x12c
 8001f30:	e8bd 8ff0 	ldmia.w	sp!, {r4, r5, r6, r7, r8, r9, sl, fp, pc}
 8001f34:	bebfbc70 	.word	0xbebfbc70
 8001f38:	289b7ec6 	.word	0x289b7ec6
 8001f3c:	eaa127fa 	.word	0xeaa127fa
 8001f40:	d4ef3085 	.word	0xd4ef3085
 8001f44:	04881d05 	.word	0x04881d05
 8001f48:	d9d4d039 	.word	0xd9d4d039
 8001f4c:	e6db99e5 	.word	0xe6db99e5
 8001f50:	1fa27cf8 	.word	0x1fa27cf8
 8001f54:	c4ac5665 	.word	0xc4ac5665
 8001f58:	f4292244 	.word	0xf4292244
 8001f5c:	432aff97 	.word	0x432aff97
 8001f60:	ab9423a7 	.word	0xab9423a7
 8001f64:	fc93a039 	.word	0xfc93a039
 8001f68:	655b59c3 	.word	0x655b59c3
 8001f6c:	8f0ccc92 	.word	0x8f0ccc92
 8001f70:	85845dd1 	.word	0x85845dd1
 8001f74:	6fa87e4f 	.word	0x6fa87e4f
 8001f78:	fe2ce6e0 	.word	0xfe2ce6e0
 8001f7c:	a3014314 	.word	0xa3014314
 8001f80:	4e0811a1 	.word	0x4e0811a1
 8001f84:	f7537e82 	.word	0xf7537e82
 8001f88:	bd3af235 	.word	0xbd3af235
 8001f8c:	2ad7d2bb 	.word	0x2ad7d2bb
 8001f90:	eb86d391 	.word	0xeb86d391

08001f94 <MD5Update>:
 8001f94:	e92d 43f8 	stmdb	sp!, {r3, r4, r5, r6, r7, r8, r9, lr}
 8001f98:	4604      	mov	r4, r0
 8001f9a:	4616      	mov	r6, r2
 8001f9c:	6803      	ldr	r3, [r0, #0]
 8001f9e:	00d2      	lsls	r2, r2, #3
 8001fa0:	f3c3 00c5 	ubfx	r0, r3, #3, #6
 8001fa4:	4413      	add	r3, r2
 8001fa6:	429a      	cmp	r2, r3
 8001fa8:	6023      	str	r3, [r4, #0]
 8001faa:	bf88      	it	hi
 8001fac:	6863      	ldrhi	r3, [r4, #4]
 8001fae:	f1c0 0540 	rsb	r5, r0, #64	; 0x40
 8001fb2:	bf84      	itt	hi
 8001fb4:	3301      	addhi	r3, #1
 8001fb6:	6063      	strhi	r3, [r4, #4]
 8001fb8:	6863      	ldr	r3, [r4, #4]
 8001fba:	42b5      	cmp	r5, r6
 8001fbc:	eb03 7356 	add.w	r3, r3, r6, lsr #29
 8001fc0:	460f      	mov	r7, r1
 8001fc2:	6063      	str	r3, [r4, #4]
 8001fc4:	d81e      	bhi.n	8002004 <MD5Update+0x70>
 8001fc6:	3018      	adds	r0, #24
 8001fc8:	462a      	mov	r2, r5
 8001fca:	4420      	add	r0, r4
 8001fcc:	f104 0908 	add.w	r9, r4, #8
 8001fd0:	f001 ffe3 	bl	8003f9a <memcpy>
 8001fd4:	f104 0118 	add.w	r1, r4, #24
 8001fd8:	4648      	mov	r0, r9
 8001fda:	f7ff fc95 	bl	8001908 <MD5Transform>
 8001fde:	f105 0840 	add.w	r8, r5, #64	; 0x40
 8001fe2:	4546      	cmp	r6, r8
 8001fe4:	d208      	bcs.n	8001ff8 <MD5Update+0x64>
 8001fe6:	2000      	movs	r0, #0
 8001fe8:	3018      	adds	r0, #24
 8001fea:	1b72      	subs	r2, r6, r5
 8001fec:	1979      	adds	r1, r7, r5
 8001fee:	4420      	add	r0, r4
 8001ff0:	e8bd 43f8 	ldmia.w	sp!, {r3, r4, r5, r6, r7, r8, r9, lr}
 8001ff4:	f001 bfd1 	b.w	8003f9a <memcpy>
 8001ff8:	1979      	adds	r1, r7, r5
 8001ffa:	4648      	mov	r0, r9
 8001ffc:	f7ff fc84 	bl	8001908 <MD5Transform>
 8002000:	4645      	mov	r5, r8
 8002002:	e7ec      	b.n	8001fde <MD5Update+0x4a>
 8002004:	2500      	movs	r5, #0
 8002006:	e7ef      	b.n	8001fe8 <MD5Update+0x54>

08002008 <MD5Final>:
 8002008:	b573      	push	{r0, r1, r4, r5, r6, lr}
 800200a:	4605      	mov	r5, r0
 800200c:	460e      	mov	r6, r1
 800200e:	6802      	ldr	r2, [r0, #0]
 8002010:	4601      	mov	r1, r0
 8002012:	f3c2 02c5 	ubfx	r2, r2, #3, #6
 8002016:	2a37      	cmp	r2, #55	; 0x37
 8002018:	bf94      	ite	ls
 800201a:	f1c2 0438 	rsbls	r4, r2, #56	; 0x38
 800201e:	f1c2 0478 	rsbhi	r4, r2, #120	; 0x78
 8002022:	4668      	mov	r0, sp
 8002024:	2208      	movs	r2, #8
 8002026:	f7ff fc3d 	bl	80018a4 <MD5Encode>
 800202a:	4622      	mov	r2, r4
 800202c:	4628      	mov	r0, r5
 800202e:	4908      	ldr	r1, [pc, #32]	; (8002050 <MD5Final+0x48>)
 8002030:	f7ff ffb0 	bl	8001f94 <MD5Update>
 8002034:	4669      	mov	r1, sp
 8002036:	4628      	mov	r0, r5
 8002038:	2208      	movs	r2, #8
 800203a:	f7ff ffab 	bl	8001f94 <MD5Update>
 800203e:	2210      	movs	r2, #16
 8002040:	f105 0108 	add.w	r1, r5, #8
 8002044:	4630      	mov	r0, r6
 8002046:	f7ff fc2d 	bl	80018a4 <MD5Encode>
 800204a:	b002      	add	sp, #8
 800204c:	bd70      	pop	{r4, r5, r6, pc}
 800204e:	bf00      	nop
 8002050:	20000004 	.word	0x20000004

08002054 <getMD5Str>:
 8002054:	b5f0      	push	{r4, r5, r6, r7, lr}
 8002056:	b09d      	sub	sp, #116	; 0x74
 8002058:	4607      	mov	r7, r0
 800205a:	a806      	add	r0, sp, #24
 800205c:	f7ff fc0c 	bl	8001878 <MD5Init>
 8002060:	a806      	add	r0, sp, #24
 8002062:	f7ff ff97 	bl	8001f94 <MD5Update>
 8002066:	a902      	add	r1, sp, #8
 8002068:	a806      	add	r0, sp, #24
 800206a:	f7ff ffcd 	bl	8002008 <MD5Final>
 800206e:	480f      	ldr	r0, [pc, #60]	; (80020ac <getMD5Str+0x58>)
 8002070:	f001 ffa6 	bl	8003fc0 <printf>
 8002074:	4d0e      	ldr	r5, [pc, #56]	; (80020b0 <getMD5Str+0x5c>)
 8002076:	f10d 0407 	add.w	r4, sp, #7
 800207a:	f10d 0617 	add.w	r6, sp, #23
 800207e:	7861      	ldrb	r1, [r4, #1]
 8002080:	4628      	mov	r0, r5
 8002082:	f001 ff9d 	bl	8003fc0 <printf>
 8002086:	f814 2f01 	ldrb.w	r2, [r4, #1]!
 800208a:	4629      	mov	r1, r5
 800208c:	a801      	add	r0, sp, #4
 800208e:	f002 f817 	bl	80040c0 <sprintf>
 8002092:	2202      	movs	r2, #2
 8002094:	a901      	add	r1, sp, #4
 8002096:	4638      	mov	r0, r7
 8002098:	f002 f85b 	bl	8004152 <strncat>
 800209c:	42b4      	cmp	r4, r6
 800209e:	d1ee      	bne.n	800207e <getMD5Str+0x2a>
 80020a0:	4804      	ldr	r0, [pc, #16]	; (80020b4 <getMD5Str+0x60>)
 80020a2:	f002 f805 	bl	80040b0 <puts>
 80020a6:	b01d      	add	sp, #116	; 0x74
 80020a8:	bdf0      	pop	{r4, r5, r6, r7, pc}
 80020aa:	bf00      	nop
 80020ac:	08009056 	.word	0x08009056
 80020b0:	08009062 	.word	0x08009062
 80020b4:	0800929b 	.word	0x0800929b

080020b8 <Wifi_USART_printf>:
 80020b8:	b40e      	push	{r1, r2, r3}
 80020ba:	b5f0      	push	{r4, r5, r6, r7, lr}
 80020bc:	4605      	mov	r5, r0
 80020be:	b086      	sub	sp, #24
 80020c0:	ab0b      	add	r3, sp, #44	; 0x2c
 80020c2:	f853 4b04 	ldr.w	r4, [r3], #4
 80020c6:	9301      	str	r3, [sp, #4]
 80020c8:	7821      	ldrb	r1, [r4, #0]
 80020ca:	b921      	cbnz	r1, 80020d6 <Wifi_USART_printf+0x1e>
 80020cc:	b006      	add	sp, #24
 80020ce:	e8bd 40f0 	ldmia.w	sp!, {r4, r5, r6, r7, lr}
 80020d2:	b003      	add	sp, #12
 80020d4:	4770      	bx	lr
 80020d6:	295c      	cmp	r1, #92	; 0x5c
 80020d8:	d10c      	bne.n	80020f4 <Wifi_USART_printf+0x3c>
 80020da:	7863      	ldrb	r3, [r4, #1]
 80020dc:	3402      	adds	r4, #2
 80020de:	2b6e      	cmp	r3, #110	; 0x6e
 80020e0:	d006      	beq.n	80020f0 <Wifi_USART_printf+0x38>
 80020e2:	2b72      	cmp	r3, #114	; 0x72
 80020e4:	d116      	bne.n	8002114 <Wifi_USART_printf+0x5c>
 80020e6:	210d      	movs	r1, #13
 80020e8:	4628      	mov	r0, r5
 80020ea:	f001 fc07 	bl	80038fc <USART_SendData>
 80020ee:	e011      	b.n	8002114 <Wifi_USART_printf+0x5c>
 80020f0:	210a      	movs	r1, #10
 80020f2:	e7f9      	b.n	80020e8 <Wifi_USART_printf+0x30>
 80020f4:	2925      	cmp	r1, #37	; 0x25
 80020f6:	d15b      	bne.n	80021b0 <Wifi_USART_printf+0xf8>
 80020f8:	7863      	ldrb	r3, [r4, #1]
 80020fa:	2b64      	cmp	r3, #100	; 0x64
 80020fc:	d01b      	beq.n	8002136 <Wifi_USART_printf+0x7e>
 80020fe:	2b73      	cmp	r3, #115	; 0x73
 8002100:	d107      	bne.n	8002112 <Wifi_USART_printf+0x5a>
 8002102:	9b01      	ldr	r3, [sp, #4]
 8002104:	681e      	ldr	r6, [r3, #0]
 8002106:	1d1a      	adds	r2, r3, #4
 8002108:	9201      	str	r2, [sp, #4]
 800210a:	3e01      	subs	r6, #1
 800210c:	f816 1f01 	ldrb.w	r1, [r6, #1]!
 8002110:	b939      	cbnz	r1, 8002122 <Wifi_USART_printf+0x6a>
 8002112:	3402      	adds	r4, #2
 8002114:	2180      	movs	r1, #128	; 0x80
 8002116:	4628      	mov	r0, r5
 8002118:	f001 fbf8 	bl	800390c <USART_GetFlagStatus>
 800211c:	2800      	cmp	r0, #0
 800211e:	d0f9      	beq.n	8002114 <Wifi_USART_printf+0x5c>
 8002120:	e7d2      	b.n	80020c8 <Wifi_USART_printf+0x10>
 8002122:	4628      	mov	r0, r5
 8002124:	f001 fbea 	bl	80038fc <USART_SendData>
 8002128:	2180      	movs	r1, #128	; 0x80
 800212a:	4628      	mov	r0, r5
 800212c:	f001 fbee 	bl	800390c <USART_GetFlagStatus>
 8002130:	2800      	cmp	r0, #0
 8002132:	d0f9      	beq.n	8002128 <Wifi_USART_printf+0x70>
 8002134:	e7ea      	b.n	800210c <Wifi_USART_printf+0x54>
 8002136:	9b01      	ldr	r3, [sp, #4]
 8002138:	1d1a      	adds	r2, r3, #4
 800213a:	681b      	ldr	r3, [r3, #0]
 800213c:	9201      	str	r2, [sp, #4]
 800213e:	2b00      	cmp	r3, #0
 8002140:	d114      	bne.n	800216c <Wifi_USART_printf+0xb4>
 8002142:	2230      	movs	r2, #48	; 0x30
 8002144:	f88d 3009 	strb.w	r3, [sp, #9]
 8002148:	f88d 2008 	strb.w	r2, [sp, #8]
 800214c:	f10d 0607 	add.w	r6, sp, #7
 8002150:	f816 1f01 	ldrb.w	r1, [r6, #1]!
 8002154:	2900      	cmp	r1, #0
 8002156:	d0dc      	beq.n	8002112 <Wifi_USART_printf+0x5a>
 8002158:	4628      	mov	r0, r5
 800215a:	f001 fbcf 	bl	80038fc <USART_SendData>
 800215e:	2180      	movs	r1, #128	; 0x80
 8002160:	4628      	mov	r0, r5
 8002162:	f001 fbd3 	bl	800390c <USART_GetFlagStatus>
 8002166:	2800      	cmp	r0, #0
 8002168:	d0f9      	beq.n	800215e <Wifi_USART_printf+0xa6>
 800216a:	e7f1      	b.n	8002150 <Wifi_USART_printf+0x98>
 800216c:	bfb8      	it	lt
 800216e:	222d      	movlt	r2, #45	; 0x2d
 8002170:	f04f 0105 	mov.w	r1, #5
 8002174:	f04f 0700 	mov.w	r7, #0
 8002178:	f242 7010 	movw	r0, #10000	; 0x2710
 800217c:	f04f 0e0a 	mov.w	lr, #10
 8002180:	bfbd      	ittte	lt
 8002182:	f88d 2008 	strblt.w	r2, [sp, #8]
 8002186:	425b      	neglt	r3, r3
 8002188:	f10d 0209 	addlt.w	r2, sp, #9
 800218c:	aa02      	addge	r2, sp, #8
 800218e:	fb93 f6f0 	sdiv	r6, r3, r0
 8002192:	b906      	cbnz	r6, 8002196 <Wifi_USART_printf+0xde>
 8002194:	b137      	cbz	r7, 80021a4 <Wifi_USART_printf+0xec>
 8002196:	f106 0730 	add.w	r7, r6, #48	; 0x30
 800219a:	7017      	strb	r7, [r2, #0]
 800219c:	2701      	movs	r7, #1
 800219e:	fb00 3316 	mls	r3, r0, r6, r3
 80021a2:	3201      	adds	r2, #1
 80021a4:	3901      	subs	r1, #1
 80021a6:	fb90 f0fe 	sdiv	r0, r0, lr
 80021aa:	d1f0      	bne.n	800218e <Wifi_USART_printf+0xd6>
 80021ac:	7011      	strb	r1, [r2, #0]
 80021ae:	e7cd      	b.n	800214c <Wifi_USART_printf+0x94>
 80021b0:	3401      	adds	r4, #1
 80021b2:	e799      	b.n	80020e8 <Wifi_USART_printf+0x30>

080021b4 <Int2Str>:
 80021b4:	220a      	movs	r2, #10
 80021b6:	2300      	movs	r3, #0
 80021b8:	b5f0      	push	{r4, r5, r6, r7, lr}
 80021ba:	461c      	mov	r4, r3
 80021bc:	4696      	mov	lr, r2
 80021be:	4d0b      	ldr	r5, [pc, #44]	; (80021ec <Int2Str+0x38>)
 80021c0:	fbb1 f7f5 	udiv	r7, r1, r5
 80021c4:	f107 0630 	add.w	r6, r7, #48	; 0x30
 80021c8:	b2f6      	uxtb	r6, r6
 80021ca:	2e30      	cmp	r6, #48	; 0x30
 80021cc:	fb05 1117 	mls	r1, r5, r7, r1
 80021d0:	5506      	strb	r6, [r0, r4]
 80021d2:	fbb5 f5fe 	udiv	r5, r5, lr
 80021d6:	d100      	bne.n	80021da <Int2Str+0x26>
 80021d8:	b123      	cbz	r3, 80021e4 <Int2Str+0x30>
 80021da:	3401      	adds	r4, #1
 80021dc:	3301      	adds	r3, #1
 80021de:	3a01      	subs	r2, #1
 80021e0:	d1ee      	bne.n	80021c0 <Int2Str+0xc>
 80021e2:	bdf0      	pop	{r4, r5, r6, r7, pc}
 80021e4:	2300      	movs	r3, #0
 80021e6:	461c      	mov	r4, r3
 80021e8:	e7f9      	b.n	80021de <Int2Str+0x2a>
 80021ea:	bf00      	nop
 80021ec:	3b9aca00 	.word	0x3b9aca00

080021f0 <FLASH_PagesMask>:
 80021f0:	b082      	sub	sp, #8
 80021f2:	9001      	str	r0, [sp, #4]
 80021f4:	9801      	ldr	r0, [sp, #4]
 80021f6:	f3c0 030a 	ubfx	r3, r0, #0, #11
 80021fa:	0ac0      	lsrs	r0, r0, #11
 80021fc:	b103      	cbz	r3, 8002200 <FLASH_PagesMask+0x10>
 80021fe:	3001      	adds	r0, #1
 8002200:	b002      	add	sp, #8
 8002202:	4770      	bx	lr

08002204 <EraseSomePages>:
 8002204:	e92d 41ff 	stmdb	sp!, {r0, r1, r2, r3, r4, r5, r6, r7, r8, lr}
 8002208:	2400      	movs	r4, #0
 800220a:	9001      	str	r0, [sp, #4]
 800220c:	9801      	ldr	r0, [sp, #4]
 800220e:	460f      	mov	r7, r1
 8002210:	f8ad 400c 	strh.w	r4, [sp, #12]
 8002214:	f88d 400e 	strb.w	r4, [sp, #14]
 8002218:	f7ff ffea 	bl	80021f0 <FLASH_PagesMask>
 800221c:	2504      	movs	r5, #4
 800221e:	1e46      	subs	r6, r0, #1
 8002220:	f000 fe6a 	bl	8002ef8 <FLASH_Unlock>
 8002224:	f8df 8048 	ldr.w	r8, [pc, #72]	; 8002270 <EraseSomePages+0x6c>
 8002228:	42b4      	cmp	r4, r6
 800222a:	d309      	bcc.n	8002240 <EraseSomePages+0x3c>
 800222c:	f000 fe6e 	bl	8002f0c <FLASH_Lock>
 8002230:	42b4      	cmp	r4, r6
 8002232:	d11b      	bne.n	800226c <EraseSomePages+0x68>
 8002234:	1f2b      	subs	r3, r5, #4
 8002236:	4258      	negs	r0, r3
 8002238:	4158      	adcs	r0, r3
 800223a:	b004      	add	sp, #16
 800223c:	e8bd 81f0 	ldmia.w	sp!, {r4, r5, r6, r7, r8, pc}
 8002240:	2d04      	cmp	r5, #4
 8002242:	d1f3      	bne.n	800222c <EraseSomePages+0x28>
 8002244:	f504 3080 	add.w	r0, r4, #65536	; 0x10000
 8002248:	3020      	adds	r0, #32
 800224a:	02c0      	lsls	r0, r0, #11
 800224c:	f000 ffa6 	bl	800319c <FLASH_ErasePage>
 8002250:	2f01      	cmp	r7, #1
 8002252:	4605      	mov	r5, r0
 8002254:	f104 0401 	add.w	r4, r4, #1
 8002258:	d1e6      	bne.n	8002228 <EraseSomePages+0x24>
 800225a:	4621      	mov	r1, r4
 800225c:	a803      	add	r0, sp, #12
 800225e:	f7ff ffa9 	bl	80021b4 <Int2Str>
 8002262:	a903      	add	r1, sp, #12
 8002264:	4640      	mov	r0, r8
 8002266:	f001 feab 	bl	8003fc0 <printf>
 800226a:	e7dd      	b.n	8002228 <EraseSomePages+0x24>
 800226c:	2000      	movs	r0, #0
 800226e:	e7e4      	b.n	800223a <EraseSomePages+0x36>
 8002270:	08009067 	.word	0x08009067

08002274 <NVIC_SystemReset>:
 8002274:	f3bf 8f4f 	dsb	sy
 8002278:	4904      	ldr	r1, [pc, #16]	; (800228c <NVIC_SystemReset+0x18>)
 800227a:	4b05      	ldr	r3, [pc, #20]	; (8002290 <NVIC_SystemReset+0x1c>)
 800227c:	68ca      	ldr	r2, [r1, #12]
 800227e:	f402 62e0 	and.w	r2, r2, #1792	; 0x700
 8002282:	4313      	orrs	r3, r2
 8002284:	60cb      	str	r3, [r1, #12]
 8002286:	f3bf 8f4f 	dsb	sy
 800228a:	e7fe      	b.n	800228a <NVIC_SystemReset+0x16>
 800228c:	e000ed00 	.word	0xe000ed00
 8002290:	05fa0004 	.word	0x05fa0004

08002294 <communicateWithHost>:
 8002294:	b5f0      	push	{r4, r5, r6, r7, lr}
 8002296:	460d      	mov	r5, r1
 8002298:	4616      	mov	r6, r2
 800229a:	461f      	mov	r7, r3
 800229c:	4604      	mov	r4, r0
 800229e:	b089      	sub	sp, #36	; 0x24
 80022a0:	f7fe ff08 	bl	80010b4 <ReadDeviceID>
 80022a4:	9b12      	ldr	r3, [sp, #72]	; 0x48
 80022a6:	e88d 00c0 	stmia.w	sp, {r6, r7}
 80022aa:	9306      	str	r3, [sp, #24]
 80022ac:	9b11      	ldr	r3, [sp, #68]	; 0x44
 80022ae:	4a07      	ldr	r2, [pc, #28]	; (80022cc <communicateWithHost+0x38>)
 80022b0:	9305      	str	r3, [sp, #20]
 80022b2:	9b10      	ldr	r3, [sp, #64]	; 0x40
 80022b4:	4906      	ldr	r1, [pc, #24]	; (80022d0 <communicateWithHost+0x3c>)
 80022b6:	9304      	str	r3, [sp, #16]
 80022b8:	9b0f      	ldr	r3, [sp, #60]	; 0x3c
 80022ba:	4620      	mov	r0, r4
 80022bc:	9303      	str	r3, [sp, #12]
 80022be:	9b0e      	ldr	r3, [sp, #56]	; 0x38
 80022c0:	9302      	str	r3, [sp, #8]
 80022c2:	462b      	mov	r3, r5
 80022c4:	f001 fefc 	bl	80040c0 <sprintf>
 80022c8:	b009      	add	sp, #36	; 0x24
 80022ca:	bdf0      	pop	{r4, r5, r6, r7, pc}
 80022cc:	200022ac 	.word	0x200022ac
 80022d0:	0800929d 	.word	0x0800929d

080022d4 <catRequestStr>:
 80022d4:	b530      	push	{r4, r5, lr}
 80022d6:	460d      	mov	r5, r1
 80022d8:	4604      	mov	r4, r0
 80022da:	b087      	sub	sp, #28
 80022dc:	f7fe fefe 	bl	80010dc <ReadVersion>
 80022e0:	4a0b      	ldr	r2, [pc, #44]	; (8002310 <catRequestStr+0x3c>)
 80022e2:	490c      	ldr	r1, [pc, #48]	; (8002314 <catRequestStr+0x40>)
 80022e4:	f892 3a3c 	ldrb.w	r3, [r2, #2620]	; 0xa3c
 80022e8:	9104      	str	r1, [sp, #16]
 80022ea:	f602 2118 	addw	r1, r2, #2584	; 0xa18
 80022ee:	9103      	str	r1, [sp, #12]
 80022f0:	f602 210c 	addw	r1, r2, #2572	; 0xa0c
 80022f4:	9102      	str	r1, [sp, #8]
 80022f6:	4908      	ldr	r1, [pc, #32]	; (8002318 <catRequestStr+0x44>)
 80022f8:	f602 2224 	addw	r2, r2, #2596	; 0xa24
 80022fc:	9101      	str	r1, [sp, #4]
 80022fe:	4907      	ldr	r1, [pc, #28]	; (800231c <catRequestStr+0x48>)
 8002300:	4620      	mov	r0, r4
 8002302:	9100      	str	r1, [sp, #0]
 8002304:	4629      	mov	r1, r5
 8002306:	f7ff ffc5 	bl	8002294 <communicateWithHost>
 800230a:	b007      	add	sp, #28
 800230c:	bd30      	pop	{r4, r5, pc}
 800230e:	bf00      	nop
 8002310:	200006f0 	.word	0x200006f0
 8002314:	080091f5 	.word	0x080091f5
 8002318:	20002298 	.word	0x20002298
 800231c:	080091f9 	.word	0x080091f9

08002320 <catReqStr4UPdate>:
 8002320:	b573      	push	{r0, r1, r4, r5, r6, lr}
 8002322:	460d      	mov	r5, r1
 8002324:	4616      	mov	r6, r2
 8002326:	4604      	mov	r4, r0
 8002328:	f7fe fec4 	bl	80010b4 <ReadDeviceID>
 800232c:	9600      	str	r6, [sp, #0]
 800232e:	462b      	mov	r3, r5
 8002330:	4a03      	ldr	r2, [pc, #12]	; (8002340 <catReqStr4UPdate+0x20>)
 8002332:	4904      	ldr	r1, [pc, #16]	; (8002344 <catReqStr4UPdate+0x24>)
 8002334:	4620      	mov	r0, r4
 8002336:	f001 fec3 	bl	80040c0 <sprintf>
 800233a:	b002      	add	sp, #8
 800233c:	bd70      	pop	{r4, r5, r6, pc}
 800233e:	bf00      	nop
 8002340:	200022ac 	.word	0x200022ac
 8002344:	080091ec 	.word	0x080091ec

08002348 <request>:
 8002348:	b510      	push	{r4, lr}
 800234a:	460c      	mov	r4, r1
 800234c:	b0a0      	sub	sp, #128	; 0x80
 800234e:	4601      	mov	r1, r0
 8002350:	4668      	mov	r0, sp
 8002352:	f7ff ffbf 	bl	80022d4 <catRequestStr>
 8002356:	0723      	lsls	r3, r4, #28
 8002358:	d002      	beq.n	8002360 <request+0x18>
 800235a:	4668      	mov	r0, sp
 800235c:	f7ff f9d2 	bl	8001704 <request2Server>
 8002360:	f014 0ff0 	tst.w	r4, #240	; 0xf0
 8002364:	d008      	beq.n	8002378 <request+0x30>
 8002366:	4905      	ldr	r1, [pc, #20]	; (800237c <request+0x34>)
 8002368:	466a      	mov	r2, sp
 800236a:	4805      	ldr	r0, [pc, #20]	; (8002380 <request+0x38>)
 800236c:	f001 fea8 	bl	80040c0 <sprintf>
 8002370:	4903      	ldr	r1, [pc, #12]	; (8002380 <request+0x38>)
 8002372:	4804      	ldr	r0, [pc, #16]	; (8002384 <request+0x3c>)
 8002374:	f001 fe24 	bl	8003fc0 <printf>
 8002378:	b020      	add	sp, #128	; 0x80
 800237a:	bd10      	pop	{r4, pc}
 800237c:	080092b8 	.word	0x080092b8
 8002380:	200011c5 	.word	0x200011c5
 8002384:	08009128 	.word	0x08009128

08002388 <request4UPdate>:
 8002388:	b510      	push	{r4, lr}
 800238a:	4614      	mov	r4, r2
 800238c:	b0a0      	sub	sp, #128	; 0x80
 800238e:	460a      	mov	r2, r1
 8002390:	4601      	mov	r1, r0
 8002392:	4668      	mov	r0, sp
 8002394:	f7ff ffc4 	bl	8002320 <catReqStr4UPdate>
 8002398:	0723      	lsls	r3, r4, #28
 800239a:	d002      	beq.n	80023a2 <request4UPdate+0x1a>
 800239c:	4668      	mov	r0, sp
 800239e:	f7ff f9b1 	bl	8001704 <request2Server>
 80023a2:	f014 0ff0 	tst.w	r4, #240	; 0xf0
 80023a6:	d008      	beq.n	80023ba <request4UPdate+0x32>
 80023a8:	4905      	ldr	r1, [pc, #20]	; (80023c0 <request4UPdate+0x38>)
 80023aa:	466a      	mov	r2, sp
 80023ac:	4805      	ldr	r0, [pc, #20]	; (80023c4 <request4UPdate+0x3c>)
 80023ae:	f001 fe87 	bl	80040c0 <sprintf>
 80023b2:	4904      	ldr	r1, [pc, #16]	; (80023c4 <request4UPdate+0x3c>)
 80023b4:	4804      	ldr	r0, [pc, #16]	; (80023c8 <request4UPdate+0x40>)
 80023b6:	f001 fe03 	bl	8003fc0 <printf>
 80023ba:	b020      	add	sp, #128	; 0x80
 80023bc:	bd10      	pop	{r4, pc}
 80023be:	bf00      	nop
 80023c0:	080092b8 	.word	0x080092b8
 80023c4:	200011c5 	.word	0x200011c5
 80023c8:	08009128 	.word	0x08009128

080023cc <request4UPdataComplete>:
 80023cc:	b510      	push	{r4, lr}
 80023ce:	4604      	mov	r4, r0
 80023d0:	b0a2      	sub	sp, #136	; 0x88
 80023d2:	f7fe fe83 	bl	80010dc <ReadVersion>
 80023d6:	f7fe fe6d 	bl	80010b4 <ReadDeviceID>
 80023da:	4b0d      	ldr	r3, [pc, #52]	; (8002410 <request4UPdataComplete+0x44>)
 80023dc:	4a0d      	ldr	r2, [pc, #52]	; (8002414 <request4UPdataComplete+0x48>)
 80023de:	9300      	str	r3, [sp, #0]
 80023e0:	490d      	ldr	r1, [pc, #52]	; (8002418 <request4UPdataComplete+0x4c>)
 80023e2:	4b0e      	ldr	r3, [pc, #56]	; (800241c <request4UPdataComplete+0x50>)
 80023e4:	a802      	add	r0, sp, #8
 80023e6:	f001 fe6b 	bl	80040c0 <sprintf>
 80023ea:	0723      	lsls	r3, r4, #28
 80023ec:	d002      	beq.n	80023f4 <request4UPdataComplete+0x28>
 80023ee:	a802      	add	r0, sp, #8
 80023f0:	f7ff f988 	bl	8001704 <request2Server>
 80023f4:	f014 0ff0 	tst.w	r4, #240	; 0xf0
 80023f8:	d008      	beq.n	800240c <request4UPdataComplete+0x40>
 80023fa:	4909      	ldr	r1, [pc, #36]	; (8002420 <request4UPdataComplete+0x54>)
 80023fc:	aa02      	add	r2, sp, #8
 80023fe:	4809      	ldr	r0, [pc, #36]	; (8002424 <request4UPdataComplete+0x58>)
 8002400:	f001 fe5e 	bl	80040c0 <sprintf>
 8002404:	4907      	ldr	r1, [pc, #28]	; (8002424 <request4UPdataComplete+0x58>)
 8002406:	4808      	ldr	r0, [pc, #32]	; (8002428 <request4UPdataComplete+0x5c>)
 8002408:	f001 fdda 	bl	8003fc0 <printf>
 800240c:	b022      	add	sp, #136	; 0x88
 800240e:	bd10      	pop	{r4, pc}
 8002410:	20002298 	.word	0x20002298
 8002414:	200022ac 	.word	0x200022ac
 8002418:	080092c0 	.word	0x080092c0
 800241c:	080092bd 	.word	0x080092bd
 8002420:	080092b8 	.word	0x080092b8
 8002424:	200011c5 	.word	0x200011c5
 8002428:	08009128 	.word	0x08009128

0800242c <IAP_WriteFlag>:
 800242c:	b513      	push	{r0, r1, r4, lr}
 800242e:	ac02      	add	r4, sp, #8
 8002430:	f824 0d02 	strh.w	r0, [r4, #-2]!
 8002434:	f000 fd60 	bl	8002ef8 <FLASH_Unlock>
 8002438:	2201      	movs	r2, #1
 800243a:	4621      	mov	r1, r4
 800243c:	4803      	ldr	r0, [pc, #12]	; (800244c <IAP_WriteFlag+0x20>)
 800243e:	f7fe fdcb 	bl	8000fd8 <STMFLASH_Write>
 8002442:	f000 fd63 	bl	8002f0c <FLASH_Lock>
 8002446:	b002      	add	sp, #8
 8002448:	bd10      	pop	{r4, pc}
 800244a:	bf00      	nop
 800244c:	0803f800 	.word	0x0803f800

08002450 <IAP_ReadFlag>:
 8002450:	4801      	ldr	r0, [pc, #4]	; (8002458 <IAP_ReadFlag+0x8>)
 8002452:	f7fe bda5 	b.w	8000fa0 <STMFLASH_ReadHalfWord>
 8002456:	bf00      	nop
 8002458:	0803f800 	.word	0x0803f800

0800245c <IAP_USART_Init>:
 800245c:	b508      	push	{r3, lr}
 800245e:	4804      	ldr	r0, [pc, #16]	; (8002470 <IAP_USART_Init+0x14>)
 8002460:	f001 f984 	bl	800376c <USART_DeInit>
 8002464:	e8bd 4008 	ldmia.w	sp!, {r3, lr}
 8002468:	f44f 30e1 	mov.w	r0, #115200	; 0x1c200
 800246c:	f001 baaa 	b.w	80039c4 <USART1_Init>
 8002470:	40013800 	.word	0x40013800

08002474 <IAP_Init>:
 8002474:	b508      	push	{r3, lr}
 8002476:	f7ff fff1 	bl	800245c <IAP_USART_Init>
 800247a:	f7fe fe1b 	bl	80010b4 <ReadDeviceID>
 800247e:	4b07      	ldr	r3, [pc, #28]	; (800249c <IAP_Init+0x28>)
 8002480:	781b      	ldrb	r3, [r3, #0]
 8002482:	2b50      	cmp	r3, #80	; 0x50
 8002484:	d009      	beq.n	800249a <IAP_Init+0x26>
 8002486:	f7ff ffe3 	bl	8002450 <IAP_ReadFlag>
 800248a:	4b05      	ldr	r3, [pc, #20]	; (80024a0 <IAP_Init+0x2c>)
 800248c:	8018      	strh	r0, [r3, #0]
 800248e:	f64e 50ed 	movw	r0, #60909	; 0xeded
 8002492:	e8bd 4008 	ldmia.w	sp!, {r3, lr}
 8002496:	f7ff bfc9 	b.w	800242c <IAP_WriteFlag>
 800249a:	bd08      	pop	{r3, pc}
 800249c:	200022ac 	.word	0x200022ac
 80024a0:	20001140 	.word	0x20001140

080024a4 <IAP_RunApp>:
 80024a4:	b510      	push	{r4, lr}
 80024a6:	4c15      	ldr	r4, [pc, #84]	; (80024fc <IAP_RunApp+0x58>)
 80024a8:	4b15      	ldr	r3, [pc, #84]	; (8002500 <IAP_RunApp+0x5c>)
 80024aa:	6822      	ldr	r2, [r4, #0]
 80024ac:	4013      	ands	r3, r2
 80024ae:	f1b3 5f00 	cmp.w	r3, #536870912	; 0x20000000
 80024b2:	d11d      	bne.n	80024f0 <IAP_RunApp+0x4c>
 80024b4:	4813      	ldr	r0, [pc, #76]	; (8002504 <IAP_RunApp+0x60>)
 80024b6:	f001 fdfb 	bl	80040b0 <puts>
 80024ba:	f000 ff15 	bl	80032e8 <RCC_DeInit>
 80024be:	b672      	cpsid	i
 80024c0:	2100      	movs	r1, #0
 80024c2:	4811      	ldr	r0, [pc, #68]	; (8002508 <IAP_RunApp+0x64>)
 80024c4:	f001 f92c 	bl	8003720 <TIM_Cmd>
 80024c8:	2100      	movs	r1, #0
 80024ca:	4810      	ldr	r0, [pc, #64]	; (800250c <IAP_RunApp+0x68>)
 80024cc:	f001 f9f2 	bl	80038b4 <USART_Cmd>
 80024d0:	2100      	movs	r1, #0
 80024d2:	480f      	ldr	r0, [pc, #60]	; (8002510 <IAP_RunApp+0x6c>)
 80024d4:	f001 f9ee 	bl	80038b4 <USART_Cmd>
 80024d8:	4b0e      	ldr	r3, [pc, #56]	; (8002514 <IAP_RunApp+0x70>)
 80024da:	4a0f      	ldr	r2, [pc, #60]	; (8002518 <IAP_RunApp+0x74>)
 80024dc:	681b      	ldr	r3, [r3, #0]
 80024de:	6013      	str	r3, [r2, #0]
 80024e0:	4a0e      	ldr	r2, [pc, #56]	; (800251c <IAP_RunApp+0x78>)
 80024e2:	6013      	str	r3, [r2, #0]
 80024e4:	6822      	ldr	r2, [r4, #0]
 80024e6:	f382 8808 	msr	MSP, r2
 80024ea:	4798      	blx	r3
 80024ec:	2000      	movs	r0, #0
 80024ee:	bd10      	pop	{r4, pc}
 80024f0:	480b      	ldr	r0, [pc, #44]	; (8002520 <IAP_RunApp+0x7c>)
 80024f2:	f001 fddd 	bl	80040b0 <puts>
 80024f6:	20ff      	movs	r0, #255	; 0xff
 80024f8:	bd10      	pop	{r4, pc}
 80024fa:	bf00      	nop
 80024fc:	08010000 	.word	0x08010000
 8002500:	2ffe0000 	.word	0x2ffe0000
 8002504:	080090c9 	.word	0x080090c9
 8002508:	40000800 	.word	0x40000800
 800250c:	40013800 	.word	0x40013800
 8002510:	40004400 	.word	0x40004400
 8002514:	08010004 	.word	0x08010004
 8002518:	2000231c 	.word	0x2000231c
 800251c:	20002320 	.word	0x20002320
 8002520:	080090d8 	.word	0x080090d8

08002524 <check_response>:
 8002524:	b570      	push	{r4, r5, r6, lr}
 8002526:	2202      	movs	r2, #2
 8002528:	4957      	ldr	r1, [pc, #348]	; (8002688 <check_response+0x164>)
 800252a:	4605      	mov	r5, r0
 800252c:	f001 fd26 	bl	8003f7c <memcmp>
 8002530:	b928      	cbnz	r0, 800253e <check_response+0x1a>
 8002532:	f64e 60ee 	movw	r0, #61166	; 0xeeee
 8002536:	f7ff ff79 	bl	800242c <IAP_WriteFlag>
 800253a:	2001      	movs	r0, #1
 800253c:	bd70      	pop	{r4, r5, r6, pc}
 800253e:	2202      	movs	r2, #2
 8002540:	4952      	ldr	r1, [pc, #328]	; (800268c <check_response+0x168>)
 8002542:	4628      	mov	r0, r5
 8002544:	f001 fd1a 	bl	8003f7c <memcmp>
 8002548:	b910      	cbnz	r0, 8002550 <check_response+0x2c>
 800254a:	f64d 50dd 	movw	r0, #56797	; 0xdddd
 800254e:	e7f2      	b.n	8002536 <check_response+0x12>
 8002550:	2202      	movs	r2, #2
 8002552:	494f      	ldr	r1, [pc, #316]	; (8002690 <check_response+0x16c>)
 8002554:	4628      	mov	r0, r5
 8002556:	f001 fd11 	bl	8003f7c <memcmp>
 800255a:	b910      	cbnz	r0, 8002562 <check_response+0x3e>
 800255c:	f64c 40cc 	movw	r0, #52428	; 0xcccc
 8002560:	e7e9      	b.n	8002536 <check_response+0x12>
 8002562:	2202      	movs	r2, #2
 8002564:	494b      	ldr	r1, [pc, #300]	; (8002694 <check_response+0x170>)
 8002566:	4628      	mov	r0, r5
 8002568:	f001 fd08 	bl	8003f7c <memcmp>
 800256c:	b928      	cbnz	r0, 800257a <check_response+0x56>
 800256e:	f64f 70ff 	movw	r0, #65535	; 0xffff
 8002572:	f7ff ff5b 	bl	800242c <IAP_WriteFlag>
 8002576:	f7ff fe7d 	bl	8002274 <NVIC_SystemReset>
 800257a:	2202      	movs	r2, #2
 800257c:	4946      	ldr	r1, [pc, #280]	; (8002698 <check_response+0x174>)
 800257e:	4628      	mov	r0, r5
 8002580:	f001 fcfc 	bl	8003f7c <memcmp>
 8002584:	4604      	mov	r4, r0
 8002586:	bb28      	cbnz	r0, 80025d4 <check_response+0xb0>
 8002588:	4b44      	ldr	r3, [pc, #272]	; (800269c <check_response+0x178>)
 800258a:	781b      	ldrb	r3, [r3, #0]
 800258c:	2b0f      	cmp	r3, #15
 800258e:	d119      	bne.n	80025c4 <check_response+0xa0>
 8002590:	4943      	ldr	r1, [pc, #268]	; (80026a0 <check_response+0x17c>)
 8002592:	4844      	ldr	r0, [pc, #272]	; (80026a4 <check_response+0x180>)
 8002594:	f001 fd14 	bl	8003fc0 <printf>
 8002598:	4841      	ldr	r0, [pc, #260]	; (80026a0 <check_response+0x17c>)
 800259a:	f7fe fda9 	bl	80010f0 <WriteAPPServer>
 800259e:	f7fe ff55 	bl	800144c <F4G_ExitUnvarnishSend>
 80025a2:	f44f 73fa 	mov.w	r3, #500	; 0x1f4
 80025a6:	4622      	mov	r2, r4
 80025a8:	493f      	ldr	r1, [pc, #252]	; (80026a8 <check_response+0x184>)
 80025aa:	4840      	ldr	r0, [pc, #256]	; (80026ac <check_response+0x188>)
 80025ac:	f7fe fe90 	bl	80012d0 <Send_AT_Cmd>
 80025b0:	f44f 73fa 	mov.w	r3, #500	; 0x1f4
 80025b4:	4622      	mov	r2, r4
 80025b6:	493c      	ldr	r1, [pc, #240]	; (80026a8 <check_response+0x184>)
 80025b8:	483d      	ldr	r0, [pc, #244]	; (80026b0 <check_response+0x18c>)
 80025ba:	f7fe fe89 	bl	80012d0 <Send_AT_Cmd>
 80025be:	f645 205a 	movw	r0, #23130	; 0x5a5a
 80025c2:	e7b8      	b.n	8002536 <check_response+0x12>
 80025c4:	493b      	ldr	r1, [pc, #236]	; (80026b4 <check_response+0x190>)
 80025c6:	483c      	ldr	r0, [pc, #240]	; (80026b8 <check_response+0x194>)
 80025c8:	f001 fcfa 	bl	8003fc0 <printf>
 80025cc:	4839      	ldr	r0, [pc, #228]	; (80026b4 <check_response+0x190>)
 80025ce:	f7fe fd8f 	bl	80010f0 <WriteAPPServer>
 80025d2:	e7f4      	b.n	80025be <check_response+0x9a>
 80025d4:	2202      	movs	r2, #2
 80025d6:	4939      	ldr	r1, [pc, #228]	; (80026bc <check_response+0x198>)
 80025d8:	4628      	mov	r0, r5
 80025da:	f001 fccf 	bl	8003f7c <memcmp>
 80025de:	b910      	cbnz	r0, 80025e6 <check_response+0xc2>
 80025e0:	f64f 70ff 	movw	r0, #65535	; 0xffff
 80025e4:	e7a7      	b.n	8002536 <check_response+0x12>
 80025e6:	2202      	movs	r2, #2
 80025e8:	4935      	ldr	r1, [pc, #212]	; (80026c0 <check_response+0x19c>)
 80025ea:	4628      	mov	r0, r5
 80025ec:	f001 fcc6 	bl	8003f7c <memcmp>
 80025f0:	bb78      	cbnz	r0, 8002652 <check_response+0x12e>
 80025f2:	f000 fc93 	bl	8002f1c <FLASH_GetWriteProtectionOptionByte>
 80025f6:	4d33      	ldr	r5, [pc, #204]	; (80026c4 <check_response+0x1a0>)
 80025f8:	4606      	mov	r6, r0
 80025fa:	682b      	ldr	r3, [r5, #0]
 80025fc:	4383      	bics	r3, r0
 80025fe:	d026      	beq.n	800264e <check_response+0x12a>
 8002600:	f000 fc86 	bl	8002f10 <FLASH_GetUserOptionByte>
 8002604:	4604      	mov	r4, r0
 8002606:	6828      	ldr	r0, [r5, #0]
 8002608:	4330      	orrs	r0, r6
 800260a:	6028      	str	r0, [r5, #0]
 800260c:	f000 fd86 	bl	800311c <FLASH_EraseOptionBytes>
 8002610:	4606      	mov	r6, r0
 8002612:	6828      	ldr	r0, [r5, #0]
 8002614:	1c43      	adds	r3, r0, #1
 8002616:	d003      	beq.n	8002620 <check_response+0xfc>
 8002618:	43c0      	mvns	r0, r0
 800261a:	f000 fce1 	bl	8002fe0 <FLASH_EnableWriteProtection>
 800261e:	4606      	mov	r6, r0
 8002620:	f004 0307 	and.w	r3, r4, #7
 8002624:	2b07      	cmp	r3, #7
 8002626:	d007      	beq.n	8002638 <check_response+0x114>
 8002628:	f004 0204 	and.w	r2, r4, #4
 800262c:	f004 0102 	and.w	r1, r4, #2
 8002630:	f004 0001 	and.w	r0, r4, #1
 8002634:	f000 fca6 	bl	8002f84 <FLASH_UserOptionByteConfig>
 8002638:	2e04      	cmp	r6, #4
 800263a:	d103      	bne.n	8002644 <check_response+0x120>
 800263c:	4822      	ldr	r0, [pc, #136]	; (80026c8 <check_response+0x1a4>)
 800263e:	f001 fd37 	bl	80040b0 <puts>
 8002642:	e798      	b.n	8002576 <check_response+0x52>
 8002644:	4821      	ldr	r0, [pc, #132]	; (80026cc <check_response+0x1a8>)
 8002646:	f001 fd33 	bl	80040b0 <puts>
 800264a:	2000      	movs	r0, #0
 800264c:	bd70      	pop	{r4, r5, r6, pc}
 800264e:	4820      	ldr	r0, [pc, #128]	; (80026d0 <check_response+0x1ac>)
 8002650:	e7f9      	b.n	8002646 <check_response+0x122>
 8002652:	2202      	movs	r2, #2
 8002654:	491f      	ldr	r1, [pc, #124]	; (80026d4 <check_response+0x1b0>)
 8002656:	4628      	mov	r0, r5
 8002658:	f001 fc90 	bl	8003f7c <memcmp>
 800265c:	b940      	cbnz	r0, 8002670 <check_response+0x14c>
 800265e:	f64e 50ed 	movw	r0, #60909	; 0xeded
 8002662:	f7ff fee3 	bl	800242c <IAP_WriteFlag>
 8002666:	21f0      	movs	r1, #240	; 0xf0
 8002668:	481b      	ldr	r0, [pc, #108]	; (80026d8 <check_response+0x1b4>)
 800266a:	f7ff fe6d 	bl	8002348 <request>
 800266e:	e764      	b.n	800253a <check_response+0x16>
 8002670:	2202      	movs	r2, #2
 8002672:	491a      	ldr	r1, [pc, #104]	; (80026dc <check_response+0x1b8>)
 8002674:	4628      	mov	r0, r5
 8002676:	f001 fc81 	bl	8003f7c <memcmp>
 800267a:	b910      	cbnz	r0, 8002682 <check_response+0x15e>
 800267c:	f64d 60de 	movw	r0, #57054	; 0xdede
 8002680:	e759      	b.n	8002536 <check_response+0x12>
 8002682:	4817      	ldr	r0, [pc, #92]	; (80026e0 <check_response+0x1bc>)
 8002684:	e7df      	b.n	8002646 <check_response+0x122>
 8002686:	bf00      	nop
 8002688:	080091f8 	.word	0x080091f8
 800268c:	080091fb 	.word	0x080091fb
 8002690:	080091fe 	.word	0x080091fe
 8002694:	08009201 	.word	0x08009201
 8002698:	08009204 	.word	0x08009204
 800269c:	20001138 	.word	0x20001138
 80026a0:	20000ef4 	.word	0x20000ef4
 80026a4:	08009207 	.word	0x08009207
 80026a8:	08008e98 	.word	0x08008e98
 80026ac:	08008ed1 	.word	0x08008ed1
 80026b0:	08008edd 	.word	0x08008edd
 80026b4:	20001854 	.word	0x20001854
 80026b8:	0800921a 	.word	0x0800921a
 80026bc:	0800922c 	.word	0x0800922c
 80026c0:	0800922f 	.word	0x0800922f
 80026c4:	2000113c 	.word	0x2000113c
 80026c8:	08009232 	.word	0x08009232
 80026cc:	0800924b 	.word	0x0800924b
 80026d0:	08009268 	.word	0x08009268
 80026d4:	08009284 	.word	0x08009284
 80026d8:	08009287 	.word	0x08009287
 80026dc:	0800928a 	.word	0x0800928a
 80026e0:	0800928d 	.word	0x0800928d

080026e4 <IAP_Main_Menu>:
 80026e4:	2210      	movs	r2, #16
 80026e6:	4b2c      	ldr	r3, [pc, #176]	; (8002798 <IAP_Main_Menu+0xb4>)
 80026e8:	e92d 41f0 	stmdb	sp!, {r4, r5, r6, r7, r8, lr}
 80026ec:	601a      	str	r2, [r3, #0]
 80026ee:	4c2b      	ldr	r4, [pc, #172]	; (800279c <IAP_Main_Menu+0xb8>)
 80026f0:	4b2b      	ldr	r3, [pc, #172]	; (80027a0 <IAP_Main_Menu+0xbc>)
 80026f2:	4e2c      	ldr	r6, [pc, #176]	; (80027a4 <IAP_Main_Menu+0xc0>)
 80026f4:	6023      	str	r3, [r4, #0]
 80026f6:	f000 fc11 	bl	8002f1c <FLASH_GetWriteProtectionOptionByte>
 80026fa:	6823      	ldr	r3, [r4, #0]
 80026fc:	4f2a      	ldr	r7, [pc, #168]	; (80027a8 <IAP_Main_Menu+0xc4>)
 80026fe:	4383      	bics	r3, r0
 8002700:	bf14      	ite	ne
 8002702:	2301      	movne	r3, #1
 8002704:	2300      	moveq	r3, #0
 8002706:	4829      	ldr	r0, [pc, #164]	; (80027ac <IAP_Main_Menu+0xc8>)
 8002708:	6033      	str	r3, [r6, #0]
 800270a:	f001 fcd1 	bl	80040b0 <puts>
 800270e:	f8df 80b4 	ldr.w	r8, [pc, #180]	; 80027c4 <IAP_Main_Menu+0xe0>
 8002712:	4d27      	ldr	r5, [pc, #156]	; (80027b0 <IAP_Main_Menu+0xcc>)
 8002714:	6833      	ldr	r3, [r6, #0]
 8002716:	b113      	cbz	r3, 800271e <IAP_Main_Menu+0x3a>
 8002718:	4638      	mov	r0, r7
 800271a:	f001 fcc9 	bl	80040b0 <puts>
 800271e:	21ff      	movs	r1, #255	; 0xff
 8002720:	4640      	mov	r0, r8
 8002722:	f7ff fe11 	bl	8002348 <request>
 8002726:	f44f 70fa 	mov.w	r0, #500	; 0x1f4
 800272a:	f001 f92f 	bl	800398c <delay_ms>
 800272e:	f8b5 3a3e 	ldrh.w	r3, [r5, #2622]	; 0xa3e
 8002732:	f3c3 33c0 	ubfx	r3, r3, #15, #1
 8002736:	b1a3      	cbz	r3, 8002762 <IAP_Main_Menu+0x7e>
 8002738:	220f      	movs	r2, #15
 800273a:	f8b5 3a3e 	ldrh.w	r3, [r5, #2622]	; 0xa3e
 800273e:	481d      	ldr	r0, [pc, #116]	; (80027b4 <IAP_Main_Menu+0xd0>)
 8002740:	f36f 33cf 	bfc	r3, #15, #1
 8002744:	f8a5 3a3e 	strh.w	r3, [r5, #2622]	; 0xa3e
 8002748:	4b1b      	ldr	r3, [pc, #108]	; (80027b8 <IAP_Main_Menu+0xd4>)
 800274a:	491c      	ldr	r1, [pc, #112]	; (80027bc <IAP_Main_Menu+0xd8>)
 800274c:	701a      	strb	r2, [r3, #0]
 800274e:	f7fe fd99 	bl	8001284 <split>
 8002752:	f8d5 0a08 	ldr.w	r0, [r5, #2568]	; 0xa08
 8002756:	f7ff fee5 	bl	8002524 <check_response>
 800275a:	2800      	cmp	r0, #0
 800275c:	d0da      	beq.n	8002714 <IAP_Main_Menu+0x30>
 800275e:	e8bd 81f0 	ldmia.w	sp!, {r4, r5, r6, r7, r8, pc}
 8002762:	4c17      	ldr	r4, [pc, #92]	; (80027c0 <IAP_Main_Menu+0xdc>)
 8002764:	f8b4 2808 	ldrh.w	r2, [r4, #2056]	; 0x808
 8002768:	0412      	lsls	r2, r2, #16
 800276a:	d5d3      	bpl.n	8002714 <IAP_Main_Menu+0x30>
 800276c:	f8b4 2808 	ldrh.w	r2, [r4, #2056]	; 0x808
 8002770:	f504 6081 	add.w	r0, r4, #1032	; 0x408
 8002774:	f363 32cf 	bfi	r2, r3, #15, #1
 8002778:	f8a4 2808 	strh.w	r2, [r4, #2056]	; 0x808
 800277c:	22f0      	movs	r2, #240	; 0xf0
 800277e:	4b0e      	ldr	r3, [pc, #56]	; (80027b8 <IAP_Main_Menu+0xd4>)
 8002780:	490e      	ldr	r1, [pc, #56]	; (80027bc <IAP_Main_Menu+0xd8>)
 8002782:	701a      	strb	r2, [r3, #0]
 8002784:	f001 f9e8 	bl	8003b58 <UT_split>
 8002788:	f8d4 0404 	ldr.w	r0, [r4, #1028]	; 0x404
 800278c:	f7ff feca 	bl	8002524 <check_response>
 8002790:	2800      	cmp	r0, #0
 8002792:	d0bf      	beq.n	8002714 <IAP_Main_Menu+0x30>
 8002794:	e8bd 81f0 	ldmia.w	sp!, {r4, r5, r6, r7, r8, pc}
 8002798:	20001130 	.word	0x20001130
 800279c:	2000113c 	.word	0x2000113c
 80027a0:	ffff0000 	.word	0xffff0000
 80027a4:	20001134 	.word	0x20001134
 80027a8:	080090bf 	.word	0x080090bf
 80027ac:	080090a5 	.word	0x080090a5
 80027b0:	200006f0 	.word	0x200006f0
 80027b4:	20000af0 	.word	0x20000af0
 80027b8:	20001138 	.word	0x20001138
 80027bc:	08009142 	.word	0x08009142
 80027c0:	2000124c 	.word	0x2000124c
 80027c4:	080090c6 	.word	0x080090c6

080027c8 <IAP_Upload>:
 80027c8:	b508      	push	{r3, lr}
 80027ca:	4802      	ldr	r0, [pc, #8]	; (80027d4 <IAP_Upload+0xc>)
 80027cc:	f001 fc70 	bl	80040b0 <puts>
 80027d0:	2000      	movs	r0, #0
 80027d2:	bd08      	pop	{r3, pc}
 80027d4:	080091af 	.word	0x080091af

080027d8 <IAP_Erase>:
 80027d8:	2300      	movs	r3, #0
 80027da:	b507      	push	{r0, r1, r2, lr}
 80027dc:	2160      	movs	r1, #96	; 0x60
 80027de:	a801      	add	r0, sp, #4
 80027e0:	f8ad 3004 	strh.w	r3, [sp, #4]
 80027e4:	f88d 3006 	strb.w	r3, [sp, #6]
 80027e8:	f7ff fce4 	bl	80021b4 <Int2Str>
 80027ec:	a901      	add	r1, sp, #4
 80027ee:	4807      	ldr	r0, [pc, #28]	; (800280c <IAP_Erase+0x34>)
 80027f0:	f001 fbe6 	bl	8003fc0 <printf>
 80027f4:	2101      	movs	r1, #1
 80027f6:	f44f 3040 	mov.w	r0, #196608	; 0x30000
 80027fa:	f7ff fd03 	bl	8002204 <EraseSomePages>
 80027fe:	fab0 f080 	clz	r0, r0
 8002802:	0940      	lsrs	r0, r0, #5
 8002804:	4240      	negs	r0, r0
 8002806:	b003      	add	sp, #12
 8002808:	f85d fb04 	ldr.w	pc, [sp], #4
 800280c:	0800908f 	.word	0x0800908f

08002810 <IAP_Update>:
 8002810:	e92d 4ff0 	stmdb	sp!, {r4, r5, r6, r7, r8, r9, sl, fp, lr}
 8002814:	b097      	sub	sp, #92	; 0x5c
 8002816:	2220      	movs	r2, #32
 8002818:	2100      	movs	r1, #0
 800281a:	a80e      	add	r0, sp, #56	; 0x38
 800281c:	f001 fbc8 	bl	8003fb0 <memset>
 8002820:	489e      	ldr	r0, [pc, #632]	; (8002a9c <IAP_Update+0x28c>)
 8002822:	f001 fc45 	bl	80040b0 <puts>
 8002826:	2301      	movs	r3, #1
 8002828:	4f9d      	ldr	r7, [pc, #628]	; (8002aa0 <IAP_Update+0x290>)
 800282a:	4d9e      	ldr	r5, [pc, #632]	; (8002aa4 <IAP_Update+0x294>)
 800282c:	f8df 82b4 	ldr.w	r8, [pc, #692]	; 8002ae4 <IAP_Update+0x2d4>
 8002830:	703b      	strb	r3, [r7, #0]
 8002832:	7829      	ldrb	r1, [r5, #0]
 8002834:	4640      	mov	r0, r8
 8002836:	4c9c      	ldr	r4, [pc, #624]	; (8002aa8 <IAP_Update+0x298>)
 8002838:	f7ff fd86 	bl	8002348 <request>
 800283c:	f44f 70fa 	mov.w	r0, #500	; 0x1f4
 8002840:	f001 f8a4 	bl	800398c <delay_ms>
 8002844:	f8b4 3a3e 	ldrh.w	r3, [r4, #2622]	; 0xa3e
 8002848:	4626      	mov	r6, r4
 800284a:	f3c3 33c0 	ubfx	r3, r3, #15, #1
 800284e:	2b00      	cmp	r3, #0
 8002850:	f000 80a2 	beq.w	8002998 <IAP_Update+0x188>
 8002854:	f8b4 3a3e 	ldrh.w	r3, [r4, #2622]	; 0xa3e
 8002858:	4994      	ldr	r1, [pc, #592]	; (8002aac <IAP_Update+0x29c>)
 800285a:	f36f 33cf 	bfc	r3, #15, #1
 800285e:	f504 6080 	add.w	r0, r4, #1024	; 0x400
 8002862:	f8a4 3a3e 	strh.w	r3, [r4, #2622]	; 0xa3e
 8002866:	f7fe fd0d 	bl	8001284 <split>
 800286a:	2202      	movs	r2, #2
 800286c:	4990      	ldr	r1, [pc, #576]	; (8002ab0 <IAP_Update+0x2a0>)
 800286e:	f8d4 0a08 	ldr.w	r0, [r4, #2568]	; 0xa08
 8002872:	f001 fb83 	bl	8003f7c <memcmp>
 8002876:	2800      	cmp	r0, #0
 8002878:	d1db      	bne.n	8002832 <IAP_Update+0x22>
 800287a:	498e      	ldr	r1, [pc, #568]	; (8002ab4 <IAP_Update+0x2a4>)
 800287c:	f604 0004 	addw	r0, r4, #2052	; 0x804
 8002880:	f001 fc96 	bl	80041b0 <strtok>
 8002884:	b128      	cbz	r0, 8002892 <IAP_Update+0x82>
 8002886:	4b8c      	ldr	r3, [pc, #560]	; (8002ab8 <IAP_Update+0x2a8>)
 8002888:	6018      	str	r0, [r3, #0]
 800288a:	f7fe fc1d 	bl	80010c8 <writeVersion>
 800288e:	f7fe fc25 	bl	80010dc <ReadVersion>
 8002892:	4988      	ldr	r1, [pc, #544]	; (8002ab4 <IAP_Update+0x2a4>)
 8002894:	2000      	movs	r0, #0
 8002896:	f001 fc8b 	bl	80041b0 <strtok>
 800289a:	4605      	mov	r5, r0
 800289c:	b110      	cbz	r0, 80028a4 <IAP_Update+0x94>
 800289e:	f001 fb45 	bl	8003f2c <atol>
 80028a2:	4605      	mov	r5, r0
 80028a4:	4983      	ldr	r1, [pc, #524]	; (8002ab4 <IAP_Update+0x2a4>)
 80028a6:	2000      	movs	r0, #0
 80028a8:	f001 fc82 	bl	80041b0 <strtok>
 80028ac:	4604      	mov	r4, r0
 80028ae:	b110      	cbz	r0, 80028b6 <IAP_Update+0xa6>
 80028b0:	f001 fb38 	bl	8003f24 <atoi>
 80028b4:	b284      	uxth	r4, r0
 80028b6:	497f      	ldr	r1, [pc, #508]	; (8002ab4 <IAP_Update+0x2a4>)
 80028b8:	2000      	movs	r0, #0
 80028ba:	f001 fc79 	bl	80041b0 <strtok>
 80028be:	b160      	cbz	r0, 80028da <IAP_Update+0xca>
 80028c0:	4603      	mov	r3, r0
 80028c2:	f10d 0e18 	add.w	lr, sp, #24
 80028c6:	f100 0c20 	add.w	ip, r0, #32
 80028ca:	4672      	mov	r2, lr
 80028cc:	6818      	ldr	r0, [r3, #0]
 80028ce:	6859      	ldr	r1, [r3, #4]
 80028d0:	3308      	adds	r3, #8
 80028d2:	c203      	stmia	r2!, {r0, r1}
 80028d4:	4563      	cmp	r3, ip
 80028d6:	4696      	mov	lr, r2
 80028d8:	d1f7      	bne.n	80028ca <IAP_Update+0xba>
 80028da:	4b77      	ldr	r3, [pc, #476]	; (8002ab8 <IAP_Update+0x2a8>)
 80028dc:	6819      	ldr	r1, [r3, #0]
 80028de:	2900      	cmp	r1, #0
 80028e0:	f000 80a7 	beq.w	8002a32 <IAP_Update+0x222>
 80028e4:	2d00      	cmp	r5, #0
 80028e6:	f000 80a4 	beq.w	8002a32 <IAP_Update+0x222>
 80028ea:	2c00      	cmp	r4, #0
 80028ec:	f000 80a1 	beq.w	8002a32 <IAP_Update+0x222>
 80028f0:	ab06      	add	r3, sp, #24
 80028f2:	9300      	str	r3, [sp, #0]
 80028f4:	462a      	mov	r2, r5
 80028f6:	4623      	mov	r3, r4
 80028f8:	4870      	ldr	r0, [pc, #448]	; (8002abc <IAP_Update+0x2ac>)
 80028fa:	f001 fb61 	bl	8003fc0 <printf>
 80028fe:	fb95 f3f4 	sdiv	r3, r5, r4
 8002902:	fb04 5213 	mls	r2, r4, r3, r5
 8002906:	2a00      	cmp	r2, #0
 8002908:	f040 809d 	bne.w	8002a46 <IAP_Update+0x236>
 800290c:	b29b      	uxth	r3, r3
 800290e:	9303      	str	r3, [sp, #12]
 8002910:	f04f 0800 	mov.w	r8, #0
 8002914:	f7ff ff60 	bl	80027d8 <IAP_Erase>
 8002918:	f8df a1ac 	ldr.w	sl, [pc, #428]	; 8002ac8 <IAP_Update+0x2b8>
 800291c:	9b03      	ldr	r3, [sp, #12]
 800291e:	fa1f f988 	uxth.w	r9, r8
 8002922:	4599      	cmp	r9, r3
 8002924:	f0c0 8091 	bcc.w	8002a4a <IAP_Update+0x23a>
 8002928:	2280      	movs	r2, #128	; 0x80
 800292a:	4965      	ldr	r1, [pc, #404]	; (8002ac0 <IAP_Update+0x2b0>)
 800292c:	a80e      	add	r0, sp, #56	; 0x38
 800292e:	f7ff fb91 	bl	8002054 <getMD5Str>
 8002932:	a90e      	add	r1, sp, #56	; 0x38
 8002934:	4863      	ldr	r0, [pc, #396]	; (8002ac4 <IAP_Update+0x2b4>)
 8002936:	f001 fb43 	bl	8003fc0 <printf>
 800293a:	240a      	movs	r4, #10
 800293c:	4d62      	ldr	r5, [pc, #392]	; (8002ac8 <IAP_Update+0x2b8>)
 800293e:	f8df 816c 	ldr.w	r8, [pc, #364]	; 8002aac <IAP_Update+0x29c>
 8002942:	f505 6981 	add.w	r9, r5, #1032	; 0x408
 8002946:	4b57      	ldr	r3, [pc, #348]	; (8002aa4 <IAP_Update+0x294>)
 8002948:	7818      	ldrb	r0, [r3, #0]
 800294a:	f7ff fd3f 	bl	80023cc <request4UPdataComplete>
 800294e:	f44f 70fa 	mov.w	r0, #500	; 0x1f4
 8002952:	f001 f81b 	bl	800398c <delay_ms>
 8002956:	f8b6 3a3e 	ldrh.w	r3, [r6, #2622]	; 0xa3e
 800295a:	f3c3 33c0 	ubfx	r3, r3, #15, #1
 800295e:	2b00      	cmp	r3, #0
 8002960:	f000 81d8 	beq.w	8002d14 <IAP_Update+0x504>
 8002964:	f8b6 3a3e 	ldrh.w	r3, [r6, #2622]	; 0xa3e
 8002968:	4641      	mov	r1, r8
 800296a:	f36f 33cf 	bfc	r3, #15, #1
 800296e:	4857      	ldr	r0, [pc, #348]	; (8002acc <IAP_Update+0x2bc>)
 8002970:	f8a6 3a3e 	strh.w	r3, [r6, #2622]	; 0xa3e
 8002974:	f7fe fc86 	bl	8001284 <split>
 8002978:	2202      	movs	r2, #2
 800297a:	4955      	ldr	r1, [pc, #340]	; (8002ad0 <IAP_Update+0x2c0>)
 800297c:	f8d6 0a08 	ldr.w	r0, [r6, #2568]	; 0xa08
 8002980:	f001 fafc 	bl	8003f7c <memcmp>
 8002984:	2800      	cmp	r0, #0
 8002986:	f040 81d8 	bne.w	8002d3a <IAP_Update+0x52a>
 800298a:	4852      	ldr	r0, [pc, #328]	; (8002ad4 <IAP_Update+0x2c4>)
 800298c:	f001 fb90 	bl	80040b0 <puts>
 8002990:	2300      	movs	r3, #0
 8002992:	2001      	movs	r0, #1
 8002994:	703b      	strb	r3, [r7, #0]
 8002996:	e053      	b.n	8002a40 <IAP_Update+0x230>
 8002998:	4c4b      	ldr	r4, [pc, #300]	; (8002ac8 <IAP_Update+0x2b8>)
 800299a:	f8b4 2808 	ldrh.w	r2, [r4, #2056]	; 0x808
 800299e:	0412      	lsls	r2, r2, #16
 80029a0:	f57f af47 	bpl.w	8002832 <IAP_Update+0x22>
 80029a4:	f8b4 2808 	ldrh.w	r2, [r4, #2056]	; 0x808
 80029a8:	4940      	ldr	r1, [pc, #256]	; (8002aac <IAP_Update+0x29c>)
 80029aa:	f363 32cf 	bfi	r2, r3, #15, #1
 80029ae:	f8a4 2808 	strh.w	r2, [r4, #2056]	; 0x808
 80029b2:	f504 6081 	add.w	r0, r4, #1032	; 0x408
 80029b6:	f001 f8cf 	bl	8003b58 <UT_split>
 80029ba:	2202      	movs	r2, #2
 80029bc:	493c      	ldr	r1, [pc, #240]	; (8002ab0 <IAP_Update+0x2a0>)
 80029be:	f8d4 0404 	ldr.w	r0, [r4, #1028]	; 0x404
 80029c2:	f001 fadb 	bl	8003f7c <memcmp>
 80029c6:	2800      	cmp	r0, #0
 80029c8:	f47f af33 	bne.w	8002832 <IAP_Update+0x22>
 80029cc:	4939      	ldr	r1, [pc, #228]	; (8002ab4 <IAP_Update+0x2a4>)
 80029ce:	f504 60c1 	add.w	r0, r4, #1544	; 0x608
 80029d2:	f001 fbed 	bl	80041b0 <strtok>
 80029d6:	b128      	cbz	r0, 80029e4 <IAP_Update+0x1d4>
 80029d8:	4b37      	ldr	r3, [pc, #220]	; (8002ab8 <IAP_Update+0x2a8>)
 80029da:	6018      	str	r0, [r3, #0]
 80029dc:	f7fe fb74 	bl	80010c8 <writeVersion>
 80029e0:	f7fe fb7c 	bl	80010dc <ReadVersion>
 80029e4:	4933      	ldr	r1, [pc, #204]	; (8002ab4 <IAP_Update+0x2a4>)
 80029e6:	2000      	movs	r0, #0
 80029e8:	f001 fbe2 	bl	80041b0 <strtok>
 80029ec:	4605      	mov	r5, r0
 80029ee:	b110      	cbz	r0, 80029f6 <IAP_Update+0x1e6>
 80029f0:	f001 fa9c 	bl	8003f2c <atol>
 80029f4:	4605      	mov	r5, r0
 80029f6:	492f      	ldr	r1, [pc, #188]	; (8002ab4 <IAP_Update+0x2a4>)
 80029f8:	2000      	movs	r0, #0
 80029fa:	f001 fbd9 	bl	80041b0 <strtok>
 80029fe:	4604      	mov	r4, r0
 8002a00:	b110      	cbz	r0, 8002a08 <IAP_Update+0x1f8>
 8002a02:	f001 fa8f 	bl	8003f24 <atoi>
 8002a06:	b284      	uxth	r4, r0
 8002a08:	492a      	ldr	r1, [pc, #168]	; (8002ab4 <IAP_Update+0x2a4>)
 8002a0a:	2000      	movs	r0, #0
 8002a0c:	f001 fbd0 	bl	80041b0 <strtok>
 8002a10:	2800      	cmp	r0, #0
 8002a12:	f43f af62 	beq.w	80028da <IAP_Update+0xca>
 8002a16:	4603      	mov	r3, r0
 8002a18:	f10d 0e18 	add.w	lr, sp, #24
 8002a1c:	f100 0c20 	add.w	ip, r0, #32
 8002a20:	4672      	mov	r2, lr
 8002a22:	6818      	ldr	r0, [r3, #0]
 8002a24:	6859      	ldr	r1, [r3, #4]
 8002a26:	3308      	adds	r3, #8
 8002a28:	c203      	stmia	r2!, {r0, r1}
 8002a2a:	4563      	cmp	r3, ip
 8002a2c:	4696      	mov	lr, r2
 8002a2e:	d1f7      	bne.n	8002a20 <IAP_Update+0x210>
 8002a30:	e753      	b.n	80028da <IAP_Update+0xca>
 8002a32:	4b1c      	ldr	r3, [pc, #112]	; (8002aa4 <IAP_Update+0x294>)
 8002a34:	4828      	ldr	r0, [pc, #160]	; (8002ad8 <IAP_Update+0x2c8>)
 8002a36:	7819      	ldrb	r1, [r3, #0]
 8002a38:	f7ff fc86 	bl	8002348 <request>
 8002a3c:	2000      	movs	r0, #0
 8002a3e:	7038      	strb	r0, [r7, #0]
 8002a40:	b017      	add	sp, #92	; 0x5c
 8002a42:	e8bd 8ff0 	ldmia.w	sp!, {r4, r5, r6, r7, r8, r9, sl, fp, pc}
 8002a46:	3301      	adds	r3, #1
 8002a48:	e760      	b.n	800290c <IAP_Update+0xfc>
 8002a4a:	4b16      	ldr	r3, [pc, #88]	; (8002aa4 <IAP_Update+0x294>)
 8002a4c:	4649      	mov	r1, r9
 8002a4e:	781a      	ldrb	r2, [r3, #0]
 8002a50:	4822      	ldr	r0, [pc, #136]	; (8002adc <IAP_Update+0x2cc>)
 8002a52:	f7ff fc99 	bl	8002388 <request4UPdate>
 8002a56:	f8b6 3a3e 	ldrh.w	r3, [r6, #2622]	; 0xa3e
 8002a5a:	041b      	lsls	r3, r3, #16
 8002a5c:	d403      	bmi.n	8002a66 <IAP_Update+0x256>
 8002a5e:	f8ba 3808 	ldrh.w	r3, [sl, #2056]	; 0x808
 8002a62:	0418      	lsls	r0, r3, #16
 8002a64:	d5f7      	bpl.n	8002a56 <IAP_Update+0x246>
 8002a66:	f8b6 3a3e 	ldrh.w	r3, [r6, #2622]	; 0xa3e
 8002a6a:	f3c3 33c0 	ubfx	r3, r3, #15, #1
 8002a6e:	2b00      	cmp	r3, #0
 8002a70:	f000 80c1 	beq.w	8002bf6 <IAP_Update+0x3e6>
 8002a74:	f8b6 3a3e 	ldrh.w	r3, [r6, #2622]	; 0xa3e
 8002a78:	490c      	ldr	r1, [pc, #48]	; (8002aac <IAP_Update+0x29c>)
 8002a7a:	f36f 33cf 	bfc	r3, #15, #1
 8002a7e:	4813      	ldr	r0, [pc, #76]	; (8002acc <IAP_Update+0x2bc>)
 8002a80:	f8a6 3a3e 	strh.w	r3, [r6, #2622]	; 0xa3e
 8002a84:	f7fe fbfe 	bl	8001284 <split>
 8002a88:	2202      	movs	r2, #2
 8002a8a:	4915      	ldr	r1, [pc, #84]	; (8002ae0 <IAP_Update+0x2d0>)
 8002a8c:	f8d6 0a08 	ldr.w	r0, [r6, #2568]	; 0xa08
 8002a90:	f001 fa74 	bl	8003f7c <memcmp>
 8002a94:	b340      	cbz	r0, 8002ae8 <IAP_Update+0x2d8>
 8002a96:	f108 0801 	add.w	r8, r8, #1
 8002a9a:	e73f      	b.n	800291c <IAP_Update+0x10c>
 8002a9c:	080090ed 	.word	0x080090ed
 8002aa0:	20001245 	.word	0x20001245
 8002aa4:	20001138 	.word	0x20001138
 8002aa8:	200006f0 	.word	0x200006f0
 8002aac:	08009142 	.word	0x08009142
 8002ab0:	080090ff 	.word	0x080090ff
 8002ab4:	08009102 	.word	0x08009102
 8002ab8:	20001a94 	.word	0x20001a94
 8002abc:	08009104 	.word	0x08009104
 8002ac0:	20001142 	.word	0x20001142
 8002ac4:	08009168 	.word	0x08009168
 8002ac8:	2000124c 	.word	0x2000124c
 8002acc:	20000af0 	.word	0x20000af0
 8002ad0:	0800918e 	.word	0x0800918e
 8002ad4:	08009191 	.word	0x08009191
 8002ad8:	0800912d 	.word	0x0800912d
 8002adc:	080091f5 	.word	0x080091f5
 8002ae0:	08009130 	.word	0x08009130
 8002ae4:	080090fc 	.word	0x080090fc
 8002ae8:	4997      	ldr	r1, [pc, #604]	; (8002d48 <IAP_Update+0x538>)
 8002aea:	4898      	ldr	r0, [pc, #608]	; (8002d4c <IAP_Update+0x53c>)
 8002aec:	f001 fb60 	bl	80041b0 <strtok>
 8002af0:	f001 fa18 	bl	8003f24 <atoi>
 8002af4:	b280      	uxth	r0, r0
 8002af6:	4581      	cmp	r9, r0
 8002af8:	d1cd      	bne.n	8002a96 <IAP_Update+0x286>
 8002afa:	4b94      	ldr	r3, [pc, #592]	; (8002d4c <IAP_Update+0x53c>)
 8002afc:	4618      	mov	r0, r3
 8002afe:	7802      	ldrb	r2, [r0, #0]
 8002b00:	3301      	adds	r3, #1
 8002b02:	2a28      	cmp	r2, #40	; 0x28
 8002b04:	d1fa      	bne.n	8002afc <IAP_Update+0x2ec>
 8002b06:	4618      	mov	r0, r3
 8002b08:	4991      	ldr	r1, [pc, #580]	; (8002d50 <IAP_Update+0x540>)
 8002b0a:	f001 fb51 	bl	80041b0 <strtok>
 8002b0e:	f001 fa09 	bl	8003f24 <atoi>
 8002b12:	f8df 9268 	ldr.w	r9, [pc, #616]	; 8002d7c <IAP_Update+0x56c>
 8002b16:	b2c2      	uxtb	r2, r0
 8002b18:	f889 0000 	strb.w	r0, [r9]
 8002b1c:	4641      	mov	r1, r8
 8002b1e:	488d      	ldr	r0, [pc, #564]	; (8002d54 <IAP_Update+0x544>)
 8002b20:	f001 fa4e 	bl	8003fc0 <printf>
 8002b24:	4b8c      	ldr	r3, [pc, #560]	; (8002d58 <IAP_Update+0x548>)
 8002b26:	2201      	movs	r2, #1
 8002b28:	469b      	mov	fp, r3
 8002b2a:	801a      	strh	r2, [r3, #0]
 8002b2c:	4a88      	ldr	r2, [pc, #544]	; (8002d50 <IAP_Update+0x540>)
 8002b2e:	f8bb 1000 	ldrh.w	r1, [fp]
 8002b32:	42a1      	cmp	r1, r4
 8002b34:	d33d      	bcc.n	8002bb2 <IAP_Update+0x3a2>
 8002b36:	4889      	ldr	r0, [pc, #548]	; (8002d5c <IAP_Update+0x54c>)
 8002b38:	f001 faba 	bl	80040b0 <puts>
 8002b3c:	4b88      	ldr	r3, [pc, #544]	; (8002d60 <IAP_Update+0x550>)
 8002b3e:	f8c3 9000 	str.w	r9, [r3]
 8002b42:	9b03      	ldr	r3, [sp, #12]
 8002b44:	3b01      	subs	r3, #1
 8002b46:	4598      	cmp	r8, r3
 8002b48:	daa5      	bge.n	8002a96 <IAP_Update+0x286>
 8002b4a:	2300      	movs	r3, #0
 8002b4c:	f105 6b00 	add.w	fp, r5, #134217728	; 0x8000000
 8002b50:	f8df 922c 	ldr.w	r9, [pc, #556]	; 8002d80 <IAP_Update+0x570>
 8002b54:	f50b 3b80 	add.w	fp, fp, #65536	; 0x10000
 8002b58:	42a3      	cmp	r3, r4
 8002b5a:	d29c      	bcs.n	8002a96 <IAP_Update+0x286>
 8002b5c:	f8d9 2000 	ldr.w	r2, [r9]
 8002b60:	4593      	cmp	fp, r2
 8002b62:	d998      	bls.n	8002a96 <IAP_Update+0x286>
 8002b64:	9305      	str	r3, [sp, #20]
 8002b66:	f000 f9c7 	bl	8002ef8 <FLASH_Unlock>
 8002b6a:	4a7d      	ldr	r2, [pc, #500]	; (8002d60 <IAP_Update+0x550>)
 8002b6c:	f8d9 0000 	ldr.w	r0, [r9]
 8002b70:	6811      	ldr	r1, [r2, #0]
 8002b72:	9204      	str	r2, [sp, #16]
 8002b74:	6809      	ldr	r1, [r1, #0]
 8002b76:	f000 faa5 	bl	80030c4 <FLASH_ProgramWord>
 8002b7a:	f000 f9c7 	bl	8002f0c <FLASH_Lock>
 8002b7e:	f8d9 1000 	ldr.w	r1, [r9]
 8002b82:	9a04      	ldr	r2, [sp, #16]
 8002b84:	680b      	ldr	r3, [r1, #0]
 8002b86:	6810      	ldr	r0, [r2, #0]
 8002b88:	469e      	mov	lr, r3
 8002b8a:	6803      	ldr	r3, [r0, #0]
 8002b8c:	459e      	cmp	lr, r3
 8002b8e:	9b05      	ldr	r3, [sp, #20]
 8002b90:	d02a      	beq.n	8002be8 <IAP_Update+0x3d8>
 8002b92:	4874      	ldr	r0, [pc, #464]	; (8002d64 <IAP_Update+0x554>)
 8002b94:	f001 fa14 	bl	8003fc0 <printf>
 8002b98:	f44f 707a 	mov.w	r0, #1000	; 0x3e8
 8002b9c:	f000 fef6 	bl	800398c <delay_ms>
 8002ba0:	f44f 707a 	mov.w	r0, #1000	; 0x3e8
 8002ba4:	f000 fef2 	bl	800398c <delay_ms>
 8002ba8:	f44f 707a 	mov.w	r0, #1000	; 0x3e8
 8002bac:	f000 feee 	bl	800398c <delay_ms>
 8002bb0:	e744      	b.n	8002a3c <IAP_Update+0x22c>
 8002bb2:	4611      	mov	r1, r2
 8002bb4:	2000      	movs	r0, #0
 8002bb6:	9205      	str	r2, [sp, #20]
 8002bb8:	f001 fafa 	bl	80041b0 <strtok>
 8002bbc:	f8bb 1000 	ldrh.w	r1, [fp]
 8002bc0:	9104      	str	r1, [sp, #16]
 8002bc2:	f001 f9af 	bl	8003f24 <atoi>
 8002bc6:	9904      	ldr	r1, [sp, #16]
 8002bc8:	f809 0001 	strb.w	r0, [r9, r1]
 8002bcc:	f8bb 1000 	ldrh.w	r1, [fp]
 8002bd0:	4865      	ldr	r0, [pc, #404]	; (8002d68 <IAP_Update+0x558>)
 8002bd2:	f819 1001 	ldrb.w	r1, [r9, r1]
 8002bd6:	f001 f9f3 	bl	8003fc0 <printf>
 8002bda:	f8bb 1000 	ldrh.w	r1, [fp]
 8002bde:	9a05      	ldr	r2, [sp, #20]
 8002be0:	3101      	adds	r1, #1
 8002be2:	f8ab 1000 	strh.w	r1, [fp]
 8002be6:	e7a2      	b.n	8002b2e <IAP_Update+0x31e>
 8002be8:	3104      	adds	r1, #4
 8002bea:	f8c9 1000 	str.w	r1, [r9]
 8002bee:	1d01      	adds	r1, r0, #4
 8002bf0:	6011      	str	r1, [r2, #0]
 8002bf2:	3304      	adds	r3, #4
 8002bf4:	e7b0      	b.n	8002b58 <IAP_Update+0x348>
 8002bf6:	f8ba 2808 	ldrh.w	r2, [sl, #2056]	; 0x808
 8002bfa:	0411      	lsls	r1, r2, #16
 8002bfc:	f57f af4b 	bpl.w	8002a96 <IAP_Update+0x286>
 8002c00:	f8ba 2808 	ldrh.w	r2, [sl, #2056]	; 0x808
 8002c04:	4952      	ldr	r1, [pc, #328]	; (8002d50 <IAP_Update+0x540>)
 8002c06:	f363 32cf 	bfi	r2, r3, #15, #1
 8002c0a:	4858      	ldr	r0, [pc, #352]	; (8002d6c <IAP_Update+0x55c>)
 8002c0c:	f8aa 2808 	strh.w	r2, [sl, #2056]	; 0x808
 8002c10:	f000 ffa2 	bl	8003b58 <UT_split>
 8002c14:	2202      	movs	r2, #2
 8002c16:	4956      	ldr	r1, [pc, #344]	; (8002d70 <IAP_Update+0x560>)
 8002c18:	f8da 0404 	ldr.w	r0, [sl, #1028]	; 0x404
 8002c1c:	f001 f9ae 	bl	8003f7c <memcmp>
 8002c20:	2800      	cmp	r0, #0
 8002c22:	f47f af38 	bne.w	8002a96 <IAP_Update+0x286>
 8002c26:	4948      	ldr	r1, [pc, #288]	; (8002d48 <IAP_Update+0x538>)
 8002c28:	4852      	ldr	r0, [pc, #328]	; (8002d74 <IAP_Update+0x564>)
 8002c2a:	f001 fac1 	bl	80041b0 <strtok>
 8002c2e:	f001 f979 	bl	8003f24 <atoi>
 8002c32:	b280      	uxth	r0, r0
 8002c34:	4581      	cmp	r9, r0
 8002c36:	f47f af2e 	bne.w	8002a96 <IAP_Update+0x286>
 8002c3a:	4b4e      	ldr	r3, [pc, #312]	; (8002d74 <IAP_Update+0x564>)
 8002c3c:	4618      	mov	r0, r3
 8002c3e:	7802      	ldrb	r2, [r0, #0]
 8002c40:	3301      	adds	r3, #1
 8002c42:	2a28      	cmp	r2, #40	; 0x28
 8002c44:	d1fa      	bne.n	8002c3c <IAP_Update+0x42c>
 8002c46:	4618      	mov	r0, r3
 8002c48:	4941      	ldr	r1, [pc, #260]	; (8002d50 <IAP_Update+0x540>)
 8002c4a:	f001 fab1 	bl	80041b0 <strtok>
 8002c4e:	f001 f969 	bl	8003f24 <atoi>
 8002c52:	f8df 9128 	ldr.w	r9, [pc, #296]	; 8002d7c <IAP_Update+0x56c>
 8002c56:	b2c2      	uxtb	r2, r0
 8002c58:	f889 0000 	strb.w	r0, [r9]
 8002c5c:	4641      	mov	r1, r8
 8002c5e:	483d      	ldr	r0, [pc, #244]	; (8002d54 <IAP_Update+0x544>)
 8002c60:	f001 f9ae 	bl	8003fc0 <printf>
 8002c64:	4b3c      	ldr	r3, [pc, #240]	; (8002d58 <IAP_Update+0x548>)
 8002c66:	2201      	movs	r2, #1
 8002c68:	469b      	mov	fp, r3
 8002c6a:	801a      	strh	r2, [r3, #0]
 8002c6c:	4a38      	ldr	r2, [pc, #224]	; (8002d50 <IAP_Update+0x540>)
 8002c6e:	f8bb 1000 	ldrh.w	r1, [fp]
 8002c72:	42a1      	cmp	r1, r4
 8002c74:	d333      	bcc.n	8002cde <IAP_Update+0x4ce>
 8002c76:	4839      	ldr	r0, [pc, #228]	; (8002d5c <IAP_Update+0x54c>)
 8002c78:	f001 fa1a 	bl	80040b0 <puts>
 8002c7c:	4b38      	ldr	r3, [pc, #224]	; (8002d60 <IAP_Update+0x550>)
 8002c7e:	f105 6b00 	add.w	fp, r5, #134217728	; 0x8000000
 8002c82:	f8c3 9000 	str.w	r9, [r3]
 8002c86:	2300      	movs	r3, #0
 8002c88:	f8df 90f4 	ldr.w	r9, [pc, #244]	; 8002d80 <IAP_Update+0x570>
 8002c8c:	f50b 3b80 	add.w	fp, fp, #65536	; 0x10000
 8002c90:	42a3      	cmp	r3, r4
 8002c92:	f4bf af00 	bcs.w	8002a96 <IAP_Update+0x286>
 8002c96:	f8d9 2000 	ldr.w	r2, [r9]
 8002c9a:	4593      	cmp	fp, r2
 8002c9c:	f67f aefb 	bls.w	8002a96 <IAP_Update+0x286>
 8002ca0:	9305      	str	r3, [sp, #20]
 8002ca2:	f000 f929 	bl	8002ef8 <FLASH_Unlock>
 8002ca6:	4a2e      	ldr	r2, [pc, #184]	; (8002d60 <IAP_Update+0x550>)
 8002ca8:	f8d9 0000 	ldr.w	r0, [r9]
 8002cac:	6811      	ldr	r1, [r2, #0]
 8002cae:	9204      	str	r2, [sp, #16]
 8002cb0:	6809      	ldr	r1, [r1, #0]
 8002cb2:	f000 fa07 	bl	80030c4 <FLASH_ProgramWord>
 8002cb6:	f000 f929 	bl	8002f0c <FLASH_Lock>
 8002cba:	f8d9 1000 	ldr.w	r1, [r9]
 8002cbe:	9a04      	ldr	r2, [sp, #16]
 8002cc0:	680b      	ldr	r3, [r1, #0]
 8002cc2:	6810      	ldr	r0, [r2, #0]
 8002cc4:	469e      	mov	lr, r3
 8002cc6:	6803      	ldr	r3, [r0, #0]
 8002cc8:	459e      	cmp	lr, r3
 8002cca:	9b05      	ldr	r3, [sp, #20]
 8002ccc:	f47f af61 	bne.w	8002b92 <IAP_Update+0x382>
 8002cd0:	3104      	adds	r1, #4
 8002cd2:	f8c9 1000 	str.w	r1, [r9]
 8002cd6:	1d01      	adds	r1, r0, #4
 8002cd8:	6011      	str	r1, [r2, #0]
 8002cda:	3304      	adds	r3, #4
 8002cdc:	e7d8      	b.n	8002c90 <IAP_Update+0x480>
 8002cde:	4611      	mov	r1, r2
 8002ce0:	2000      	movs	r0, #0
 8002ce2:	9205      	str	r2, [sp, #20]
 8002ce4:	f001 fa64 	bl	80041b0 <strtok>
 8002ce8:	f8bb 1000 	ldrh.w	r1, [fp]
 8002cec:	9104      	str	r1, [sp, #16]
 8002cee:	f001 f919 	bl	8003f24 <atoi>
 8002cf2:	9904      	ldr	r1, [sp, #16]
 8002cf4:	f809 0001 	strb.w	r0, [r9, r1]
 8002cf8:	f8bb 1000 	ldrh.w	r1, [fp]
 8002cfc:	481a      	ldr	r0, [pc, #104]	; (8002d68 <IAP_Update+0x558>)
 8002cfe:	f819 1001 	ldrb.w	r1, [r9, r1]
 8002d02:	f001 f95d 	bl	8003fc0 <printf>
 8002d06:	f8bb 1000 	ldrh.w	r1, [fp]
 8002d0a:	9a05      	ldr	r2, [sp, #20]
 8002d0c:	3101      	adds	r1, #1
 8002d0e:	f8ab 1000 	strh.w	r1, [fp]
 8002d12:	e7ac      	b.n	8002c6e <IAP_Update+0x45e>
 8002d14:	f8b5 2808 	ldrh.w	r2, [r5, #2056]	; 0x808
 8002d18:	0412      	lsls	r2, r2, #16
 8002d1a:	d50e      	bpl.n	8002d3a <IAP_Update+0x52a>
 8002d1c:	f8b5 2808 	ldrh.w	r2, [r5, #2056]	; 0x808
 8002d20:	4641      	mov	r1, r8
 8002d22:	f363 32cf 	bfi	r2, r3, #15, #1
 8002d26:	f8a5 2808 	strh.w	r2, [r5, #2056]	; 0x808
 8002d2a:	4648      	mov	r0, r9
 8002d2c:	f000 ff14 	bl	8003b58 <UT_split>
 8002d30:	2202      	movs	r2, #2
 8002d32:	4911      	ldr	r1, [pc, #68]	; (8002d78 <IAP_Update+0x568>)
 8002d34:	f8d5 0404 	ldr.w	r0, [r5, #1028]	; 0x404
 8002d38:	e622      	b.n	8002980 <IAP_Update+0x170>
 8002d3a:	3c01      	subs	r4, #1
 8002d3c:	f014 04ff 	ands.w	r4, r4, #255	; 0xff
 8002d40:	f47f ae01 	bne.w	8002946 <IAP_Update+0x136>
 8002d44:	e624      	b.n	8002990 <IAP_Update+0x180>
 8002d46:	bf00      	nop
 8002d48:	08009102 	.word	0x08009102
 8002d4c:	20000ef4 	.word	0x20000ef4
 8002d50:	08009142 	.word	0x08009142
 8002d54:	08009133 	.word	0x08009133
 8002d58:	200011c2 	.word	0x200011c2
 8002d5c:	08009144 	.word	0x08009144
 8002d60:	20002318 	.word	0x20002318
 8002d64:	08009147 	.word	0x08009147
 8002d68:	0800913e 	.word	0x0800913e
 8002d6c:	20001654 	.word	0x20001654
 8002d70:	08009130 	.word	0x08009130
 8002d74:	20001854 	.word	0x20001854
 8002d78:	0800918e 	.word	0x0800918e
 8002d7c:	20001142 	.word	0x20001142
 8002d80:	20000044 	.word	0x20000044

08002d84 <Set_DeviceID>:
 8002d84:	b570      	push	{r4, r5, r6, lr}
 8002d86:	4d1c      	ldr	r5, [pc, #112]	; (8002df8 <Set_DeviceID+0x74>)
 8002d88:	4e1c      	ldr	r6, [pc, #112]	; (8002dfc <Set_DeviceID+0x78>)
 8002d8a:	462c      	mov	r4, r5
 8002d8c:	f8b5 3808 	ldrh.w	r3, [r5, #2056]	; 0x808
 8002d90:	041b      	lsls	r3, r3, #16
 8002d92:	d529      	bpl.n	8002de8 <Set_DeviceID+0x64>
 8002d94:	4b18      	ldr	r3, [pc, #96]	; (8002df8 <Set_DeviceID+0x74>)
 8002d96:	4618      	mov	r0, r3
 8002d98:	7802      	ldrb	r2, [r0, #0]
 8002d9a:	3301      	adds	r3, #1
 8002d9c:	2a5b      	cmp	r2, #91	; 0x5b
 8002d9e:	d1fa      	bne.n	8002d96 <Set_DeviceID+0x12>
 8002da0:	4917      	ldr	r1, [pc, #92]	; (8002e00 <Set_DeviceID+0x7c>)
 8002da2:	4618      	mov	r0, r3
 8002da4:	f001 fa04 	bl	80041b0 <strtok>
 8002da8:	4b16      	ldr	r3, [pc, #88]	; (8002e04 <Set_DeviceID+0x80>)
 8002daa:	4601      	mov	r1, r0
 8002dac:	6018      	str	r0, [r3, #0]
 8002dae:	4816      	ldr	r0, [pc, #88]	; (8002e08 <Set_DeviceID+0x84>)
 8002db0:	f001 f906 	bl	8003fc0 <printf>
 8002db4:	f7fe f974 	bl	80010a0 <WriteDeviceID>
 8002db8:	f7fe f97c 	bl	80010b4 <ReadDeviceID>
 8002dbc:	f8b4 3808 	ldrh.w	r3, [r4, #2056]	; 0x808
 8002dc0:	f64f 70ff 	movw	r0, #65535	; 0xffff
 8002dc4:	f36f 33cf 	bfc	r3, #15, #1
 8002dc8:	f8a4 3808 	strh.w	r3, [r4, #2056]	; 0x808
 8002dcc:	4c0f      	ldr	r4, [pc, #60]	; (8002e0c <Set_DeviceID+0x88>)
 8002dce:	f7ff fb2d 	bl	800242c <IAP_WriteFlag>
 8002dd2:	8823      	ldrh	r3, [r4, #0]
 8002dd4:	b29b      	uxth	r3, r3
 8002dd6:	b12b      	cbz	r3, 8002de4 <Set_DeviceID+0x60>
 8002dd8:	8820      	ldrh	r0, [r4, #0]
 8002dda:	b280      	uxth	r0, r0
 8002ddc:	f7ff fb26 	bl	800242c <IAP_WriteFlag>
 8002de0:	2300      	movs	r3, #0
 8002de2:	8023      	strh	r3, [r4, #0]
 8002de4:	2000      	movs	r0, #0
 8002de6:	bd70      	pop	{r4, r5, r6, pc}
 8002de8:	4630      	mov	r0, r6
 8002dea:	f001 f961 	bl	80040b0 <puts>
 8002dee:	f44f 70fa 	mov.w	r0, #500	; 0x1f4
 8002df2:	f000 fdcb 	bl	800398c <delay_ms>
 8002df6:	e7c9      	b.n	8002d8c <Set_DeviceID+0x8>
 8002df8:	2000124c 	.word	0x2000124c
 8002dfc:	080091c9 	.word	0x080091c9
 8002e00:	08008f11 	.word	0x08008f11
 8002e04:	200006ec 	.word	0x200006ec
 8002e08:	080091d5 	.word	0x080091d5
 8002e0c:	20001140 	.word	0x20001140

08002e10 <Get_DeviceID>:
 8002e10:	b508      	push	{r3, lr}
 8002e12:	f7fe f94f 	bl	80010b4 <ReadDeviceID>
 8002e16:	e8bd 4008 	ldmia.w	sp!, {r3, lr}
 8002e1a:	4902      	ldr	r1, [pc, #8]	; (8002e24 <Get_DeviceID+0x14>)
 8002e1c:	4802      	ldr	r0, [pc, #8]	; (8002e28 <Get_DeviceID+0x18>)
 8002e1e:	f001 b8cf 	b.w	8003fc0 <printf>
 8002e22:	bf00      	nop
 8002e24:	200022ac 	.word	0x200022ac
 8002e28:	08009078 	.word	0x08009078

08002e2c <NVIC_PriorityGroupConfig>:
 8002e2c:	f040 60bf 	orr.w	r0, r0, #100139008	; 0x5f80000
 8002e30:	4b02      	ldr	r3, [pc, #8]	; (8002e3c <NVIC_PriorityGroupConfig+0x10>)
 8002e32:	f440 3000 	orr.w	r0, r0, #131072	; 0x20000
 8002e36:	60d8      	str	r0, [r3, #12]
 8002e38:	4770      	bx	lr
 8002e3a:	bf00      	nop
 8002e3c:	e000ed00 	.word	0xe000ed00

08002e40 <NVIC_Init>:
 8002e40:	b510      	push	{r4, lr}
 8002e42:	78c2      	ldrb	r2, [r0, #3]
 8002e44:	7803      	ldrb	r3, [r0, #0]
 8002e46:	b1e2      	cbz	r2, 8002e82 <NVIC_Init+0x42>
 8002e48:	4a12      	ldr	r2, [pc, #72]	; (8002e94 <NVIC_Init+0x54>)
 8002e4a:	68d1      	ldr	r1, [r2, #12]
 8002e4c:	7842      	ldrb	r2, [r0, #1]
 8002e4e:	43c9      	mvns	r1, r1
 8002e50:	f3c1 2102 	ubfx	r1, r1, #8, #3
 8002e54:	f1c1 0404 	rsb	r4, r1, #4
 8002e58:	40a2      	lsls	r2, r4
 8002e5a:	240f      	movs	r4, #15
 8002e5c:	7880      	ldrb	r0, [r0, #2]
 8002e5e:	fa24 f101 	lsr.w	r1, r4, r1
 8002e62:	4001      	ands	r1, r0
 8002e64:	430a      	orrs	r2, r1
 8002e66:	490c      	ldr	r1, [pc, #48]	; (8002e98 <NVIC_Init+0x58>)
 8002e68:	0112      	lsls	r2, r2, #4
 8002e6a:	18c8      	adds	r0, r1, r3
 8002e6c:	b2d2      	uxtb	r2, r2
 8002e6e:	f880 2300 	strb.w	r2, [r0, #768]	; 0x300
 8002e72:	f003 001f 	and.w	r0, r3, #31
 8002e76:	095a      	lsrs	r2, r3, #5
 8002e78:	2301      	movs	r3, #1
 8002e7a:	4083      	lsls	r3, r0
 8002e7c:	f841 3022 	str.w	r3, [r1, r2, lsl #2]
 8002e80:	bd10      	pop	{r4, pc}
 8002e82:	2101      	movs	r1, #1
 8002e84:	095a      	lsrs	r2, r3, #5
 8002e86:	f003 031f 	and.w	r3, r3, #31
 8002e8a:	fa01 f303 	lsl.w	r3, r1, r3
 8002e8e:	3220      	adds	r2, #32
 8002e90:	4901      	ldr	r1, [pc, #4]	; (8002e98 <NVIC_Init+0x58>)
 8002e92:	e7f3      	b.n	8002e7c <NVIC_Init+0x3c>
 8002e94:	e000ed00 	.word	0xe000ed00
 8002e98:	e000e100 	.word	0xe000e100

08002e9c <SysTick_CLKSourceConfig>:
 8002e9c:	4b04      	ldr	r3, [pc, #16]	; (8002eb0 <SysTick_CLKSourceConfig+0x14>)
 8002e9e:	2804      	cmp	r0, #4
 8002ea0:	681a      	ldr	r2, [r3, #0]
 8002ea2:	bf0c      	ite	eq
 8002ea4:	f042 0204 	orreq.w	r2, r2, #4
 8002ea8:	f022 0204 	bicne.w	r2, r2, #4
 8002eac:	601a      	str	r2, [r3, #0]
 8002eae:	4770      	bx	lr
 8002eb0:	e000e010 	.word	0xe000e010

08002eb4 <FLASH_SetLatency>:
 8002eb4:	4a03      	ldr	r2, [pc, #12]	; (8002ec4 <FLASH_SetLatency+0x10>)
 8002eb6:	6813      	ldr	r3, [r2, #0]
 8002eb8:	f003 0338 	and.w	r3, r3, #56	; 0x38
 8002ebc:	4318      	orrs	r0, r3
 8002ebe:	6010      	str	r0, [r2, #0]
 8002ec0:	4770      	bx	lr
 8002ec2:	bf00      	nop
 8002ec4:	40022000 	.word	0x40022000

08002ec8 <FLASH_PrefetchBufferCmd>:
 8002ec8:	4b04      	ldr	r3, [pc, #16]	; (8002edc <FLASH_PrefetchBufferCmd+0x14>)
 8002eca:	681a      	ldr	r2, [r3, #0]
 8002ecc:	f022 0210 	bic.w	r2, r2, #16
 8002ed0:	601a      	str	r2, [r3, #0]
 8002ed2:	681a      	ldr	r2, [r3, #0]
 8002ed4:	4310      	orrs	r0, r2
 8002ed6:	6018      	str	r0, [r3, #0]
 8002ed8:	4770      	bx	lr
 8002eda:	bf00      	nop
 8002edc:	40022000 	.word	0x40022000

08002ee0 <FLASH_UnlockBank1>:
 8002ee0:	4b03      	ldr	r3, [pc, #12]	; (8002ef0 <FLASH_UnlockBank1+0x10>)
 8002ee2:	4a04      	ldr	r2, [pc, #16]	; (8002ef4 <FLASH_UnlockBank1+0x14>)
 8002ee4:	605a      	str	r2, [r3, #4]
 8002ee6:	f102 3288 	add.w	r2, r2, #2290649224	; 0x88888888
 8002eea:	605a      	str	r2, [r3, #4]
 8002eec:	4770      	bx	lr
 8002eee:	bf00      	nop
 8002ef0:	40022000 	.word	0x40022000
 8002ef4:	45670123 	.word	0x45670123

08002ef8 <FLASH_Unlock>:
 8002ef8:	f7ff bff2 	b.w	8002ee0 <FLASH_UnlockBank1>

08002efc <FLASH_LockBank1>:
 8002efc:	4a02      	ldr	r2, [pc, #8]	; (8002f08 <FLASH_LockBank1+0xc>)
 8002efe:	6913      	ldr	r3, [r2, #16]
 8002f00:	f043 0380 	orr.w	r3, r3, #128	; 0x80
 8002f04:	6113      	str	r3, [r2, #16]
 8002f06:	4770      	bx	lr
 8002f08:	40022000 	.word	0x40022000

08002f0c <FLASH_Lock>:
 8002f0c:	f7ff bff6 	b.w	8002efc <FLASH_LockBank1>

08002f10 <FLASH_GetUserOptionByte>:
 8002f10:	4b01      	ldr	r3, [pc, #4]	; (8002f18 <FLASH_GetUserOptionByte+0x8>)
 8002f12:	69d8      	ldr	r0, [r3, #28]
 8002f14:	0880      	lsrs	r0, r0, #2
 8002f16:	4770      	bx	lr
 8002f18:	40022000 	.word	0x40022000

08002f1c <FLASH_GetWriteProtectionOptionByte>:
 8002f1c:	4b01      	ldr	r3, [pc, #4]	; (8002f24 <FLASH_GetWriteProtectionOptionByte+0x8>)
 8002f1e:	6a18      	ldr	r0, [r3, #32]
 8002f20:	4770      	bx	lr
 8002f22:	bf00      	nop
 8002f24:	40022000 	.word	0x40022000

08002f28 <FLASH_GetReadOutProtectionStatus>:
 8002f28:	4b02      	ldr	r3, [pc, #8]	; (8002f34 <FLASH_GetReadOutProtectionStatus+0xc>)
 8002f2a:	69d8      	ldr	r0, [r3, #28]
 8002f2c:	f3c0 0040 	ubfx	r0, r0, #1, #1
 8002f30:	4770      	bx	lr
 8002f32:	bf00      	nop
 8002f34:	40022000 	.word	0x40022000

08002f38 <FLASH_GetBank1Status>:
 8002f38:	4b08      	ldr	r3, [pc, #32]	; (8002f5c <FLASH_GetBank1Status+0x24>)
 8002f3a:	68da      	ldr	r2, [r3, #12]
 8002f3c:	07d1      	lsls	r1, r2, #31
 8002f3e:	d409      	bmi.n	8002f54 <FLASH_GetBank1Status+0x1c>
 8002f40:	68da      	ldr	r2, [r3, #12]
 8002f42:	0752      	lsls	r2, r2, #29
 8002f44:	d408      	bmi.n	8002f58 <FLASH_GetBank1Status+0x20>
 8002f46:	68db      	ldr	r3, [r3, #12]
 8002f48:	f013 0f10 	tst.w	r3, #16
 8002f4c:	bf14      	ite	ne
 8002f4e:	2003      	movne	r0, #3
 8002f50:	2004      	moveq	r0, #4
 8002f52:	4770      	bx	lr
 8002f54:	2001      	movs	r0, #1
 8002f56:	4770      	bx	lr
 8002f58:	2002      	movs	r0, #2
 8002f5a:	4770      	bx	lr
 8002f5c:	40022000 	.word	0x40022000

08002f60 <FLASH_WaitForLastBank1Operation>:
 8002f60:	b510      	push	{r4, lr}
 8002f62:	4604      	mov	r4, r0
 8002f64:	f7ff ffe8 	bl	8002f38 <FLASH_GetBank1Status>
 8002f68:	2801      	cmp	r0, #1
 8002f6a:	d106      	bne.n	8002f7a <FLASH_WaitForLastBank1Operation+0x1a>
 8002f6c:	b90c      	cbnz	r4, 8002f72 <FLASH_WaitForLastBank1Operation+0x12>
 8002f6e:	2005      	movs	r0, #5
 8002f70:	bd10      	pop	{r4, pc}
 8002f72:	f7ff ffe1 	bl	8002f38 <FLASH_GetBank1Status>
 8002f76:	3c01      	subs	r4, #1
 8002f78:	e7f6      	b.n	8002f68 <FLASH_WaitForLastBank1Operation+0x8>
 8002f7a:	2c00      	cmp	r4, #0
 8002f7c:	bf08      	it	eq
 8002f7e:	2005      	moveq	r0, #5
 8002f80:	bd10      	pop	{r4, pc}
	...

08002f84 <FLASH_UserOptionByteConfig>:
 8002f84:	b5f8      	push	{r3, r4, r5, r6, r7, lr}
 8002f86:	4c13      	ldr	r4, [pc, #76]	; (8002fd4 <FLASH_UserOptionByteConfig+0x50>)
 8002f88:	4b13      	ldr	r3, [pc, #76]	; (8002fd8 <FLASH_UserOptionByteConfig+0x54>)
 8002f8a:	4607      	mov	r7, r0
 8002f8c:	60a3      	str	r3, [r4, #8]
 8002f8e:	f103 3388 	add.w	r3, r3, #2290649224	; 0x88888888
 8002f92:	60a3      	str	r3, [r4, #8]
 8002f94:	f44f 5000 	mov.w	r0, #8192	; 0x2000
 8002f98:	460e      	mov	r6, r1
 8002f9a:	4615      	mov	r5, r2
 8002f9c:	f7ff ffe0 	bl	8002f60 <FLASH_WaitForLastBank1Operation>
 8002fa0:	2804      	cmp	r0, #4
 8002fa2:	d115      	bne.n	8002fd0 <FLASH_UserOptionByteConfig+0x4c>
 8002fa4:	6923      	ldr	r3, [r4, #16]
 8002fa6:	f047 07f8 	orr.w	r7, r7, #248	; 0xf8
 8002faa:	f043 0310 	orr.w	r3, r3, #16
 8002fae:	6123      	str	r3, [r4, #16]
 8002fb0:	433e      	orrs	r6, r7
 8002fb2:	4b0a      	ldr	r3, [pc, #40]	; (8002fdc <FLASH_UserOptionByteConfig+0x58>)
 8002fb4:	4335      	orrs	r5, r6
 8002fb6:	805d      	strh	r5, [r3, #2]
 8002fb8:	f44f 5000 	mov.w	r0, #8192	; 0x2000
 8002fbc:	f7ff ffd0 	bl	8002f60 <FLASH_WaitForLastBank1Operation>
 8002fc0:	2805      	cmp	r0, #5
 8002fc2:	d005      	beq.n	8002fd0 <FLASH_UserOptionByteConfig+0x4c>
 8002fc4:	6923      	ldr	r3, [r4, #16]
 8002fc6:	f023 0310 	bic.w	r3, r3, #16
 8002fca:	04db      	lsls	r3, r3, #19
 8002fcc:	0cdb      	lsrs	r3, r3, #19
 8002fce:	6123      	str	r3, [r4, #16]
 8002fd0:	bdf8      	pop	{r3, r4, r5, r6, r7, pc}
 8002fd2:	bf00      	nop
 8002fd4:	40022000 	.word	0x40022000
 8002fd8:	45670123 	.word	0x45670123
 8002fdc:	1ffff800 	.word	0x1ffff800

08002fe0 <FLASH_EnableWriteProtection>:
 8002fe0:	b510      	push	{r4, lr}
 8002fe2:	4604      	mov	r4, r0
 8002fe4:	f44f 5000 	mov.w	r0, #8192	; 0x2000
 8002fe8:	f7ff ffba 	bl	8002f60 <FLASH_WaitForLastBank1Operation>
 8002fec:	2804      	cmp	r0, #4
 8002fee:	d12b      	bne.n	8003048 <FLASH_EnableWriteProtection+0x68>
 8002ff0:	43e4      	mvns	r4, r4
 8002ff2:	4b23      	ldr	r3, [pc, #140]	; (8003080 <FLASH_EnableWriteProtection+0xa0>)
 8002ff4:	4a23      	ldr	r2, [pc, #140]	; (8003084 <FLASH_EnableWriteProtection+0xa4>)
 8002ff6:	b2e1      	uxtb	r1, r4
 8002ff8:	609a      	str	r2, [r3, #8]
 8002ffa:	f102 3288 	add.w	r2, r2, #2290649224	; 0x88888888
 8002ffe:	609a      	str	r2, [r3, #8]
 8003000:	691a      	ldr	r2, [r3, #16]
 8003002:	29ff      	cmp	r1, #255	; 0xff
 8003004:	f042 0210 	orr.w	r2, r2, #16
 8003008:	611a      	str	r2, [r3, #16]
 800300a:	d113      	bne.n	8003034 <FLASH_EnableWriteProtection+0x54>
 800300c:	f3c4 2307 	ubfx	r3, r4, #8, #8
 8003010:	2bff      	cmp	r3, #255	; 0xff
 8003012:	d11a      	bne.n	800304a <FLASH_EnableWriteProtection+0x6a>
 8003014:	f3c4 4307 	ubfx	r3, r4, #16, #8
 8003018:	2bff      	cmp	r3, #255	; 0xff
 800301a:	d11f      	bne.n	800305c <FLASH_EnableWriteProtection+0x7c>
 800301c:	0e24      	lsrs	r4, r4, #24
 800301e:	2cff      	cmp	r4, #255	; 0xff
 8003020:	d125      	bne.n	800306e <FLASH_EnableWriteProtection+0x8e>
 8003022:	2004      	movs	r0, #4
 8003024:	4a16      	ldr	r2, [pc, #88]	; (8003080 <FLASH_EnableWriteProtection+0xa0>)
 8003026:	6913      	ldr	r3, [r2, #16]
 8003028:	f023 0310 	bic.w	r3, r3, #16
 800302c:	04db      	lsls	r3, r3, #19
 800302e:	0cdb      	lsrs	r3, r3, #19
 8003030:	6113      	str	r3, [r2, #16]
 8003032:	e009      	b.n	8003048 <FLASH_EnableWriteProtection+0x68>
 8003034:	4b14      	ldr	r3, [pc, #80]	; (8003088 <FLASH_EnableWriteProtection+0xa8>)
 8003036:	f44f 5000 	mov.w	r0, #8192	; 0x2000
 800303a:	8119      	strh	r1, [r3, #8]
 800303c:	f7ff ff90 	bl	8002f60 <FLASH_WaitForLastBank1Operation>
 8003040:	2804      	cmp	r0, #4
 8003042:	d0e3      	beq.n	800300c <FLASH_EnableWriteProtection+0x2c>
 8003044:	2805      	cmp	r0, #5
 8003046:	d1ed      	bne.n	8003024 <FLASH_EnableWriteProtection+0x44>
 8003048:	bd10      	pop	{r4, pc}
 800304a:	4a0f      	ldr	r2, [pc, #60]	; (8003088 <FLASH_EnableWriteProtection+0xa8>)
 800304c:	f44f 5000 	mov.w	r0, #8192	; 0x2000
 8003050:	8153      	strh	r3, [r2, #10]
 8003052:	f7ff ff85 	bl	8002f60 <FLASH_WaitForLastBank1Operation>
 8003056:	2804      	cmp	r0, #4
 8003058:	d0dc      	beq.n	8003014 <FLASH_EnableWriteProtection+0x34>
 800305a:	e7f3      	b.n	8003044 <FLASH_EnableWriteProtection+0x64>
 800305c:	4a0a      	ldr	r2, [pc, #40]	; (8003088 <FLASH_EnableWriteProtection+0xa8>)
 800305e:	f44f 5000 	mov.w	r0, #8192	; 0x2000
 8003062:	8193      	strh	r3, [r2, #12]
 8003064:	f7ff ff7c 	bl	8002f60 <FLASH_WaitForLastBank1Operation>
 8003068:	2804      	cmp	r0, #4
 800306a:	d0d7      	beq.n	800301c <FLASH_EnableWriteProtection+0x3c>
 800306c:	e7ea      	b.n	8003044 <FLASH_EnableWriteProtection+0x64>
 800306e:	4b06      	ldr	r3, [pc, #24]	; (8003088 <FLASH_EnableWriteProtection+0xa8>)
 8003070:	b2a4      	uxth	r4, r4
 8003072:	81dc      	strh	r4, [r3, #14]
 8003074:	f44f 5000 	mov.w	r0, #8192	; 0x2000
 8003078:	f7ff ff72 	bl	8002f60 <FLASH_WaitForLastBank1Operation>
 800307c:	e7e2      	b.n	8003044 <FLASH_EnableWriteProtection+0x64>
 800307e:	bf00      	nop
 8003080:	40022000 	.word	0x40022000
 8003084:	45670123 	.word	0x45670123
 8003088:	1ffff800 	.word	0x1ffff800

0800308c <FLASH_ProgramHalfWord>:
 800308c:	b570      	push	{r4, r5, r6, lr}
 800308e:	4605      	mov	r5, r0
 8003090:	f44f 5000 	mov.w	r0, #8192	; 0x2000
 8003094:	460e      	mov	r6, r1
 8003096:	f7ff ff63 	bl	8002f60 <FLASH_WaitForLastBank1Operation>
 800309a:	2804      	cmp	r0, #4
 800309c:	d10f      	bne.n	80030be <FLASH_ProgramHalfWord+0x32>
 800309e:	4c08      	ldr	r4, [pc, #32]	; (80030c0 <FLASH_ProgramHalfWord+0x34>)
 80030a0:	f44f 5000 	mov.w	r0, #8192	; 0x2000
 80030a4:	6923      	ldr	r3, [r4, #16]
 80030a6:	f043 0301 	orr.w	r3, r3, #1
 80030aa:	6123      	str	r3, [r4, #16]
 80030ac:	802e      	strh	r6, [r5, #0]
 80030ae:	f7ff ff57 	bl	8002f60 <FLASH_WaitForLastBank1Operation>
 80030b2:	6923      	ldr	r3, [r4, #16]
 80030b4:	f023 0301 	bic.w	r3, r3, #1
 80030b8:	04db      	lsls	r3, r3, #19
 80030ba:	0cdb      	lsrs	r3, r3, #19
 80030bc:	6123      	str	r3, [r4, #16]
 80030be:	bd70      	pop	{r4, r5, r6, pc}
 80030c0:	40022000 	.word	0x40022000

080030c4 <FLASH_ProgramWord>:
 80030c4:	2300      	movs	r3, #0
 80030c6:	b573      	push	{r0, r1, r4, r5, r6, lr}
 80030c8:	4606      	mov	r6, r0
 80030ca:	f44f 5000 	mov.w	r0, #8192	; 0x2000
 80030ce:	460d      	mov	r5, r1
 80030d0:	9301      	str	r3, [sp, #4]
 80030d2:	f7ff ff45 	bl	8002f60 <FLASH_WaitForLastBank1Operation>
 80030d6:	2804      	cmp	r0, #4
 80030d8:	d11b      	bne.n	8003112 <FLASH_ProgramWord+0x4e>
 80030da:	4c0f      	ldr	r4, [pc, #60]	; (8003118 <FLASH_ProgramWord+0x54>)
 80030dc:	f44f 5000 	mov.w	r0, #8192	; 0x2000
 80030e0:	6923      	ldr	r3, [r4, #16]
 80030e2:	f043 0301 	orr.w	r3, r3, #1
 80030e6:	6123      	str	r3, [r4, #16]
 80030e8:	b2ab      	uxth	r3, r5
 80030ea:	8033      	strh	r3, [r6, #0]
 80030ec:	f7ff ff38 	bl	8002f60 <FLASH_WaitForLastBank1Operation>
 80030f0:	2804      	cmp	r0, #4
 80030f2:	d108      	bne.n	8003106 <FLASH_ProgramWord+0x42>
 80030f4:	3602      	adds	r6, #2
 80030f6:	9601      	str	r6, [sp, #4]
 80030f8:	9b01      	ldr	r3, [sp, #4]
 80030fa:	0c2d      	lsrs	r5, r5, #16
 80030fc:	801d      	strh	r5, [r3, #0]
 80030fe:	f44f 5000 	mov.w	r0, #8192	; 0x2000
 8003102:	f7ff ff2d 	bl	8002f60 <FLASH_WaitForLastBank1Operation>
 8003106:	6923      	ldr	r3, [r4, #16]
 8003108:	f023 0301 	bic.w	r3, r3, #1
 800310c:	04db      	lsls	r3, r3, #19
 800310e:	0cdb      	lsrs	r3, r3, #19
 8003110:	6123      	str	r3, [r4, #16]
 8003112:	b002      	add	sp, #8
 8003114:	bd70      	pop	{r4, r5, r6, pc}
 8003116:	bf00      	nop
 8003118:	40022000 	.word	0x40022000

0800311c <FLASH_EraseOptionBytes>:
 800311c:	b538      	push	{r3, r4, r5, lr}
 800311e:	f7ff ff03 	bl	8002f28 <FLASH_GetReadOutProtectionStatus>
 8003122:	2800      	cmp	r0, #0
 8003124:	f44f 2030 	mov.w	r0, #720896	; 0xb0000
 8003128:	bf0c      	ite	eq
 800312a:	25a5      	moveq	r5, #165	; 0xa5
 800312c:	2500      	movne	r5, #0
 800312e:	f7ff ff17 	bl	8002f60 <FLASH_WaitForLastBank1Operation>
 8003132:	2804      	cmp	r0, #4
 8003134:	d12b      	bne.n	800318e <FLASH_EraseOptionBytes+0x72>
 8003136:	4c16      	ldr	r4, [pc, #88]	; (8003190 <FLASH_EraseOptionBytes+0x74>)
 8003138:	4b16      	ldr	r3, [pc, #88]	; (8003194 <FLASH_EraseOptionBytes+0x78>)
 800313a:	f44f 2030 	mov.w	r0, #720896	; 0xb0000
 800313e:	60a3      	str	r3, [r4, #8]
 8003140:	f103 3388 	add.w	r3, r3, #2290649224	; 0x88888888
 8003144:	60a3      	str	r3, [r4, #8]
 8003146:	6923      	ldr	r3, [r4, #16]
 8003148:	f043 0320 	orr.w	r3, r3, #32
 800314c:	6123      	str	r3, [r4, #16]
 800314e:	6923      	ldr	r3, [r4, #16]
 8003150:	f043 0340 	orr.w	r3, r3, #64	; 0x40
 8003154:	6123      	str	r3, [r4, #16]
 8003156:	f7ff ff03 	bl	8002f60 <FLASH_WaitForLastBank1Operation>
 800315a:	2804      	cmp	r0, #4
 800315c:	d10f      	bne.n	800317e <FLASH_EraseOptionBytes+0x62>
 800315e:	6923      	ldr	r3, [r4, #16]
 8003160:	f44f 5000 	mov.w	r0, #8192	; 0x2000
 8003164:	f023 0320 	bic.w	r3, r3, #32
 8003168:	04db      	lsls	r3, r3, #19
 800316a:	0cdb      	lsrs	r3, r3, #19
 800316c:	6123      	str	r3, [r4, #16]
 800316e:	6923      	ldr	r3, [r4, #16]
 8003170:	f043 0310 	orr.w	r3, r3, #16
 8003174:	6123      	str	r3, [r4, #16]
 8003176:	4b08      	ldr	r3, [pc, #32]	; (8003198 <FLASH_EraseOptionBytes+0x7c>)
 8003178:	801d      	strh	r5, [r3, #0]
 800317a:	f7ff fef1 	bl	8002f60 <FLASH_WaitForLastBank1Operation>
 800317e:	2805      	cmp	r0, #5
 8003180:	d005      	beq.n	800318e <FLASH_EraseOptionBytes+0x72>
 8003182:	6923      	ldr	r3, [r4, #16]
 8003184:	f023 0310 	bic.w	r3, r3, #16
 8003188:	04db      	lsls	r3, r3, #19
 800318a:	0cdb      	lsrs	r3, r3, #19
 800318c:	6123      	str	r3, [r4, #16]
 800318e:	bd38      	pop	{r3, r4, r5, pc}
 8003190:	40022000 	.word	0x40022000
 8003194:	45670123 	.word	0x45670123
 8003198:	1ffff800 	.word	0x1ffff800

0800319c <FLASH_ErasePage>:
 800319c:	b538      	push	{r3, r4, r5, lr}
 800319e:	4605      	mov	r5, r0
 80031a0:	f44f 2030 	mov.w	r0, #720896	; 0xb0000
 80031a4:	f7ff fedc 	bl	8002f60 <FLASH_WaitForLastBank1Operation>
 80031a8:	2804      	cmp	r0, #4
 80031aa:	d113      	bne.n	80031d4 <FLASH_ErasePage+0x38>
 80031ac:	4c0a      	ldr	r4, [pc, #40]	; (80031d8 <FLASH_ErasePage+0x3c>)
 80031ae:	f44f 2030 	mov.w	r0, #720896	; 0xb0000
 80031b2:	6923      	ldr	r3, [r4, #16]
 80031b4:	f043 0302 	orr.w	r3, r3, #2
 80031b8:	6123      	str	r3, [r4, #16]
 80031ba:	6165      	str	r5, [r4, #20]
 80031bc:	6923      	ldr	r3, [r4, #16]
 80031be:	f043 0340 	orr.w	r3, r3, #64	; 0x40
 80031c2:	6123      	str	r3, [r4, #16]
 80031c4:	f7ff fecc 	bl	8002f60 <FLASH_WaitForLastBank1Operation>
 80031c8:	6923      	ldr	r3, [r4, #16]
 80031ca:	f023 0302 	bic.w	r3, r3, #2
 80031ce:	04db      	lsls	r3, r3, #19
 80031d0:	0cdb      	lsrs	r3, r3, #19
 80031d2:	6123      	str	r3, [r4, #16]
 80031d4:	bd38      	pop	{r3, r4, r5, pc}
 80031d6:	bf00      	nop
 80031d8:	40022000 	.word	0x40022000

080031dc <GPIO_Init>:
 80031dc:	78cb      	ldrb	r3, [r1, #3]
 80031de:	e92d 41f0 	stmdb	sp!, {r4, r5, r6, r7, r8, lr}
 80031e2:	06da      	lsls	r2, r3, #27
 80031e4:	bf48      	it	mi
 80031e6:	788a      	ldrbmi	r2, [r1, #2]
 80031e8:	880e      	ldrh	r6, [r1, #0]
 80031ea:	f003 050f 	and.w	r5, r3, #15
 80031ee:	bf48      	it	mi
 80031f0:	4315      	orrmi	r5, r2
 80031f2:	f016 0fff 	tst.w	r6, #255	; 0xff
 80031f6:	d01a      	beq.n	800322e <GPIO_Init+0x52>
 80031f8:	2100      	movs	r1, #0
 80031fa:	f04f 0e01 	mov.w	lr, #1
 80031fe:	f04f 0c0f 	mov.w	ip, #15
 8003202:	6802      	ldr	r2, [r0, #0]
 8003204:	fa0e f701 	lsl.w	r7, lr, r1
 8003208:	ea37 0406 	bics.w	r4, r7, r6
 800320c:	d10b      	bne.n	8003226 <GPIO_Init+0x4a>
 800320e:	008c      	lsls	r4, r1, #2
 8003210:	fa0c f804 	lsl.w	r8, ip, r4
 8003214:	ea22 0208 	bic.w	r2, r2, r8
 8003218:	fa05 f404 	lsl.w	r4, r5, r4
 800321c:	2b28      	cmp	r3, #40	; 0x28
 800321e:	ea42 0204 	orr.w	r2, r2, r4
 8003222:	d125      	bne.n	8003270 <GPIO_Init+0x94>
 8003224:	6147      	str	r7, [r0, #20]
 8003226:	3101      	adds	r1, #1
 8003228:	2908      	cmp	r1, #8
 800322a:	d1eb      	bne.n	8003204 <GPIO_Init+0x28>
 800322c:	6002      	str	r2, [r0, #0]
 800322e:	2eff      	cmp	r6, #255	; 0xff
 8003230:	d91c      	bls.n	800326c <GPIO_Init+0x90>
 8003232:	2100      	movs	r1, #0
 8003234:	f04f 0e01 	mov.w	lr, #1
 8003238:	f04f 0c0f 	mov.w	ip, #15
 800323c:	6842      	ldr	r2, [r0, #4]
 800323e:	f101 0408 	add.w	r4, r1, #8
 8003242:	fa0e f404 	lsl.w	r4, lr, r4
 8003246:	ea34 0706 	bics.w	r7, r4, r6
 800324a:	d10b      	bne.n	8003264 <GPIO_Init+0x88>
 800324c:	008f      	lsls	r7, r1, #2
 800324e:	fa0c f807 	lsl.w	r8, ip, r7
 8003252:	ea22 0208 	bic.w	r2, r2, r8
 8003256:	fa05 f707 	lsl.w	r7, r5, r7
 800325a:	2b28      	cmp	r3, #40	; 0x28
 800325c:	ea42 0207 	orr.w	r2, r2, r7
 8003260:	d10a      	bne.n	8003278 <GPIO_Init+0x9c>
 8003262:	6144      	str	r4, [r0, #20]
 8003264:	3101      	adds	r1, #1
 8003266:	2908      	cmp	r1, #8
 8003268:	d1e9      	bne.n	800323e <GPIO_Init+0x62>
 800326a:	6042      	str	r2, [r0, #4]
 800326c:	e8bd 81f0 	ldmia.w	sp!, {r4, r5, r6, r7, r8, pc}
 8003270:	2b48      	cmp	r3, #72	; 0x48
 8003272:	bf08      	it	eq
 8003274:	6107      	streq	r7, [r0, #16]
 8003276:	e7d6      	b.n	8003226 <GPIO_Init+0x4a>
 8003278:	2b48      	cmp	r3, #72	; 0x48
 800327a:	bf08      	it	eq
 800327c:	6104      	streq	r4, [r0, #16]
 800327e:	e7f1      	b.n	8003264 <GPIO_Init+0x88>

08003280 <GPIO_SetBits>:
 8003280:	6101      	str	r1, [r0, #16]
 8003282:	4770      	bx	lr

08003284 <GPIO_ResetBits>:
 8003284:	6141      	str	r1, [r0, #20]
 8003286:	4770      	bx	lr

08003288 <GPIO_PinRemapConfig>:
 8003288:	2800      	cmp	r0, #0
 800328a:	4a16      	ldr	r2, [pc, #88]	; (80032e4 <GPIO_PinRemapConfig+0x5c>)
 800328c:	b530      	push	{r4, r5, lr}
 800328e:	f400 1540 	and.w	r5, r0, #3145728	; 0x300000
 8003292:	bfb4      	ite	lt
 8003294:	69d3      	ldrlt	r3, [r2, #28]
 8003296:	6853      	ldrge	r3, [r2, #4]
 8003298:	f5b5 1f40 	cmp.w	r5, #3145728	; 0x300000
 800329c:	b284      	uxth	r4, r0
 800329e:	d110      	bne.n	80032c2 <GPIO_PinRemapConfig+0x3a>
 80032a0:	6855      	ldr	r5, [r2, #4]
 80032a2:	f023 6370 	bic.w	r3, r3, #251658240	; 0xf000000
 80032a6:	f025 6570 	bic.w	r5, r5, #251658240	; 0xf000000
 80032aa:	6055      	str	r5, [r2, #4]
 80032ac:	b119      	cbz	r1, 80032b6 <GPIO_PinRemapConfig+0x2e>
 80032ae:	0d42      	lsrs	r2, r0, #21
 80032b0:	0112      	lsls	r2, r2, #4
 80032b2:	4094      	lsls	r4, r2
 80032b4:	4323      	orrs	r3, r4
 80032b6:	4a0b      	ldr	r2, [pc, #44]	; (80032e4 <GPIO_PinRemapConfig+0x5c>)
 80032b8:	2800      	cmp	r0, #0
 80032ba:	bfb4      	ite	lt
 80032bc:	61d3      	strlt	r3, [r2, #28]
 80032be:	6053      	strge	r3, [r2, #4]
 80032c0:	bd30      	pop	{r4, r5, pc}
 80032c2:	02c2      	lsls	r2, r0, #11
 80032c4:	bf4d      	iteet	mi
 80032c6:	2203      	movmi	r2, #3
 80032c8:	0d42      	lsrpl	r2, r0, #21
 80032ca:	0112      	lslpl	r2, r2, #4
 80032cc:	f3c0 4503 	ubfxmi	r5, r0, #16, #4
 80032d0:	bf4c      	ite	mi
 80032d2:	40aa      	lslmi	r2, r5
 80032d4:	fa04 f202 	lslpl.w	r2, r4, r2
 80032d8:	ea23 0302 	bic.w	r3, r3, r2
 80032dc:	f043 6370 	orr.w	r3, r3, #251658240	; 0xf000000
 80032e0:	e7e4      	b.n	80032ac <GPIO_PinRemapConfig+0x24>
 80032e2:	bf00      	nop
 80032e4:	40010000 	.word	0x40010000

080032e8 <RCC_DeInit>:
 80032e8:	4b0d      	ldr	r3, [pc, #52]	; (8003320 <RCC_DeInit+0x38>)
 80032ea:	681a      	ldr	r2, [r3, #0]
 80032ec:	f042 0201 	orr.w	r2, r2, #1
 80032f0:	601a      	str	r2, [r3, #0]
 80032f2:	6859      	ldr	r1, [r3, #4]
 80032f4:	4a0b      	ldr	r2, [pc, #44]	; (8003324 <RCC_DeInit+0x3c>)
 80032f6:	400a      	ands	r2, r1
 80032f8:	605a      	str	r2, [r3, #4]
 80032fa:	681a      	ldr	r2, [r3, #0]
 80032fc:	f022 7284 	bic.w	r2, r2, #17301504	; 0x1080000
 8003300:	f422 3280 	bic.w	r2, r2, #65536	; 0x10000
 8003304:	601a      	str	r2, [r3, #0]
 8003306:	681a      	ldr	r2, [r3, #0]
 8003308:	f422 2280 	bic.w	r2, r2, #262144	; 0x40000
 800330c:	601a      	str	r2, [r3, #0]
 800330e:	685a      	ldr	r2, [r3, #4]
 8003310:	f422 02fe 	bic.w	r2, r2, #8323072	; 0x7f0000
 8003314:	605a      	str	r2, [r3, #4]
 8003316:	f44f 021f 	mov.w	r2, #10420224	; 0x9f0000
 800331a:	609a      	str	r2, [r3, #8]
 800331c:	4770      	bx	lr
 800331e:	bf00      	nop
 8003320:	40021000 	.word	0x40021000
 8003324:	f8ff0000 	.word	0xf8ff0000

08003328 <RCC_HSICmd>:
 8003328:	4b01      	ldr	r3, [pc, #4]	; (8003330 <RCC_HSICmd+0x8>)
 800332a:	6018      	str	r0, [r3, #0]
 800332c:	4770      	bx	lr
 800332e:	bf00      	nop
 8003330:	42420000 	.word	0x42420000

08003334 <RCC_PLLConfig>:
 8003334:	4a03      	ldr	r2, [pc, #12]	; (8003344 <RCC_PLLConfig+0x10>)
 8003336:	6853      	ldr	r3, [r2, #4]
 8003338:	f423 137c 	bic.w	r3, r3, #4128768	; 0x3f0000
 800333c:	4319      	orrs	r1, r3
 800333e:	4301      	orrs	r1, r0
 8003340:	6051      	str	r1, [r2, #4]
 8003342:	4770      	bx	lr
 8003344:	40021000 	.word	0x40021000

08003348 <RCC_PLLCmd>:
 8003348:	4b01      	ldr	r3, [pc, #4]	; (8003350 <RCC_PLLCmd+0x8>)
 800334a:	6018      	str	r0, [r3, #0]
 800334c:	4770      	bx	lr
 800334e:	bf00      	nop
 8003350:	42420060 	.word	0x42420060

08003354 <RCC_SYSCLKConfig>:
 8003354:	4a03      	ldr	r2, [pc, #12]	; (8003364 <RCC_SYSCLKConfig+0x10>)
 8003356:	6853      	ldr	r3, [r2, #4]
 8003358:	f023 0303 	bic.w	r3, r3, #3
 800335c:	4318      	orrs	r0, r3
 800335e:	6050      	str	r0, [r2, #4]
 8003360:	4770      	bx	lr
 8003362:	bf00      	nop
 8003364:	40021000 	.word	0x40021000

08003368 <RCC_GetSYSCLKSource>:
 8003368:	4b02      	ldr	r3, [pc, #8]	; (8003374 <RCC_GetSYSCLKSource+0xc>)
 800336a:	6858      	ldr	r0, [r3, #4]
 800336c:	f000 000c 	and.w	r0, r0, #12
 8003370:	4770      	bx	lr
 8003372:	bf00      	nop
 8003374:	40021000 	.word	0x40021000

08003378 <RCC_HCLKConfig>:
 8003378:	4a03      	ldr	r2, [pc, #12]	; (8003388 <RCC_HCLKConfig+0x10>)
 800337a:	6853      	ldr	r3, [r2, #4]
 800337c:	f023 03f0 	bic.w	r3, r3, #240	; 0xf0
 8003380:	4318      	orrs	r0, r3
 8003382:	6050      	str	r0, [r2, #4]
 8003384:	4770      	bx	lr
 8003386:	bf00      	nop
 8003388:	40021000 	.word	0x40021000

0800338c <RCC_PCLK1Config>:
 800338c:	4a03      	ldr	r2, [pc, #12]	; (800339c <RCC_PCLK1Config+0x10>)
 800338e:	6853      	ldr	r3, [r2, #4]
 8003390:	f423 63e0 	bic.w	r3, r3, #1792	; 0x700
 8003394:	4318      	orrs	r0, r3
 8003396:	6050      	str	r0, [r2, #4]
 8003398:	4770      	bx	lr
 800339a:	bf00      	nop
 800339c:	40021000 	.word	0x40021000

080033a0 <RCC_PCLK2Config>:
 80033a0:	4a03      	ldr	r2, [pc, #12]	; (80033b0 <RCC_PCLK2Config+0x10>)
 80033a2:	6853      	ldr	r3, [r2, #4]
 80033a4:	f423 5360 	bic.w	r3, r3, #14336	; 0x3800
 80033a8:	ea43 00c0 	orr.w	r0, r3, r0, lsl #3
 80033ac:	6050      	str	r0, [r2, #4]
 80033ae:	4770      	bx	lr
 80033b0:	40021000 	.word	0x40021000

080033b4 <RCC_GetClocksFreq>:
 80033b4:	4a1c      	ldr	r2, [pc, #112]	; (8003428 <RCC_GetClocksFreq+0x74>)
 80033b6:	b510      	push	{r4, lr}
 80033b8:	6853      	ldr	r3, [r2, #4]
 80033ba:	f003 030c 	and.w	r3, r3, #12
 80033be:	2b04      	cmp	r3, #4
 80033c0:	d001      	beq.n	80033c6 <RCC_GetClocksFreq+0x12>
 80033c2:	2b08      	cmp	r3, #8
 80033c4:	d01f      	beq.n	8003406 <RCC_GetClocksFreq+0x52>
 80033c6:	4b19      	ldr	r3, [pc, #100]	; (800342c <RCC_GetClocksFreq+0x78>)
 80033c8:	6003      	str	r3, [r0, #0]
 80033ca:	6853      	ldr	r3, [r2, #4]
 80033cc:	4c18      	ldr	r4, [pc, #96]	; (8003430 <RCC_GetClocksFreq+0x7c>)
 80033ce:	f3c3 1303 	ubfx	r3, r3, #4, #4
 80033d2:	5ce1      	ldrb	r1, [r4, r3]
 80033d4:	6803      	ldr	r3, [r0, #0]
 80033d6:	40cb      	lsrs	r3, r1
 80033d8:	6043      	str	r3, [r0, #4]
 80033da:	6851      	ldr	r1, [r2, #4]
 80033dc:	f3c1 2102 	ubfx	r1, r1, #8, #3
 80033e0:	5c61      	ldrb	r1, [r4, r1]
 80033e2:	fa23 f101 	lsr.w	r1, r3, r1
 80033e6:	6081      	str	r1, [r0, #8]
 80033e8:	6851      	ldr	r1, [r2, #4]
 80033ea:	f3c1 21c2 	ubfx	r1, r1, #11, #3
 80033ee:	5c61      	ldrb	r1, [r4, r1]
 80033f0:	40cb      	lsrs	r3, r1
 80033f2:	60c3      	str	r3, [r0, #12]
 80033f4:	6852      	ldr	r2, [r2, #4]
 80033f6:	490f      	ldr	r1, [pc, #60]	; (8003434 <RCC_GetClocksFreq+0x80>)
 80033f8:	f3c2 3281 	ubfx	r2, r2, #14, #2
 80033fc:	5c8a      	ldrb	r2, [r1, r2]
 80033fe:	fbb3 f3f2 	udiv	r3, r3, r2
 8003402:	6103      	str	r3, [r0, #16]
 8003404:	bd10      	pop	{r4, pc}
 8003406:	6853      	ldr	r3, [r2, #4]
 8003408:	6851      	ldr	r1, [r2, #4]
 800340a:	f3c3 4383 	ubfx	r3, r3, #18, #4
 800340e:	03cc      	lsls	r4, r1, #15
 8003410:	f103 0302 	add.w	r3, r3, #2
 8003414:	d402      	bmi.n	800341c <RCC_GetClocksFreq+0x68>
 8003416:	4908      	ldr	r1, [pc, #32]	; (8003438 <RCC_GetClocksFreq+0x84>)
 8003418:	434b      	muls	r3, r1
 800341a:	e7d5      	b.n	80033c8 <RCC_GetClocksFreq+0x14>
 800341c:	6851      	ldr	r1, [r2, #4]
 800341e:	0389      	lsls	r1, r1, #14
 8003420:	d4f9      	bmi.n	8003416 <RCC_GetClocksFreq+0x62>
 8003422:	4902      	ldr	r1, [pc, #8]	; (800342c <RCC_GetClocksFreq+0x78>)
 8003424:	e7f8      	b.n	8003418 <RCC_GetClocksFreq+0x64>
 8003426:	bf00      	nop
 8003428:	40021000 	.word	0x40021000
 800342c:	007a1200 	.word	0x007a1200
 8003430:	2000004c 	.word	0x2000004c
 8003434:	20000048 	.word	0x20000048
 8003438:	003d0900 	.word	0x003d0900

0800343c <RCC_APB2PeriphClockCmd>:
 800343c:	4b04      	ldr	r3, [pc, #16]	; (8003450 <RCC_APB2PeriphClockCmd+0x14>)
 800343e:	699a      	ldr	r2, [r3, #24]
 8003440:	b111      	cbz	r1, 8003448 <RCC_APB2PeriphClockCmd+0xc>
 8003442:	4310      	orrs	r0, r2
 8003444:	6198      	str	r0, [r3, #24]
 8003446:	4770      	bx	lr
 8003448:	ea22 0000 	bic.w	r0, r2, r0
 800344c:	e7fa      	b.n	8003444 <RCC_APB2PeriphClockCmd+0x8>
 800344e:	bf00      	nop
 8003450:	40021000 	.word	0x40021000

08003454 <RCC_APB1PeriphClockCmd>:
 8003454:	4b04      	ldr	r3, [pc, #16]	; (8003468 <RCC_APB1PeriphClockCmd+0x14>)
 8003456:	69da      	ldr	r2, [r3, #28]
 8003458:	b111      	cbz	r1, 8003460 <RCC_APB1PeriphClockCmd+0xc>
 800345a:	4310      	orrs	r0, r2
 800345c:	61d8      	str	r0, [r3, #28]
 800345e:	4770      	bx	lr
 8003460:	ea22 0000 	bic.w	r0, r2, r0
 8003464:	e7fa      	b.n	800345c <RCC_APB1PeriphClockCmd+0x8>
 8003466:	bf00      	nop
 8003468:	40021000 	.word	0x40021000

0800346c <RCC_APB2PeriphResetCmd>:
 800346c:	4b04      	ldr	r3, [pc, #16]	; (8003480 <RCC_APB2PeriphResetCmd+0x14>)
 800346e:	68da      	ldr	r2, [r3, #12]
 8003470:	b111      	cbz	r1, 8003478 <RCC_APB2PeriphResetCmd+0xc>
 8003472:	4310      	orrs	r0, r2
 8003474:	60d8      	str	r0, [r3, #12]
 8003476:	4770      	bx	lr
 8003478:	ea22 0000 	bic.w	r0, r2, r0
 800347c:	e7fa      	b.n	8003474 <RCC_APB2PeriphResetCmd+0x8>
 800347e:	bf00      	nop
 8003480:	40021000 	.word	0x40021000

08003484 <RCC_APB1PeriphResetCmd>:
 8003484:	4b04      	ldr	r3, [pc, #16]	; (8003498 <RCC_APB1PeriphResetCmd+0x14>)
 8003486:	691a      	ldr	r2, [r3, #16]
 8003488:	b111      	cbz	r1, 8003490 <RCC_APB1PeriphResetCmd+0xc>
 800348a:	4310      	orrs	r0, r2
 800348c:	6118      	str	r0, [r3, #16]
 800348e:	4770      	bx	lr
 8003490:	ea22 0000 	bic.w	r0, r2, r0
 8003494:	e7fa      	b.n	800348c <RCC_APB1PeriphResetCmd+0x8>
 8003496:	bf00      	nop
 8003498:	40021000 	.word	0x40021000

0800349c <RCC_GetFlagStatus>:
 800349c:	0942      	lsrs	r2, r0, #5
 800349e:	2a01      	cmp	r2, #1
 80034a0:	4b07      	ldr	r3, [pc, #28]	; (80034c0 <RCC_GetFlagStatus+0x24>)
 80034a2:	d107      	bne.n	80034b4 <RCC_GetFlagStatus+0x18>
 80034a4:	681b      	ldr	r3, [r3, #0]
 80034a6:	f000 001f 	and.w	r0, r0, #31
 80034aa:	fa23 f000 	lsr.w	r0, r3, r0
 80034ae:	f000 0001 	and.w	r0, r0, #1
 80034b2:	4770      	bx	lr
 80034b4:	2a02      	cmp	r2, #2
 80034b6:	bf0c      	ite	eq
 80034b8:	6a1b      	ldreq	r3, [r3, #32]
 80034ba:	6a5b      	ldrne	r3, [r3, #36]	; 0x24
 80034bc:	e7f3      	b.n	80034a6 <RCC_GetFlagStatus+0xa>
 80034be:	bf00      	nop
 80034c0:	40021000 	.word	0x40021000

080034c4 <TIM_DeInit>:
 80034c4:	b508      	push	{r3, lr}
 80034c6:	4b61      	ldr	r3, [pc, #388]	; (800364c <TIM_DeInit+0x188>)
 80034c8:	4298      	cmp	r0, r3
 80034ca:	d10b      	bne.n	80034e4 <TIM_DeInit+0x20>
 80034cc:	2101      	movs	r1, #1
 80034ce:	f44f 6000 	mov.w	r0, #2048	; 0x800
 80034d2:	f7ff ffcb 	bl	800346c <RCC_APB2PeriphResetCmd>
 80034d6:	2100      	movs	r1, #0
 80034d8:	f44f 6000 	mov.w	r0, #2048	; 0x800
 80034dc:	e8bd 4008 	ldmia.w	sp!, {r3, lr}
 80034e0:	f7ff bfc4 	b.w	800346c <RCC_APB2PeriphResetCmd>
 80034e4:	f1b0 4f80 	cmp.w	r0, #1073741824	; 0x40000000
 80034e8:	d109      	bne.n	80034fe <TIM_DeInit+0x3a>
 80034ea:	2101      	movs	r1, #1
 80034ec:	4608      	mov	r0, r1
 80034ee:	f7ff ffc9 	bl	8003484 <RCC_APB1PeriphResetCmd>
 80034f2:	2100      	movs	r1, #0
 80034f4:	2001      	movs	r0, #1
 80034f6:	e8bd 4008 	ldmia.w	sp!, {r3, lr}
 80034fa:	f7ff bfc3 	b.w	8003484 <RCC_APB1PeriphResetCmd>
 80034fe:	4b54      	ldr	r3, [pc, #336]	; (8003650 <TIM_DeInit+0x18c>)
 8003500:	4298      	cmp	r0, r3
 8003502:	d106      	bne.n	8003512 <TIM_DeInit+0x4e>
 8003504:	2101      	movs	r1, #1
 8003506:	2002      	movs	r0, #2
 8003508:	f7ff ffbc 	bl	8003484 <RCC_APB1PeriphResetCmd>
 800350c:	2100      	movs	r1, #0
 800350e:	2002      	movs	r0, #2
 8003510:	e7f1      	b.n	80034f6 <TIM_DeInit+0x32>
 8003512:	4b50      	ldr	r3, [pc, #320]	; (8003654 <TIM_DeInit+0x190>)
 8003514:	4298      	cmp	r0, r3
 8003516:	d106      	bne.n	8003526 <TIM_DeInit+0x62>
 8003518:	2101      	movs	r1, #1
 800351a:	2004      	movs	r0, #4
 800351c:	f7ff ffb2 	bl	8003484 <RCC_APB1PeriphResetCmd>
 8003520:	2100      	movs	r1, #0
 8003522:	2004      	movs	r0, #4
 8003524:	e7e7      	b.n	80034f6 <TIM_DeInit+0x32>
 8003526:	4b4c      	ldr	r3, [pc, #304]	; (8003658 <TIM_DeInit+0x194>)
 8003528:	4298      	cmp	r0, r3
 800352a:	d106      	bne.n	800353a <TIM_DeInit+0x76>
 800352c:	2101      	movs	r1, #1
 800352e:	2008      	movs	r0, #8
 8003530:	f7ff ffa8 	bl	8003484 <RCC_APB1PeriphResetCmd>
 8003534:	2100      	movs	r1, #0
 8003536:	2008      	movs	r0, #8
 8003538:	e7dd      	b.n	80034f6 <TIM_DeInit+0x32>
 800353a:	4b48      	ldr	r3, [pc, #288]	; (800365c <TIM_DeInit+0x198>)
 800353c:	4298      	cmp	r0, r3
 800353e:	d106      	bne.n	800354e <TIM_DeInit+0x8a>
 8003540:	2101      	movs	r1, #1
 8003542:	2010      	movs	r0, #16
 8003544:	f7ff ff9e 	bl	8003484 <RCC_APB1PeriphResetCmd>
 8003548:	2100      	movs	r1, #0
 800354a:	2010      	movs	r0, #16
 800354c:	e7d3      	b.n	80034f6 <TIM_DeInit+0x32>
 800354e:	4b44      	ldr	r3, [pc, #272]	; (8003660 <TIM_DeInit+0x19c>)
 8003550:	4298      	cmp	r0, r3
 8003552:	d106      	bne.n	8003562 <TIM_DeInit+0x9e>
 8003554:	2101      	movs	r1, #1
 8003556:	2020      	movs	r0, #32
 8003558:	f7ff ff94 	bl	8003484 <RCC_APB1PeriphResetCmd>
 800355c:	2100      	movs	r1, #0
 800355e:	2020      	movs	r0, #32
 8003560:	e7c9      	b.n	80034f6 <TIM_DeInit+0x32>
 8003562:	4b40      	ldr	r3, [pc, #256]	; (8003664 <TIM_DeInit+0x1a0>)
 8003564:	4298      	cmp	r0, r3
 8003566:	d108      	bne.n	800357a <TIM_DeInit+0xb6>
 8003568:	2101      	movs	r1, #1
 800356a:	f44f 5000 	mov.w	r0, #8192	; 0x2000
 800356e:	f7ff ff7d 	bl	800346c <RCC_APB2PeriphResetCmd>
 8003572:	2100      	movs	r1, #0
 8003574:	f44f 5000 	mov.w	r0, #8192	; 0x2000
 8003578:	e7b0      	b.n	80034dc <TIM_DeInit+0x18>
 800357a:	4b3b      	ldr	r3, [pc, #236]	; (8003668 <TIM_DeInit+0x1a4>)
 800357c:	4298      	cmp	r0, r3
 800357e:	d108      	bne.n	8003592 <TIM_DeInit+0xce>
 8003580:	2101      	movs	r1, #1
 8003582:	f44f 2000 	mov.w	r0, #524288	; 0x80000
 8003586:	f7ff ff71 	bl	800346c <RCC_APB2PeriphResetCmd>
 800358a:	2100      	movs	r1, #0
 800358c:	f44f 2000 	mov.w	r0, #524288	; 0x80000
 8003590:	e7a4      	b.n	80034dc <TIM_DeInit+0x18>
 8003592:	4b36      	ldr	r3, [pc, #216]	; (800366c <TIM_DeInit+0x1a8>)
 8003594:	4298      	cmp	r0, r3
 8003596:	d108      	bne.n	80035aa <TIM_DeInit+0xe6>
 8003598:	2101      	movs	r1, #1
 800359a:	f44f 1080 	mov.w	r0, #1048576	; 0x100000
 800359e:	f7ff ff65 	bl	800346c <RCC_APB2PeriphResetCmd>
 80035a2:	2100      	movs	r1, #0
 80035a4:	f44f 1080 	mov.w	r0, #1048576	; 0x100000
 80035a8:	e798      	b.n	80034dc <TIM_DeInit+0x18>
 80035aa:	4b31      	ldr	r3, [pc, #196]	; (8003670 <TIM_DeInit+0x1ac>)
 80035ac:	4298      	cmp	r0, r3
 80035ae:	d108      	bne.n	80035c2 <TIM_DeInit+0xfe>
 80035b0:	2101      	movs	r1, #1
 80035b2:	f44f 1000 	mov.w	r0, #2097152	; 0x200000
 80035b6:	f7ff ff59 	bl	800346c <RCC_APB2PeriphResetCmd>
 80035ba:	2100      	movs	r1, #0
 80035bc:	f44f 1000 	mov.w	r0, #2097152	; 0x200000
 80035c0:	e78c      	b.n	80034dc <TIM_DeInit+0x18>
 80035c2:	4b2c      	ldr	r3, [pc, #176]	; (8003674 <TIM_DeInit+0x1b0>)
 80035c4:	4298      	cmp	r0, r3
 80035c6:	d106      	bne.n	80035d6 <TIM_DeInit+0x112>
 80035c8:	2101      	movs	r1, #1
 80035ca:	2040      	movs	r0, #64	; 0x40
 80035cc:	f7ff ff5a 	bl	8003484 <RCC_APB1PeriphResetCmd>
 80035d0:	2100      	movs	r1, #0
 80035d2:	2040      	movs	r0, #64	; 0x40
 80035d4:	e78f      	b.n	80034f6 <TIM_DeInit+0x32>
 80035d6:	4b28      	ldr	r3, [pc, #160]	; (8003678 <TIM_DeInit+0x1b4>)
 80035d8:	4298      	cmp	r0, r3
 80035da:	d106      	bne.n	80035ea <TIM_DeInit+0x126>
 80035dc:	2101      	movs	r1, #1
 80035de:	2080      	movs	r0, #128	; 0x80
 80035e0:	f7ff ff50 	bl	8003484 <RCC_APB1PeriphResetCmd>
 80035e4:	2100      	movs	r1, #0
 80035e6:	2080      	movs	r0, #128	; 0x80
 80035e8:	e785      	b.n	80034f6 <TIM_DeInit+0x32>
 80035ea:	4b24      	ldr	r3, [pc, #144]	; (800367c <TIM_DeInit+0x1b8>)
 80035ec:	4298      	cmp	r0, r3
 80035ee:	d108      	bne.n	8003602 <TIM_DeInit+0x13e>
 80035f0:	2101      	movs	r1, #1
 80035f2:	f44f 7080 	mov.w	r0, #256	; 0x100
 80035f6:	f7ff ff45 	bl	8003484 <RCC_APB1PeriphResetCmd>
 80035fa:	2100      	movs	r1, #0
 80035fc:	f44f 7080 	mov.w	r0, #256	; 0x100
 8003600:	e779      	b.n	80034f6 <TIM_DeInit+0x32>
 8003602:	4b1f      	ldr	r3, [pc, #124]	; (8003680 <TIM_DeInit+0x1bc>)
 8003604:	4298      	cmp	r0, r3
 8003606:	d108      	bne.n	800361a <TIM_DeInit+0x156>
 8003608:	2101      	movs	r1, #1
 800360a:	f44f 3080 	mov.w	r0, #65536	; 0x10000
 800360e:	f7ff ff2d 	bl	800346c <RCC_APB2PeriphResetCmd>
 8003612:	2100      	movs	r1, #0
 8003614:	f44f 3080 	mov.w	r0, #65536	; 0x10000
 8003618:	e760      	b.n	80034dc <TIM_DeInit+0x18>
 800361a:	4b1a      	ldr	r3, [pc, #104]	; (8003684 <TIM_DeInit+0x1c0>)
 800361c:	4298      	cmp	r0, r3
 800361e:	d108      	bne.n	8003632 <TIM_DeInit+0x16e>
 8003620:	2101      	movs	r1, #1
 8003622:	f44f 3000 	mov.w	r0, #131072	; 0x20000
 8003626:	f7ff ff21 	bl	800346c <RCC_APB2PeriphResetCmd>
 800362a:	2100      	movs	r1, #0
 800362c:	f44f 3000 	mov.w	r0, #131072	; 0x20000
 8003630:	e754      	b.n	80034dc <TIM_DeInit+0x18>
 8003632:	4b15      	ldr	r3, [pc, #84]	; (8003688 <TIM_DeInit+0x1c4>)
 8003634:	4298      	cmp	r0, r3
 8003636:	d108      	bne.n	800364a <TIM_DeInit+0x186>
 8003638:	2101      	movs	r1, #1
 800363a:	f44f 2080 	mov.w	r0, #262144	; 0x40000
 800363e:	f7ff ff15 	bl	800346c <RCC_APB2PeriphResetCmd>
 8003642:	2100      	movs	r1, #0
 8003644:	f44f 2080 	mov.w	r0, #262144	; 0x40000
 8003648:	e748      	b.n	80034dc <TIM_DeInit+0x18>
 800364a:	bd08      	pop	{r3, pc}
 800364c:	40012c00 	.word	0x40012c00
 8003650:	40000400 	.word	0x40000400
 8003654:	40000800 	.word	0x40000800
 8003658:	40000c00 	.word	0x40000c00
 800365c:	40001000 	.word	0x40001000
 8003660:	40001400 	.word	0x40001400
 8003664:	40013400 	.word	0x40013400
 8003668:	40014c00 	.word	0x40014c00
 800366c:	40015000 	.word	0x40015000
 8003670:	40015400 	.word	0x40015400
 8003674:	40001800 	.word	0x40001800
 8003678:	40001c00 	.word	0x40001c00
 800367c:	40002000 	.word	0x40002000
 8003680:	40014000 	.word	0x40014000
 8003684:	40014400 	.word	0x40014400
 8003688:	40014800 	.word	0x40014800

0800368c <TIM_TimeBaseInit>:
 800368c:	4a22      	ldr	r2, [pc, #136]	; (8003718 <TIM_TimeBaseInit+0x8c>)
 800368e:	8803      	ldrh	r3, [r0, #0]
 8003690:	4290      	cmp	r0, r2
 8003692:	b29b      	uxth	r3, r3
 8003694:	d012      	beq.n	80036bc <TIM_TimeBaseInit+0x30>
 8003696:	f502 6200 	add.w	r2, r2, #2048	; 0x800
 800369a:	4290      	cmp	r0, r2
 800369c:	d00e      	beq.n	80036bc <TIM_TimeBaseInit+0x30>
 800369e:	f1b0 4f80 	cmp.w	r0, #1073741824	; 0x40000000
 80036a2:	d00b      	beq.n	80036bc <TIM_TimeBaseInit+0x30>
 80036a4:	f5a2 3298 	sub.w	r2, r2, #77824	; 0x13000
 80036a8:	4290      	cmp	r0, r2
 80036aa:	d007      	beq.n	80036bc <TIM_TimeBaseInit+0x30>
 80036ac:	f502 6280 	add.w	r2, r2, #1024	; 0x400
 80036b0:	4290      	cmp	r0, r2
 80036b2:	d003      	beq.n	80036bc <TIM_TimeBaseInit+0x30>
 80036b4:	f502 6280 	add.w	r2, r2, #1024	; 0x400
 80036b8:	4290      	cmp	r0, r2
 80036ba:	d103      	bne.n	80036c4 <TIM_TimeBaseInit+0x38>
 80036bc:	884a      	ldrh	r2, [r1, #2]
 80036be:	f023 0370 	bic.w	r3, r3, #112	; 0x70
 80036c2:	4313      	orrs	r3, r2
 80036c4:	4a15      	ldr	r2, [pc, #84]	; (800371c <TIM_TimeBaseInit+0x90>)
 80036c6:	4290      	cmp	r0, r2
 80036c8:	d008      	beq.n	80036dc <TIM_TimeBaseInit+0x50>
 80036ca:	f502 6280 	add.w	r2, r2, #1024	; 0x400
 80036ce:	4290      	cmp	r0, r2
 80036d0:	bf1f      	itttt	ne
 80036d2:	f423 7340 	bicne.w	r3, r3, #768	; 0x300
 80036d6:	88ca      	ldrhne	r2, [r1, #6]
 80036d8:	b29b      	uxthne	r3, r3
 80036da:	4313      	orrne	r3, r2
 80036dc:	8003      	strh	r3, [r0, #0]
 80036de:	888b      	ldrh	r3, [r1, #4]
 80036e0:	8583      	strh	r3, [r0, #44]	; 0x2c
 80036e2:	880b      	ldrh	r3, [r1, #0]
 80036e4:	8503      	strh	r3, [r0, #40]	; 0x28
 80036e6:	4b0c      	ldr	r3, [pc, #48]	; (8003718 <TIM_TimeBaseInit+0x8c>)
 80036e8:	4298      	cmp	r0, r3
 80036ea:	d00f      	beq.n	800370c <TIM_TimeBaseInit+0x80>
 80036ec:	f503 6300 	add.w	r3, r3, #2048	; 0x800
 80036f0:	4298      	cmp	r0, r3
 80036f2:	d00b      	beq.n	800370c <TIM_TimeBaseInit+0x80>
 80036f4:	f503 6340 	add.w	r3, r3, #3072	; 0xc00
 80036f8:	4298      	cmp	r0, r3
 80036fa:	d007      	beq.n	800370c <TIM_TimeBaseInit+0x80>
 80036fc:	f503 6380 	add.w	r3, r3, #1024	; 0x400
 8003700:	4298      	cmp	r0, r3
 8003702:	d003      	beq.n	800370c <TIM_TimeBaseInit+0x80>
 8003704:	f503 6380 	add.w	r3, r3, #1024	; 0x400
 8003708:	4298      	cmp	r0, r3
 800370a:	d101      	bne.n	8003710 <TIM_TimeBaseInit+0x84>
 800370c:	7a0b      	ldrb	r3, [r1, #8]
 800370e:	8603      	strh	r3, [r0, #48]	; 0x30
 8003710:	2301      	movs	r3, #1
 8003712:	8283      	strh	r3, [r0, #20]
 8003714:	4770      	bx	lr
 8003716:	bf00      	nop
 8003718:	40012c00 	.word	0x40012c00
 800371c:	40001000 	.word	0x40001000

08003720 <TIM_Cmd>:
 8003720:	8803      	ldrh	r3, [r0, #0]
 8003722:	b121      	cbz	r1, 800372e <TIM_Cmd+0xe>
 8003724:	b29b      	uxth	r3, r3
 8003726:	f043 0301 	orr.w	r3, r3, #1
 800372a:	8003      	strh	r3, [r0, #0]
 800372c:	4770      	bx	lr
 800372e:	f023 0301 	bic.w	r3, r3, #1
 8003732:	041b      	lsls	r3, r3, #16
 8003734:	0c1b      	lsrs	r3, r3, #16
 8003736:	e7f8      	b.n	800372a <TIM_Cmd+0xa>

08003738 <TIM_DMACmd>:
 8003738:	8983      	ldrh	r3, [r0, #12]
 800373a:	b29b      	uxth	r3, r3
 800373c:	b112      	cbz	r2, 8003744 <TIM_DMACmd+0xc>
 800373e:	4319      	orrs	r1, r3
 8003740:	8181      	strh	r1, [r0, #12]
 8003742:	4770      	bx	lr
 8003744:	ea23 0101 	bic.w	r1, r3, r1
 8003748:	e7fa      	b.n	8003740 <TIM_DMACmd+0x8>

0800374a <TIM_ITConfig>:
 800374a:	f7ff bff5 	b.w	8003738 <TIM_DMACmd>

0800374e <TIM_GetITStatus>:
 800374e:	8a03      	ldrh	r3, [r0, #16]
 8003750:	8982      	ldrh	r2, [r0, #12]
 8003752:	ea11 0003 	ands.w	r0, r1, r3
 8003756:	b292      	uxth	r2, r2
 8003758:	d003      	beq.n	8003762 <TIM_GetITStatus+0x14>
 800375a:	4211      	tst	r1, r2
 800375c:	bf14      	ite	ne
 800375e:	2001      	movne	r0, #1
 8003760:	2000      	moveq	r0, #0
 8003762:	4770      	bx	lr

08003764 <TIM_ClearITPendingBit>:
 8003764:	43c9      	mvns	r1, r1
 8003766:	b289      	uxth	r1, r1
 8003768:	8201      	strh	r1, [r0, #16]
 800376a:	4770      	bx	lr

0800376c <USART_DeInit>:
 800376c:	b508      	push	{r3, lr}
 800376e:	4b21      	ldr	r3, [pc, #132]	; (80037f4 <USART_DeInit+0x88>)
 8003770:	4298      	cmp	r0, r3
 8003772:	d10b      	bne.n	800378c <USART_DeInit+0x20>
 8003774:	2101      	movs	r1, #1
 8003776:	f44f 4080 	mov.w	r0, #16384	; 0x4000
 800377a:	f7ff fe77 	bl	800346c <RCC_APB2PeriphResetCmd>
 800377e:	e8bd 4008 	ldmia.w	sp!, {r3, lr}
 8003782:	2100      	movs	r1, #0
 8003784:	f44f 4080 	mov.w	r0, #16384	; 0x4000
 8003788:	f7ff be70 	b.w	800346c <RCC_APB2PeriphResetCmd>
 800378c:	4b1a      	ldr	r3, [pc, #104]	; (80037f8 <USART_DeInit+0x8c>)
 800378e:	4298      	cmp	r0, r3
 8003790:	d10b      	bne.n	80037aa <USART_DeInit+0x3e>
 8003792:	2101      	movs	r1, #1
 8003794:	f44f 3000 	mov.w	r0, #131072	; 0x20000
 8003798:	f7ff fe74 	bl	8003484 <RCC_APB1PeriphResetCmd>
 800379c:	2100      	movs	r1, #0
 800379e:	f44f 3000 	mov.w	r0, #131072	; 0x20000
 80037a2:	e8bd 4008 	ldmia.w	sp!, {r3, lr}
 80037a6:	f7ff be6d 	b.w	8003484 <RCC_APB1PeriphResetCmd>
 80037aa:	4b14      	ldr	r3, [pc, #80]	; (80037fc <USART_DeInit+0x90>)
 80037ac:	4298      	cmp	r0, r3
 80037ae:	d108      	bne.n	80037c2 <USART_DeInit+0x56>
 80037b0:	2101      	movs	r1, #1
 80037b2:	f44f 2080 	mov.w	r0, #262144	; 0x40000
 80037b6:	f7ff fe65 	bl	8003484 <RCC_APB1PeriphResetCmd>
 80037ba:	2100      	movs	r1, #0
 80037bc:	f44f 2080 	mov.w	r0, #262144	; 0x40000
 80037c0:	e7ef      	b.n	80037a2 <USART_DeInit+0x36>
 80037c2:	4b0f      	ldr	r3, [pc, #60]	; (8003800 <USART_DeInit+0x94>)
 80037c4:	4298      	cmp	r0, r3
 80037c6:	d108      	bne.n	80037da <USART_DeInit+0x6e>
 80037c8:	2101      	movs	r1, #1
 80037ca:	f44f 2000 	mov.w	r0, #524288	; 0x80000
 80037ce:	f7ff fe59 	bl	8003484 <RCC_APB1PeriphResetCmd>
 80037d2:	2100      	movs	r1, #0
 80037d4:	f44f 2000 	mov.w	r0, #524288	; 0x80000
 80037d8:	e7e3      	b.n	80037a2 <USART_DeInit+0x36>
 80037da:	4b0a      	ldr	r3, [pc, #40]	; (8003804 <USART_DeInit+0x98>)
 80037dc:	4298      	cmp	r0, r3
 80037de:	d108      	bne.n	80037f2 <USART_DeInit+0x86>
 80037e0:	2101      	movs	r1, #1
 80037e2:	f44f 1080 	mov.w	r0, #1048576	; 0x100000
 80037e6:	f7ff fe4d 	bl	8003484 <RCC_APB1PeriphResetCmd>
 80037ea:	2100      	movs	r1, #0
 80037ec:	f44f 1080 	mov.w	r0, #1048576	; 0x100000
 80037f0:	e7d7      	b.n	80037a2 <USART_DeInit+0x36>
 80037f2:	bd08      	pop	{r3, pc}
 80037f4:	40013800 	.word	0x40013800
 80037f8:	40004400 	.word	0x40004400
 80037fc:	40004800 	.word	0x40004800
 8003800:	40004c00 	.word	0x40004c00
 8003804:	40005000 	.word	0x40005000

08003808 <USART_Init>:
 8003808:	b530      	push	{r4, r5, lr}
 800380a:	460d      	mov	r5, r1
 800380c:	4604      	mov	r4, r0
 800380e:	8a03      	ldrh	r3, [r0, #16]
 8003810:	898a      	ldrh	r2, [r1, #12]
 8003812:	b29b      	uxth	r3, r3
 8003814:	88c9      	ldrh	r1, [r1, #6]
 8003816:	f423 5340 	bic.w	r3, r3, #12288	; 0x3000
 800381a:	430b      	orrs	r3, r1
 800381c:	8203      	strh	r3, [r0, #16]
 800381e:	8983      	ldrh	r3, [r0, #12]
 8003820:	88a9      	ldrh	r1, [r5, #4]
 8003822:	f423 53b0 	bic.w	r3, r3, #5632	; 0x1600
 8003826:	f023 030c 	bic.w	r3, r3, #12
 800382a:	041b      	lsls	r3, r3, #16
 800382c:	0c1b      	lsrs	r3, r3, #16
 800382e:	430b      	orrs	r3, r1
 8003830:	8929      	ldrh	r1, [r5, #8]
 8003832:	b087      	sub	sp, #28
 8003834:	430b      	orrs	r3, r1
 8003836:	8969      	ldrh	r1, [r5, #10]
 8003838:	430b      	orrs	r3, r1
 800383a:	b29b      	uxth	r3, r3
 800383c:	8183      	strh	r3, [r0, #12]
 800383e:	8a83      	ldrh	r3, [r0, #20]
 8003840:	b29b      	uxth	r3, r3
 8003842:	f423 7340 	bic.w	r3, r3, #768	; 0x300
 8003846:	4313      	orrs	r3, r2
 8003848:	8283      	strh	r3, [r0, #20]
 800384a:	a801      	add	r0, sp, #4
 800384c:	f7ff fdb2 	bl	80033b4 <RCC_GetClocksFreq>
 8003850:	4a17      	ldr	r2, [pc, #92]	; (80038b0 <USART_Init+0xa8>)
 8003852:	9b03      	ldr	r3, [sp, #12]
 8003854:	9904      	ldr	r1, [sp, #16]
 8003856:	4294      	cmp	r4, r2
 8003858:	bf18      	it	ne
 800385a:	4619      	movne	r1, r3
 800385c:	2219      	movs	r2, #25
 800385e:	89a3      	ldrh	r3, [r4, #12]
 8003860:	434a      	muls	r2, r1
 8003862:	f413 4f00 	tst.w	r3, #32768	; 0x8000
 8003866:	682b      	ldr	r3, [r5, #0]
 8003868:	f04f 0564 	mov.w	r5, #100	; 0x64
 800386c:	bf14      	ite	ne
 800386e:	005b      	lslne	r3, r3, #1
 8003870:	009b      	lsleq	r3, r3, #2
 8003872:	fbb2 f1f3 	udiv	r1, r2, r3
 8003876:	fbb1 f3f5 	udiv	r3, r1, r5
 800387a:	89a2      	ldrh	r2, [r4, #12]
 800387c:	0118      	lsls	r0, r3, #4
 800387e:	0412      	lsls	r2, r2, #16
 8003880:	fb05 1313 	mls	r3, r5, r3, r1
 8003884:	d50b      	bpl.n	800389e <USART_Init+0x96>
 8003886:	00da      	lsls	r2, r3, #3
 8003888:	3232      	adds	r2, #50	; 0x32
 800388a:	fbb2 f2f5 	udiv	r2, r2, r5
 800388e:	f002 0207 	and.w	r2, r2, #7
 8003892:	ea42 0300 	orr.w	r3, r2, r0
 8003896:	b29b      	uxth	r3, r3
 8003898:	8123      	strh	r3, [r4, #8]
 800389a:	b007      	add	sp, #28
 800389c:	bd30      	pop	{r4, r5, pc}
 800389e:	011b      	lsls	r3, r3, #4
 80038a0:	3332      	adds	r3, #50	; 0x32
 80038a2:	fbb3 f3f5 	udiv	r3, r3, r5
 80038a6:	f003 030f 	and.w	r3, r3, #15
 80038aa:	4303      	orrs	r3, r0
 80038ac:	e7f3      	b.n	8003896 <USART_Init+0x8e>
 80038ae:	bf00      	nop
 80038b0:	40013800 	.word	0x40013800

080038b4 <USART_Cmd>:
 80038b4:	8983      	ldrh	r3, [r0, #12]
 80038b6:	b121      	cbz	r1, 80038c2 <USART_Cmd+0xe>
 80038b8:	b29b      	uxth	r3, r3
 80038ba:	f443 5300 	orr.w	r3, r3, #8192	; 0x2000
 80038be:	8183      	strh	r3, [r0, #12]
 80038c0:	4770      	bx	lr
 80038c2:	f423 5300 	bic.w	r3, r3, #8192	; 0x2000
 80038c6:	041b      	lsls	r3, r3, #16
 80038c8:	0c1b      	lsrs	r3, r3, #16
 80038ca:	e7f8      	b.n	80038be <USART_Cmd+0xa>

080038cc <USART_ITConfig>:
 80038cc:	f001 031f 	and.w	r3, r1, #31
 80038d0:	b510      	push	{r4, lr}
 80038d2:	f3c1 1442 	ubfx	r4, r1, #5, #3
 80038d6:	2101      	movs	r1, #1
 80038d8:	2c01      	cmp	r4, #1
 80038da:	fa01 f103 	lsl.w	r1, r1, r3
 80038de:	d105      	bne.n	80038ec <USART_ITConfig+0x20>
 80038e0:	300c      	adds	r0, #12
 80038e2:	6803      	ldr	r3, [r0, #0]
 80038e4:	b13a      	cbz	r2, 80038f6 <USART_ITConfig+0x2a>
 80038e6:	4319      	orrs	r1, r3
 80038e8:	6001      	str	r1, [r0, #0]
 80038ea:	bd10      	pop	{r4, pc}
 80038ec:	2c02      	cmp	r4, #2
 80038ee:	bf0c      	ite	eq
 80038f0:	3010      	addeq	r0, #16
 80038f2:	3014      	addne	r0, #20
 80038f4:	e7f5      	b.n	80038e2 <USART_ITConfig+0x16>
 80038f6:	ea23 0101 	bic.w	r1, r3, r1
 80038fa:	e7f5      	b.n	80038e8 <USART_ITConfig+0x1c>

080038fc <USART_SendData>:
 80038fc:	f3c1 0108 	ubfx	r1, r1, #0, #9
 8003900:	8081      	strh	r1, [r0, #4]
 8003902:	4770      	bx	lr

08003904 <USART_ReceiveData>:
 8003904:	8880      	ldrh	r0, [r0, #4]
 8003906:	f3c0 0008 	ubfx	r0, r0, #0, #9
 800390a:	4770      	bx	lr

0800390c <USART_GetFlagStatus>:
 800390c:	8803      	ldrh	r3, [r0, #0]
 800390e:	4219      	tst	r1, r3
 8003910:	bf14      	ite	ne
 8003912:	2001      	movne	r0, #1
 8003914:	2000      	moveq	r0, #0
 8003916:	4770      	bx	lr

08003918 <USART_ClearFlag>:
 8003918:	43c9      	mvns	r1, r1
 800391a:	b289      	uxth	r1, r1
 800391c:	8001      	strh	r1, [r0, #0]
 800391e:	4770      	bx	lr

08003920 <USART_GetITStatus>:
 8003920:	2301      	movs	r3, #1
 8003922:	f3c1 1242 	ubfx	r2, r1, #5, #3
 8003926:	b510      	push	{r4, lr}
 8003928:	2a01      	cmp	r2, #1
 800392a:	f001 041f 	and.w	r4, r1, #31
 800392e:	fa03 f304 	lsl.w	r3, r3, r4
 8003932:	d10e      	bne.n	8003952 <USART_GetITStatus+0x32>
 8003934:	8982      	ldrh	r2, [r0, #12]
 8003936:	b292      	uxth	r2, r2
 8003938:	4013      	ands	r3, r2
 800393a:	8802      	ldrh	r2, [r0, #0]
 800393c:	b292      	uxth	r2, r2
 800393e:	b16b      	cbz	r3, 800395c <USART_GetITStatus+0x3c>
 8003940:	2301      	movs	r3, #1
 8003942:	0a09      	lsrs	r1, r1, #8
 8003944:	fa03 f101 	lsl.w	r1, r3, r1
 8003948:	420a      	tst	r2, r1
 800394a:	bf14      	ite	ne
 800394c:	4618      	movne	r0, r3
 800394e:	2000      	moveq	r0, #0
 8003950:	bd10      	pop	{r4, pc}
 8003952:	2a02      	cmp	r2, #2
 8003954:	bf0c      	ite	eq
 8003956:	8a02      	ldrheq	r2, [r0, #16]
 8003958:	8a82      	ldrhne	r2, [r0, #20]
 800395a:	e7ec      	b.n	8003936 <USART_GetITStatus+0x16>
 800395c:	4618      	mov	r0, r3
 800395e:	bd10      	pop	{r4, pc}

08003960 <SysTick_Init>:
 8003960:	b510      	push	{r4, lr}
 8003962:	4604      	mov	r4, r0
 8003964:	f06f 0004 	mvn.w	r0, #4
 8003968:	f7ff fa98 	bl	8002e9c <SysTick_CLKSourceConfig>
 800396c:	4b05      	ldr	r3, [pc, #20]	; (8003984 <SysTick_Init+0x24>)
 800396e:	08e0      	lsrs	r0, r4, #3
 8003970:	7018      	strb	r0, [r3, #0]
 8003972:	ebc0 1340 	rsb	r3, r0, r0, lsl #5
 8003976:	eb00 0083 	add.w	r0, r0, r3, lsl #2
 800397a:	4b03      	ldr	r3, [pc, #12]	; (8003988 <SysTick_Init+0x28>)
 800397c:	00c0      	lsls	r0, r0, #3
 800397e:	8018      	strh	r0, [r3, #0]
 8003980:	bd10      	pop	{r4, pc}
 8003982:	bf00      	nop
 8003984:	20001248 	.word	0x20001248
 8003988:	20001246 	.word	0x20001246

0800398c <delay_ms>:
 800398c:	2200      	movs	r2, #0
 800398e:	4b0b      	ldr	r3, [pc, #44]	; (80039bc <delay_ms+0x30>)
 8003990:	881b      	ldrh	r3, [r3, #0]
 8003992:	4358      	muls	r0, r3
 8003994:	4b0a      	ldr	r3, [pc, #40]	; (80039c0 <delay_ms+0x34>)
 8003996:	6058      	str	r0, [r3, #4]
 8003998:	609a      	str	r2, [r3, #8]
 800399a:	681a      	ldr	r2, [r3, #0]
 800399c:	f042 0201 	orr.w	r2, r2, #1
 80039a0:	601a      	str	r2, [r3, #0]
 80039a2:	681a      	ldr	r2, [r3, #0]
 80039a4:	f002 1201 	and.w	r2, r2, #65537	; 0x10001
 80039a8:	2a01      	cmp	r2, #1
 80039aa:	d0fa      	beq.n	80039a2 <delay_ms+0x16>
 80039ac:	681a      	ldr	r2, [r3, #0]
 80039ae:	f022 0201 	bic.w	r2, r2, #1
 80039b2:	601a      	str	r2, [r3, #0]
 80039b4:	2200      	movs	r2, #0
 80039b6:	609a      	str	r2, [r3, #8]
 80039b8:	4770      	bx	lr
 80039ba:	bf00      	nop
 80039bc:	20001246 	.word	0x20001246
 80039c0:	e000e010 	.word	0xe000e010

080039c4 <USART1_Init>:
 80039c4:	b570      	push	{r4, r5, r6, lr}
 80039c6:	2101      	movs	r1, #1
 80039c8:	b086      	sub	sp, #24
 80039ca:	4606      	mov	r6, r0
 80039cc:	2004      	movs	r0, #4
 80039ce:	f7ff fd35 	bl	800343c <RCC_APB2PeriphClockCmd>
 80039d2:	2101      	movs	r1, #1
 80039d4:	f44f 4080 	mov.w	r0, #16384	; 0x4000
 80039d8:	f7ff fd30 	bl	800343c <RCC_APB2PeriphClockCmd>
 80039dc:	f44f 7300 	mov.w	r3, #512	; 0x200
 80039e0:	2503      	movs	r5, #3
 80039e2:	f8ad 3000 	strh.w	r3, [sp]
 80039e6:	2318      	movs	r3, #24
 80039e8:	4c21      	ldr	r4, [pc, #132]	; (8003a70 <USART1_Init+0xac>)
 80039ea:	4669      	mov	r1, sp
 80039ec:	4620      	mov	r0, r4
 80039ee:	f88d 3003 	strb.w	r3, [sp, #3]
 80039f2:	f88d 5002 	strb.w	r5, [sp, #2]
 80039f6:	f7ff fbf1 	bl	80031dc <GPIO_Init>
 80039fa:	f44f 6380 	mov.w	r3, #1024	; 0x400
 80039fe:	f8ad 3000 	strh.w	r3, [sp]
 8003a02:	2304      	movs	r3, #4
 8003a04:	4669      	mov	r1, sp
 8003a06:	4620      	mov	r0, r4
 8003a08:	f88d 3003 	strb.w	r3, [sp, #3]
 8003a0c:	f7ff fbe6 	bl	80031dc <GPIO_Init>
 8003a10:	2300      	movs	r3, #0
 8003a12:	f8ad 300c 	strh.w	r3, [sp, #12]
 8003a16:	f8ad 300e 	strh.w	r3, [sp, #14]
 8003a1a:	f8ad 3010 	strh.w	r3, [sp, #16]
 8003a1e:	f8ad 3014 	strh.w	r3, [sp, #20]
 8003a22:	230c      	movs	r3, #12
 8003a24:	f504 5440 	add.w	r4, r4, #12288	; 0x3000
 8003a28:	a902      	add	r1, sp, #8
 8003a2a:	4620      	mov	r0, r4
 8003a2c:	f8ad 3012 	strh.w	r3, [sp, #18]
 8003a30:	9602      	str	r6, [sp, #8]
 8003a32:	f7ff fee9 	bl	8003808 <USART_Init>
 8003a36:	4620      	mov	r0, r4
 8003a38:	2101      	movs	r1, #1
 8003a3a:	f7ff ff3b 	bl	80038b4 <USART_Cmd>
 8003a3e:	4620      	mov	r0, r4
 8003a40:	2140      	movs	r1, #64	; 0x40
 8003a42:	f7ff ff69 	bl	8003918 <USART_ClearFlag>
 8003a46:	2201      	movs	r2, #1
 8003a48:	f240 5125 	movw	r1, #1317	; 0x525
 8003a4c:	4620      	mov	r0, r4
 8003a4e:	f7ff ff3d 	bl	80038cc <USART_ITConfig>
 8003a52:	2325      	movs	r3, #37	; 0x25
 8003a54:	f88d 3004 	strb.w	r3, [sp, #4]
 8003a58:	2301      	movs	r3, #1
 8003a5a:	a801      	add	r0, sp, #4
 8003a5c:	f88d 5005 	strb.w	r5, [sp, #5]
 8003a60:	f88d 5006 	strb.w	r5, [sp, #6]
 8003a64:	f88d 3007 	strb.w	r3, [sp, #7]
 8003a68:	f7ff f9ea 	bl	8002e40 <NVIC_Init>
 8003a6c:	b006      	add	sp, #24
 8003a6e:	bd70      	pop	{r4, r5, r6, pc}
 8003a70:	40010800 	.word	0x40010800

08003a74 <USART1_IRQHandler>:
 8003a74:	b538      	push	{r3, r4, r5, lr}
 8003a76:	f240 5125 	movw	r1, #1317	; 0x525
 8003a7a:	4831      	ldr	r0, [pc, #196]	; (8003b40 <USART1_IRQHandler+0xcc>)
 8003a7c:	f7ff ff50 	bl	8003920 <USART_GetITStatus>
 8003a80:	b3a8      	cbz	r0, 8003aee <USART1_IRQHandler+0x7a>
 8003a82:	482f      	ldr	r0, [pc, #188]	; (8003b40 <USART1_IRQHandler+0xcc>)
 8003a84:	f7ff ff3e 	bl	8003904 <USART_ReceiveData>
 8003a88:	4c2e      	ldr	r4, [pc, #184]	; (8003b44 <USART1_IRQHandler+0xd0>)
 8003a8a:	b2c5      	uxtb	r5, r0
 8003a8c:	f8b4 3808 	ldrh.w	r3, [r4, #2056]	; 0x808
 8003a90:	f3c3 030e 	ubfx	r3, r3, #0, #15
 8003a94:	f5b3 6f80 	cmp.w	r3, #1024	; 0x400
 8003a98:	db0e      	blt.n	8003ab8 <USART1_IRQHandler+0x44>
 8003a9a:	482b      	ldr	r0, [pc, #172]	; (8003b48 <USART1_IRQHandler+0xd4>)
 8003a9c:	f000 fb08 	bl	80040b0 <puts>
 8003aa0:	f44f 6280 	mov.w	r2, #1024	; 0x400
 8003aa4:	2100      	movs	r1, #0
 8003aa6:	4620      	mov	r0, r4
 8003aa8:	f000 fa82 	bl	8003fb0 <memset>
 8003aac:	f8b4 3808 	ldrh.w	r3, [r4, #2056]	; 0x808
 8003ab0:	f36f 030e 	bfc	r3, #0, #15
 8003ab4:	f8a4 3808 	strh.w	r3, [r4, #2056]	; 0x808
 8003ab8:	f8b4 3808 	ldrh.w	r3, [r4, #2056]	; 0x808
 8003abc:	041b      	lsls	r3, r3, #16
 8003abe:	d40b      	bmi.n	8003ad8 <USART1_IRQHandler+0x64>
 8003ac0:	f8b4 3808 	ldrh.w	r3, [r4, #2056]	; 0x808
 8003ac4:	f8b4 2808 	ldrh.w	r2, [r4, #2056]	; 0x808
 8003ac8:	f3c3 030e 	ubfx	r3, r3, #0, #15
 8003acc:	1c59      	adds	r1, r3, #1
 8003ace:	f361 020e 	bfi	r2, r1, #0, #15
 8003ad2:	f8a4 2808 	strh.w	r2, [r4, #2056]	; 0x808
 8003ad6:	54e5      	strb	r5, [r4, r3]
 8003ad8:	2d24      	cmp	r5, #36	; 0x24
 8003ada:	d10e      	bne.n	8003afa <USART1_IRQHandler+0x86>
 8003adc:	2201      	movs	r2, #1
 8003ade:	4b1b      	ldr	r3, [pc, #108]	; (8003b4c <USART1_IRQHandler+0xd8>)
 8003ae0:	701a      	strb	r2, [r3, #0]
 8003ae2:	f8b4 3808 	ldrh.w	r3, [r4, #2056]	; 0x808
 8003ae6:	f36f 030e 	bfc	r3, #0, #15
 8003aea:	f8a4 3808 	strh.w	r3, [r4, #2056]	; 0x808
 8003aee:	2140      	movs	r1, #64	; 0x40
 8003af0:	e8bd 4038 	ldmia.w	sp!, {r3, r4, r5, lr}
 8003af4:	4812      	ldr	r0, [pc, #72]	; (8003b40 <USART1_IRQHandler+0xcc>)
 8003af6:	f7ff bf0f 	b.w	8003918 <USART_ClearFlag>
 8003afa:	2d5d      	cmp	r5, #93	; 0x5d
 8003afc:	d1f7      	bne.n	8003aee <USART1_IRQHandler+0x7a>
 8003afe:	215b      	movs	r1, #91	; 0x5b
 8003b00:	4810      	ldr	r0, [pc, #64]	; (8003b44 <USART1_IRQHandler+0xd0>)
 8003b02:	f000 fb10 	bl	8004126 <strchr>
 8003b06:	2800      	cmp	r0, #0
 8003b08:	d0f1      	beq.n	8003aee <USART1_IRQHandler+0x7a>
 8003b0a:	4b0e      	ldr	r3, [pc, #56]	; (8003b44 <USART1_IRQHandler+0xd0>)
 8003b0c:	4618      	mov	r0, r3
 8003b0e:	7802      	ldrb	r2, [r0, #0]
 8003b10:	3301      	adds	r3, #1
 8003b12:	2a5b      	cmp	r2, #91	; 0x5b
 8003b14:	d1fa      	bne.n	8003b0c <USART1_IRQHandler+0x98>
 8003b16:	4618      	mov	r0, r3
 8003b18:	490d      	ldr	r1, [pc, #52]	; (8003b50 <USART1_IRQHandler+0xdc>)
 8003b1a:	f000 fb49 	bl	80041b0 <strtok>
 8003b1e:	f44f 7200 	mov.w	r2, #512	; 0x200
 8003b22:	4601      	mov	r1, r0
 8003b24:	480b      	ldr	r0, [pc, #44]	; (8003b54 <USART1_IRQHandler+0xe0>)
 8003b26:	f000 fa38 	bl	8003f9a <memcpy>
 8003b2a:	f8b4 3808 	ldrh.w	r3, [r4, #2056]	; 0x808
 8003b2e:	f36f 030e 	bfc	r3, #0, #15
 8003b32:	f8a4 3808 	strh.w	r3, [r4, #2056]	; 0x808
 8003b36:	f8b4 3808 	ldrh.w	r3, [r4, #2056]	; 0x808
 8003b3a:	f443 4300 	orr.w	r3, r3, #32768	; 0x8000
 8003b3e:	e7d4      	b.n	8003aea <USART1_IRQHandler+0x76>
 8003b40:	40013800 	.word	0x40013800
 8003b44:	2000124c 	.word	0x2000124c
 8003b48:	08008f01 	.word	0x08008f01
 8003b4c:	20001a58 	.word	0x20001a58
 8003b50:	08008f11 	.word	0x08008f11
 8003b54:	20001654 	.word	0x20001654

08003b58 <UT_split>:
 8003b58:	b570      	push	{r4, r5, r6, lr}
 8003b5a:	2300      	movs	r3, #0
 8003b5c:	460d      	mov	r5, r1
 8003b5e:	4606      	mov	r6, r0
 8003b60:	4601      	mov	r1, r0
 8003b62:	7848      	ldrb	r0, [r1, #1]
 8003b64:	1c4a      	adds	r2, r1, #1
 8003b66:	282c      	cmp	r0, #44	; 0x2c
 8003b68:	d118      	bne.n	8003b9c <UT_split+0x44>
 8003b6a:	3301      	adds	r3, #1
 8003b6c:	b2db      	uxtb	r3, r3
 8003b6e:	2b01      	cmp	r3, #1
 8003b70:	d914      	bls.n	8003b9c <UT_split+0x44>
 8003b72:	4c0b      	ldr	r4, [pc, #44]	; (8003ba0 <UT_split+0x48>)
 8003b74:	f44f 7200 	mov.w	r2, #512	; 0x200
 8003b78:	3102      	adds	r1, #2
 8003b7a:	f504 60c1 	add.w	r0, r4, #1544	; 0x608
 8003b7e:	f000 fa0c 	bl	8003f9a <memcpy>
 8003b82:	4629      	mov	r1, r5
 8003b84:	4630      	mov	r0, r6
 8003b86:	f000 fb13 	bl	80041b0 <strtok>
 8003b8a:	4629      	mov	r1, r5
 8003b8c:	f8c4 0400 	str.w	r0, [r4, #1024]	; 0x400
 8003b90:	2000      	movs	r0, #0
 8003b92:	f000 fb0d 	bl	80041b0 <strtok>
 8003b96:	f8c4 0404 	str.w	r0, [r4, #1028]	; 0x404
 8003b9a:	bd70      	pop	{r4, r5, r6, pc}
 8003b9c:	4611      	mov	r1, r2
 8003b9e:	e7e0      	b.n	8003b62 <UT_split+0xa>
 8003ba0:	2000124c 	.word	0x2000124c

08003ba4 <HSI_SetSysClock>:
 8003ba4:	b573      	push	{r0, r1, r4, r5, r6, lr}
 8003ba6:	2400      	movs	r4, #0
 8003ba8:	4606      	mov	r6, r0
 8003baa:	9401      	str	r4, [sp, #4]
 8003bac:	f7ff fb9c 	bl	80032e8 <RCC_DeInit>
 8003bb0:	2001      	movs	r0, #1
 8003bb2:	f7ff fbb9 	bl	8003328 <RCC_HSICmd>
 8003bb6:	4b17      	ldr	r3, [pc, #92]	; (8003c14 <HSI_SetSysClock+0x70>)
 8003bb8:	681b      	ldr	r3, [r3, #0]
 8003bba:	f003 0302 	and.w	r3, r3, #2
 8003bbe:	9301      	str	r3, [sp, #4]
 8003bc0:	9d01      	ldr	r5, [sp, #4]
 8003bc2:	2d02      	cmp	r5, #2
 8003bc4:	d124      	bne.n	8003c10 <HSI_SetSysClock+0x6c>
 8003bc6:	2010      	movs	r0, #16
 8003bc8:	f7ff f97e 	bl	8002ec8 <FLASH_PrefetchBufferCmd>
 8003bcc:	4628      	mov	r0, r5
 8003bce:	f7ff f971 	bl	8002eb4 <FLASH_SetLatency>
 8003bd2:	4620      	mov	r0, r4
 8003bd4:	f7ff fbd0 	bl	8003378 <RCC_HCLKConfig>
 8003bd8:	4620      	mov	r0, r4
 8003bda:	f7ff fbe1 	bl	80033a0 <RCC_PCLK2Config>
 8003bde:	f44f 6080 	mov.w	r0, #1024	; 0x400
 8003be2:	f7ff fbd3 	bl	800338c <RCC_PCLK1Config>
 8003be6:	4620      	mov	r0, r4
 8003be8:	4631      	mov	r1, r6
 8003bea:	f7ff fba3 	bl	8003334 <RCC_PLLConfig>
 8003bee:	2001      	movs	r0, #1
 8003bf0:	f7ff fbaa 	bl	8003348 <RCC_PLLCmd>
 8003bf4:	2039      	movs	r0, #57	; 0x39
 8003bf6:	f7ff fc51 	bl	800349c <RCC_GetFlagStatus>
 8003bfa:	2800      	cmp	r0, #0
 8003bfc:	d0fa      	beq.n	8003bf4 <HSI_SetSysClock+0x50>
 8003bfe:	2002      	movs	r0, #2
 8003c00:	f7ff fba8 	bl	8003354 <RCC_SYSCLKConfig>
 8003c04:	f7ff fbb0 	bl	8003368 <RCC_GetSYSCLKSource>
 8003c08:	2808      	cmp	r0, #8
 8003c0a:	d1fb      	bne.n	8003c04 <HSI_SetSysClock+0x60>
 8003c0c:	b002      	add	sp, #8
 8003c0e:	bd70      	pop	{r4, r5, r6, pc}
 8003c10:	e7fe      	b.n	8003c10 <HSI_SetSysClock+0x6c>
 8003c12:	bf00      	nop
 8003c14:	40021000 	.word	0x40021000

08003c18 <main>:
 8003c18:	b508      	push	{r3, lr}
 8003c1a:	f44f 10e0 	mov.w	r0, #1835008	; 0x1c0000
 8003c1e:	f7ff ffc1 	bl	8003ba4 <HSI_SetSysClock>
 8003c22:	2024      	movs	r0, #36	; 0x24
 8003c24:	f7ff fe9c 	bl	8003960 <SysTick_Init>
 8003c28:	f44f 60a0 	mov.w	r0, #1280	; 0x500
 8003c2c:	f7ff f8fe 	bl	8002e2c <NVIC_PriorityGroupConfig>
 8003c30:	f64f 70ff 	movw	r0, #65535	; 0xffff
 8003c34:	f7fe fbfa 	bl	800242c <IAP_WriteFlag>
 8003c38:	f7fe fc1c 	bl	8002474 <IAP_Init>
 8003c3c:	4831      	ldr	r0, [pc, #196]	; (8003d04 <main+0xec>)
 8003c3e:	f000 fa37 	bl	80040b0 <puts>
 8003c42:	f648 419f 	movw	r1, #35999	; 0x8c9f
 8003c46:	200a      	movs	r0, #10
 8003c48:	f7fd f934 	bl	8000eb4 <TIM4_Init>
 8003c4c:	f44f 707a 	mov.w	r0, #1000	; 0x3e8
 8003c50:	f7ff fe9c 	bl	800398c <delay_ms>
 8003c54:	482c      	ldr	r0, [pc, #176]	; (8003d08 <main+0xf0>)
 8003c56:	f000 fa2b 	bl	80040b0 <puts>
 8003c5a:	f44f 707a 	mov.w	r0, #1000	; 0x3e8
 8003c5e:	f7ff fe95 	bl	800398c <delay_ms>
 8003c62:	f44f 707a 	mov.w	r0, #1000	; 0x3e8
 8003c66:	f7ff fe91 	bl	800398c <delay_ms>
 8003c6a:	f44f 30e1 	mov.w	r0, #115200	; 0x1c200
 8003c6e:	f7fd fcd9 	bl	8001624 <F4G_Init>
 8003c72:	f64d 64de 	movw	r4, #57054	; 0xdede
 8003c76:	f64e 65ee 	movw	r5, #61166	; 0xeeee
 8003c7a:	f64f 76ff 	movw	r6, #65535	; 0xffff
 8003c7e:	f7fe fbe7 	bl	8002450 <IAP_ReadFlag>
 8003c82:	42a0      	cmp	r0, r4
 8003c84:	d03a      	beq.n	8003cfc <main+0xe4>
 8003c86:	d814      	bhi.n	8003cb2 <main+0x9a>
 8003c88:	f64c 43cc 	movw	r3, #52428	; 0xcccc
 8003c8c:	4298      	cmp	r0, r3
 8003c8e:	d032      	beq.n	8003cf6 <main+0xde>
 8003c90:	f64d 53dd 	movw	r3, #56797	; 0xdddd
 8003c94:	4298      	cmp	r0, r3
 8003c96:	d029      	beq.n	8003cec <main+0xd4>
 8003c98:	f645 235a 	movw	r3, #23130	; 0x5a5a
 8003c9c:	4298      	cmp	r0, r3
 8003c9e:	d1ee      	bne.n	8003c7e <main+0x66>
 8003ca0:	f7fe fc00 	bl	80024a4 <IAP_RunApp>
 8003ca4:	2800      	cmp	r0, #0
 8003ca6:	d0e8      	beq.n	8003c7a <main+0x62>
 8003ca8:	f64e 60ee 	movw	r0, #61166	; 0xeeee
 8003cac:	f7fe fbbe 	bl	800242c <IAP_WriteFlag>
 8003cb0:	e7e3      	b.n	8003c7a <main+0x62>
 8003cb2:	42a8      	cmp	r0, r5
 8003cb4:	d00b      	beq.n	8003cce <main+0xb6>
 8003cb6:	42b0      	cmp	r0, r6
 8003cb8:	d006      	beq.n	8003cc8 <main+0xb0>
 8003cba:	f64e 53ed 	movw	r3, #60909	; 0xeded
 8003cbe:	4298      	cmp	r0, r3
 8003cc0:	d1dd      	bne.n	8003c7e <main+0x66>
 8003cc2:	f7ff f85f 	bl	8002d84 <Set_DeviceID>
 8003cc6:	e7d8      	b.n	8003c7a <main+0x62>
 8003cc8:	f7fe fd0c 	bl	80026e4 <IAP_Main_Menu>
 8003ccc:	e7d5      	b.n	8003c7a <main+0x62>
 8003cce:	f7fe fd9f 	bl	8002810 <IAP_Update>
 8003cd2:	b168      	cbz	r0, 8003cf0 <main+0xd8>
 8003cd4:	f3bf 8f4f 	dsb	sy
 8003cd8:	490c      	ldr	r1, [pc, #48]	; (8003d0c <main+0xf4>)
 8003cda:	4b0d      	ldr	r3, [pc, #52]	; (8003d10 <main+0xf8>)
 8003cdc:	68ca      	ldr	r2, [r1, #12]
 8003cde:	f402 62e0 	and.w	r2, r2, #1792	; 0x700
 8003ce2:	4313      	orrs	r3, r2
 8003ce4:	60cb      	str	r3, [r1, #12]
 8003ce6:	f3bf 8f4f 	dsb	sy
 8003cea:	e7fe      	b.n	8003cea <main+0xd2>
 8003cec:	f7fe fd6c 	bl	80027c8 <IAP_Upload>
 8003cf0:	f64f 70ff 	movw	r0, #65535	; 0xffff
 8003cf4:	e7da      	b.n	8003cac <main+0x94>
 8003cf6:	f7fe fd6f 	bl	80027d8 <IAP_Erase>
 8003cfa:	e7f9      	b.n	8003cf0 <main+0xd8>
 8003cfc:	f7ff f888 	bl	8002e10 <Get_DeviceID>
 8003d00:	e7f6      	b.n	8003cf0 <main+0xd8>
 8003d02:	bf00      	nop
 8003d04:	080092c9 	.word	0x080092c9
 8003d08:	080092d5 	.word	0x080092d5
 8003d0c:	e000ed00 	.word	0xe000ed00
 8003d10:	05fa0004 	.word	0x05fa0004

08003d14 <Reset_Handler>:
 8003d14:	f8df d034 	ldr.w	sp, [pc, #52]	; 8003d4c <LoopFillZerobss+0x14>
 8003d18:	2100      	movs	r1, #0
 8003d1a:	e003      	b.n	8003d24 <LoopCopyDataInit>

08003d1c <CopyDataInit>:
 8003d1c:	4b0c      	ldr	r3, [pc, #48]	; (8003d50 <LoopFillZerobss+0x18>)
 8003d1e:	585b      	ldr	r3, [r3, r1]
 8003d20:	5043      	str	r3, [r0, r1]
 8003d22:	3104      	adds	r1, #4

08003d24 <LoopCopyDataInit>:
 8003d24:	480b      	ldr	r0, [pc, #44]	; (8003d54 <LoopFillZerobss+0x1c>)
 8003d26:	4b0c      	ldr	r3, [pc, #48]	; (8003d58 <LoopFillZerobss+0x20>)
 8003d28:	1842      	adds	r2, r0, r1
 8003d2a:	429a      	cmp	r2, r3
 8003d2c:	d3f6      	bcc.n	8003d1c <CopyDataInit>
 8003d2e:	4a0b      	ldr	r2, [pc, #44]	; (8003d5c <LoopFillZerobss+0x24>)
 8003d30:	e002      	b.n	8003d38 <LoopFillZerobss>

08003d32 <FillZerobss>:
 8003d32:	2300      	movs	r3, #0
 8003d34:	f842 3b04 	str.w	r3, [r2], #4

08003d38 <LoopFillZerobss>:
 8003d38:	4b09      	ldr	r3, [pc, #36]	; (8003d60 <LoopFillZerobss+0x28>)
 8003d3a:	429a      	cmp	r2, r3
 8003d3c:	d3f9      	bcc.n	8003d32 <FillZerobss>
 8003d3e:	f000 f879 	bl	8003e34 <SystemInit>
 8003d42:	f000 f8f7 	bl	8003f34 <__libc_init_array>
 8003d46:	f7ff ff67 	bl	8003c18 <main>
 8003d4a:	4770      	bx	lr
 8003d4c:	2000c000 	.word	0x2000c000
 8003d50:	080095f0 	.word	0x080095f0
 8003d54:	20000000 	.word	0x20000000
 8003d58:	200006cc 	.word	0x200006cc
 8003d5c:	200006cc 	.word	0x200006cc
 8003d60:	20002334 	.word	0x20002334

08003d64 <ADC1_2_IRQHandler>:
 8003d64:	e7fe      	b.n	8003d64 <ADC1_2_IRQHandler>

08003d66 <NMI_Handler>:
 8003d66:	4770      	bx	lr

08003d68 <HardFault_Handler>:
 8003d68:	b508      	push	{r3, lr}
 8003d6a:	4802      	ldr	r0, [pc, #8]	; (8003d74 <HardFault_Handler+0xc>)
 8003d6c:	f000 f9a0 	bl	80040b0 <puts>
 8003d70:	e7fe      	b.n	8003d70 <HardFault_Handler+0x8>
 8003d72:	bf00      	nop
 8003d74:	080092e5 	.word	0x080092e5

08003d78 <MemManage_Handler>:
 8003d78:	e7fe      	b.n	8003d78 <MemManage_Handler>

08003d7a <BusFault_Handler>:
 8003d7a:	e7fe      	b.n	8003d7a <BusFault_Handler>

08003d7c <UsageFault_Handler>:
 8003d7c:	e7fe      	b.n	8003d7c <UsageFault_Handler>

08003d7e <SVC_Handler>:
 8003d7e:	4770      	bx	lr

08003d80 <DebugMon_Handler>:
 8003d80:	4770      	bx	lr

08003d82 <PendSV_Handler>:
 8003d82:	4770      	bx	lr

08003d84 <SysTick_Handler>:
 8003d84:	4770      	bx	lr
	...

08003d88 <__io_putchar>:
 8003d88:	b538      	push	{r3, r4, r5, lr}
 8003d8a:	b281      	uxth	r1, r0
 8003d8c:	4604      	mov	r4, r0
 8003d8e:	4806      	ldr	r0, [pc, #24]	; (8003da8 <__io_putchar+0x20>)
 8003d90:	f7ff fdb4 	bl	80038fc <USART_SendData>
 8003d94:	4d04      	ldr	r5, [pc, #16]	; (8003da8 <__io_putchar+0x20>)
 8003d96:	2180      	movs	r1, #128	; 0x80
 8003d98:	4628      	mov	r0, r5
 8003d9a:	f7ff fdb7 	bl	800390c <USART_GetFlagStatus>
 8003d9e:	2800      	cmp	r0, #0
 8003da0:	d0f9      	beq.n	8003d96 <__io_putchar+0xe>
 8003da2:	4620      	mov	r0, r4
 8003da4:	bd38      	pop	{r3, r4, r5, pc}
 8003da6:	bf00      	nop
 8003da8:	40013800 	.word	0x40013800

08003dac <_write>:
 8003dac:	b570      	push	{r4, r5, r6, lr}
 8003dae:	460e      	mov	r6, r1
 8003db0:	4615      	mov	r5, r2
 8003db2:	460c      	mov	r4, r1
 8003db4:	1ba3      	subs	r3, r4, r6
 8003db6:	429d      	cmp	r5, r3
 8003db8:	dc01      	bgt.n	8003dbe <_write+0x12>
 8003dba:	4628      	mov	r0, r5
 8003dbc:	bd70      	pop	{r4, r5, r6, pc}
 8003dbe:	f814 0b01 	ldrb.w	r0, [r4], #1
 8003dc2:	f7ff ffe1 	bl	8003d88 <__io_putchar>
 8003dc6:	e7f5      	b.n	8003db4 <_write+0x8>

08003dc8 <_sbrk>:
 8003dc8:	4b04      	ldr	r3, [pc, #16]	; (8003ddc <_sbrk+0x14>)
 8003dca:	4602      	mov	r2, r0
 8003dcc:	6819      	ldr	r1, [r3, #0]
 8003dce:	b909      	cbnz	r1, 8003dd4 <_sbrk+0xc>
 8003dd0:	4903      	ldr	r1, [pc, #12]	; (8003de0 <_sbrk+0x18>)
 8003dd2:	6019      	str	r1, [r3, #0]
 8003dd4:	6818      	ldr	r0, [r3, #0]
 8003dd6:	4402      	add	r2, r0
 8003dd8:	601a      	str	r2, [r3, #0]
 8003dda:	4770      	bx	lr
 8003ddc:	20001a5c 	.word	0x20001a5c
 8003de0:	20002334 	.word	0x20002334

08003de4 <_close>:
 8003de4:	2258      	movs	r2, #88	; 0x58
 8003de6:	4b02      	ldr	r3, [pc, #8]	; (8003df0 <_close+0xc>)
 8003de8:	f04f 30ff 	mov.w	r0, #4294967295
 8003dec:	601a      	str	r2, [r3, #0]
 8003dee:	4770      	bx	lr
 8003df0:	20002324 	.word	0x20002324

08003df4 <_fstat>:
 8003df4:	2258      	movs	r2, #88	; 0x58
 8003df6:	4b02      	ldr	r3, [pc, #8]	; (8003e00 <_fstat+0xc>)
 8003df8:	f04f 30ff 	mov.w	r0, #4294967295
 8003dfc:	601a      	str	r2, [r3, #0]
 8003dfe:	4770      	bx	lr
 8003e00:	20002324 	.word	0x20002324

08003e04 <_isatty>:
 8003e04:	2258      	movs	r2, #88	; 0x58
 8003e06:	4b02      	ldr	r3, [pc, #8]	; (8003e10 <_isatty+0xc>)
 8003e08:	2000      	movs	r0, #0
 8003e0a:	601a      	str	r2, [r3, #0]
 8003e0c:	4770      	bx	lr
 8003e0e:	bf00      	nop
 8003e10:	20002324 	.word	0x20002324

08003e14 <_lseek>:
 8003e14:	2258      	movs	r2, #88	; 0x58
 8003e16:	4b02      	ldr	r3, [pc, #8]	; (8003e20 <_lseek+0xc>)
 8003e18:	f04f 30ff 	mov.w	r0, #4294967295
 8003e1c:	601a      	str	r2, [r3, #0]
 8003e1e:	4770      	bx	lr
 8003e20:	20002324 	.word	0x20002324

08003e24 <_read>:
 8003e24:	2258      	movs	r2, #88	; 0x58
 8003e26:	4b02      	ldr	r3, [pc, #8]	; (8003e30 <_read+0xc>)
 8003e28:	f04f 30ff 	mov.w	r0, #4294967295
 8003e2c:	601a      	str	r2, [r3, #0]
 8003e2e:	4770      	bx	lr
 8003e30:	20002324 	.word	0x20002324

08003e34 <SystemInit>:
 8003e34:	4b37      	ldr	r3, [pc, #220]	; (8003f14 <SystemInit+0xe0>)
 8003e36:	b082      	sub	sp, #8
 8003e38:	681a      	ldr	r2, [r3, #0]
 8003e3a:	f042 0201 	orr.w	r2, r2, #1
 8003e3e:	601a      	str	r2, [r3, #0]
 8003e40:	6859      	ldr	r1, [r3, #4]
 8003e42:	4a35      	ldr	r2, [pc, #212]	; (8003f18 <SystemInit+0xe4>)
 8003e44:	400a      	ands	r2, r1
 8003e46:	605a      	str	r2, [r3, #4]
 8003e48:	681a      	ldr	r2, [r3, #0]
 8003e4a:	f022 7284 	bic.w	r2, r2, #17301504	; 0x1080000
 8003e4e:	f422 3280 	bic.w	r2, r2, #65536	; 0x10000
 8003e52:	601a      	str	r2, [r3, #0]
 8003e54:	681a      	ldr	r2, [r3, #0]
 8003e56:	f422 2280 	bic.w	r2, r2, #262144	; 0x40000
 8003e5a:	601a      	str	r2, [r3, #0]
 8003e5c:	685a      	ldr	r2, [r3, #4]
 8003e5e:	f422 02fe 	bic.w	r2, r2, #8323072	; 0x7f0000
 8003e62:	605a      	str	r2, [r3, #4]
 8003e64:	f44f 021f 	mov.w	r2, #10420224	; 0x9f0000
 8003e68:	609a      	str	r2, [r3, #8]
 8003e6a:	2200      	movs	r2, #0
 8003e6c:	9200      	str	r2, [sp, #0]
 8003e6e:	9201      	str	r2, [sp, #4]
 8003e70:	681a      	ldr	r2, [r3, #0]
 8003e72:	f442 3280 	orr.w	r2, r2, #65536	; 0x10000
 8003e76:	601a      	str	r2, [r3, #0]
 8003e78:	681a      	ldr	r2, [r3, #0]
 8003e7a:	f402 3200 	and.w	r2, r2, #131072	; 0x20000
 8003e7e:	9201      	str	r2, [sp, #4]
 8003e80:	9a00      	ldr	r2, [sp, #0]
 8003e82:	3201      	adds	r2, #1
 8003e84:	9200      	str	r2, [sp, #0]
 8003e86:	9a01      	ldr	r2, [sp, #4]
 8003e88:	b91a      	cbnz	r2, 8003e92 <SystemInit+0x5e>
 8003e8a:	9a00      	ldr	r2, [sp, #0]
 8003e8c:	f5b2 6fa0 	cmp.w	r2, #1280	; 0x500
 8003e90:	d1f2      	bne.n	8003e78 <SystemInit+0x44>
 8003e92:	681a      	ldr	r2, [r3, #0]
 8003e94:	f412 3200 	ands.w	r2, r2, #131072	; 0x20000
 8003e98:	bf18      	it	ne
 8003e9a:	2201      	movne	r2, #1
 8003e9c:	9201      	str	r2, [sp, #4]
 8003e9e:	9a01      	ldr	r2, [sp, #4]
 8003ea0:	2a01      	cmp	r2, #1
 8003ea2:	d005      	beq.n	8003eb0 <SystemInit+0x7c>
 8003ea4:	f04f 6200 	mov.w	r2, #134217728	; 0x8000000
 8003ea8:	4b1c      	ldr	r3, [pc, #112]	; (8003f1c <SystemInit+0xe8>)
 8003eaa:	609a      	str	r2, [r3, #8]
 8003eac:	b002      	add	sp, #8
 8003eae:	4770      	bx	lr
 8003eb0:	4a1b      	ldr	r2, [pc, #108]	; (8003f20 <SystemInit+0xec>)
 8003eb2:	6811      	ldr	r1, [r2, #0]
 8003eb4:	f041 0110 	orr.w	r1, r1, #16
 8003eb8:	6011      	str	r1, [r2, #0]
 8003eba:	6811      	ldr	r1, [r2, #0]
 8003ebc:	f021 0103 	bic.w	r1, r1, #3
 8003ec0:	6011      	str	r1, [r2, #0]
 8003ec2:	6811      	ldr	r1, [r2, #0]
 8003ec4:	f041 0102 	orr.w	r1, r1, #2
 8003ec8:	6011      	str	r1, [r2, #0]
 8003eca:	685a      	ldr	r2, [r3, #4]
 8003ecc:	605a      	str	r2, [r3, #4]
 8003ece:	685a      	ldr	r2, [r3, #4]
 8003ed0:	605a      	str	r2, [r3, #4]
 8003ed2:	685a      	ldr	r2, [r3, #4]
 8003ed4:	f442 6280 	orr.w	r2, r2, #1024	; 0x400
 8003ed8:	605a      	str	r2, [r3, #4]
 8003eda:	685a      	ldr	r2, [r3, #4]
 8003edc:	f422 127c 	bic.w	r2, r2, #4128768	; 0x3f0000
 8003ee0:	605a      	str	r2, [r3, #4]
 8003ee2:	685a      	ldr	r2, [r3, #4]
 8003ee4:	f442 12e8 	orr.w	r2, r2, #1900544	; 0x1d0000
 8003ee8:	605a      	str	r2, [r3, #4]
 8003eea:	681a      	ldr	r2, [r3, #0]
 8003eec:	f042 7280 	orr.w	r2, r2, #16777216	; 0x1000000
 8003ef0:	601a      	str	r2, [r3, #0]
 8003ef2:	681a      	ldr	r2, [r3, #0]
 8003ef4:	0192      	lsls	r2, r2, #6
 8003ef6:	d5fc      	bpl.n	8003ef2 <SystemInit+0xbe>
 8003ef8:	685a      	ldr	r2, [r3, #4]
 8003efa:	f022 0203 	bic.w	r2, r2, #3
 8003efe:	605a      	str	r2, [r3, #4]
 8003f00:	685a      	ldr	r2, [r3, #4]
 8003f02:	f042 0202 	orr.w	r2, r2, #2
 8003f06:	605a      	str	r2, [r3, #4]
 8003f08:	685a      	ldr	r2, [r3, #4]
 8003f0a:	f002 020c 	and.w	r2, r2, #12
 8003f0e:	2a08      	cmp	r2, #8
 8003f10:	d1fa      	bne.n	8003f08 <SystemInit+0xd4>
 8003f12:	e7c7      	b.n	8003ea4 <SystemInit+0x70>
 8003f14:	40021000 	.word	0x40021000
 8003f18:	f8ff0000 	.word	0xf8ff0000
 8003f1c:	e000ed00 	.word	0xe000ed00
 8003f20:	40022000 	.word	0x40022000

08003f24 <atoi>:
 8003f24:	220a      	movs	r2, #10
 8003f26:	2100      	movs	r1, #0
 8003f28:	f000 ba18 	b.w	800435c <strtol>

08003f2c <atol>:
 8003f2c:	220a      	movs	r2, #10
 8003f2e:	2100      	movs	r1, #0
 8003f30:	f000 ba14 	b.w	800435c <strtol>

08003f34 <__libc_init_array>:
 8003f34:	b570      	push	{r4, r5, r6, lr}
 8003f36:	2500      	movs	r5, #0
 8003f38:	4e0c      	ldr	r6, [pc, #48]	; (8003f6c <__libc_init_array+0x38>)
 8003f3a:	4c0d      	ldr	r4, [pc, #52]	; (8003f70 <__libc_init_array+0x3c>)
 8003f3c:	1ba4      	subs	r4, r4, r6
 8003f3e:	10a4      	asrs	r4, r4, #2
 8003f40:	42a5      	cmp	r5, r4
 8003f42:	d109      	bne.n	8003f58 <__libc_init_array+0x24>
 8003f44:	f004 ff9a 	bl	8008e7c <_init>
 8003f48:	2500      	movs	r5, #0
 8003f4a:	4e0a      	ldr	r6, [pc, #40]	; (8003f74 <__libc_init_array+0x40>)
 8003f4c:	4c0a      	ldr	r4, [pc, #40]	; (8003f78 <__libc_init_array+0x44>)
 8003f4e:	1ba4      	subs	r4, r4, r6
 8003f50:	10a4      	asrs	r4, r4, #2
 8003f52:	42a5      	cmp	r5, r4
 8003f54:	d105      	bne.n	8003f62 <__libc_init_array+0x2e>
 8003f56:	bd70      	pop	{r4, r5, r6, pc}
 8003f58:	f856 3025 	ldr.w	r3, [r6, r5, lsl #2]
 8003f5c:	4798      	blx	r3
 8003f5e:	3501      	adds	r5, #1
 8003f60:	e7ee      	b.n	8003f40 <__libc_init_array+0xc>
 8003f62:	f856 3025 	ldr.w	r3, [r6, r5, lsl #2]
 8003f66:	4798      	blx	r3
 8003f68:	3501      	adds	r5, #1
 8003f6a:	e7f2      	b.n	8003f52 <__libc_init_array+0x1e>
 8003f6c:	080095e8 	.word	0x080095e8
 8003f70:	080095e8 	.word	0x080095e8
 8003f74:	080095e8 	.word	0x080095e8
 8003f78:	080095ec 	.word	0x080095ec

08003f7c <memcmp>:
 8003f7c:	b510      	push	{r4, lr}
 8003f7e:	3901      	subs	r1, #1
 8003f80:	4402      	add	r2, r0
 8003f82:	4290      	cmp	r0, r2
 8003f84:	d101      	bne.n	8003f8a <memcmp+0xe>
 8003f86:	2000      	movs	r0, #0
 8003f88:	bd10      	pop	{r4, pc}
 8003f8a:	f810 3b01 	ldrb.w	r3, [r0], #1
 8003f8e:	f811 4f01 	ldrb.w	r4, [r1, #1]!
 8003f92:	42a3      	cmp	r3, r4
 8003f94:	d0f5      	beq.n	8003f82 <memcmp+0x6>
 8003f96:	1b18      	subs	r0, r3, r4
 8003f98:	bd10      	pop	{r4, pc}

08003f9a <memcpy>:
 8003f9a:	b510      	push	{r4, lr}
 8003f9c:	1e43      	subs	r3, r0, #1
 8003f9e:	440a      	add	r2, r1
 8003fa0:	4291      	cmp	r1, r2
 8003fa2:	d100      	bne.n	8003fa6 <memcpy+0xc>
 8003fa4:	bd10      	pop	{r4, pc}
 8003fa6:	f811 4b01 	ldrb.w	r4, [r1], #1
 8003faa:	f803 4f01 	strb.w	r4, [r3, #1]!
 8003fae:	e7f7      	b.n	8003fa0 <memcpy+0x6>

08003fb0 <memset>:
 8003fb0:	4603      	mov	r3, r0
 8003fb2:	4402      	add	r2, r0
 8003fb4:	4293      	cmp	r3, r2
 8003fb6:	d100      	bne.n	8003fba <memset+0xa>
 8003fb8:	4770      	bx	lr
 8003fba:	f803 1b01 	strb.w	r1, [r3], #1
 8003fbe:	e7f9      	b.n	8003fb4 <memset+0x4>

08003fc0 <printf>:
 8003fc0:	b40f      	push	{r0, r1, r2, r3}
 8003fc2:	4b0a      	ldr	r3, [pc, #40]	; (8003fec <printf+0x2c>)
 8003fc4:	b513      	push	{r0, r1, r4, lr}
 8003fc6:	681c      	ldr	r4, [r3, #0]
 8003fc8:	b124      	cbz	r4, 8003fd4 <printf+0x14>
 8003fca:	69a3      	ldr	r3, [r4, #24]
 8003fcc:	b913      	cbnz	r3, 8003fd4 <printf+0x14>
 8003fce:	4620      	mov	r0, r4
 8003fd0:	f003 fa14 	bl	80073fc <__sinit>
 8003fd4:	ab05      	add	r3, sp, #20
 8003fd6:	9a04      	ldr	r2, [sp, #16]
 8003fd8:	68a1      	ldr	r1, [r4, #8]
 8003fda:	4620      	mov	r0, r4
 8003fdc:	9301      	str	r3, [sp, #4]
 8003fde:	f001 f9a3 	bl	8005328 <_vfprintf_r>
 8003fe2:	b002      	add	sp, #8
 8003fe4:	e8bd 4010 	ldmia.w	sp!, {r4, lr}
 8003fe8:	b004      	add	sp, #16
 8003fea:	4770      	bx	lr
 8003fec:	2000005c 	.word	0x2000005c

08003ff0 <_puts_r>:
 8003ff0:	b530      	push	{r4, r5, lr}
 8003ff2:	4605      	mov	r5, r0
 8003ff4:	b089      	sub	sp, #36	; 0x24
 8003ff6:	4608      	mov	r0, r1
 8003ff8:	460c      	mov	r4, r1
 8003ffa:	f7fc f915 	bl	8000228 <strlen>
 8003ffe:	4b28      	ldr	r3, [pc, #160]	; (80040a0 <_puts_r+0xb0>)
 8004000:	9005      	str	r0, [sp, #20]
 8004002:	9306      	str	r3, [sp, #24]
 8004004:	2301      	movs	r3, #1
 8004006:	4418      	add	r0, r3
 8004008:	9307      	str	r3, [sp, #28]
 800400a:	ab04      	add	r3, sp, #16
 800400c:	9301      	str	r3, [sp, #4]
 800400e:	2302      	movs	r3, #2
 8004010:	9404      	str	r4, [sp, #16]
 8004012:	9003      	str	r0, [sp, #12]
 8004014:	9302      	str	r3, [sp, #8]
 8004016:	b125      	cbz	r5, 8004022 <_puts_r+0x32>
 8004018:	69ab      	ldr	r3, [r5, #24]
 800401a:	b913      	cbnz	r3, 8004022 <_puts_r+0x32>
 800401c:	4628      	mov	r0, r5
 800401e:	f003 f9ed 	bl	80073fc <__sinit>
 8004022:	69ab      	ldr	r3, [r5, #24]
 8004024:	68ac      	ldr	r4, [r5, #8]
 8004026:	b913      	cbnz	r3, 800402e <_puts_r+0x3e>
 8004028:	4628      	mov	r0, r5
 800402a:	f003 f9e7 	bl	80073fc <__sinit>
 800402e:	4b1d      	ldr	r3, [pc, #116]	; (80040a4 <_puts_r+0xb4>)
 8004030:	429c      	cmp	r4, r3
 8004032:	d12a      	bne.n	800408a <_puts_r+0x9a>
 8004034:	686c      	ldr	r4, [r5, #4]
 8004036:	6e63      	ldr	r3, [r4, #100]	; 0x64
 8004038:	07db      	lsls	r3, r3, #31
 800403a:	d405      	bmi.n	8004048 <_puts_r+0x58>
 800403c:	89a3      	ldrh	r3, [r4, #12]
 800403e:	0598      	lsls	r0, r3, #22
 8004040:	d402      	bmi.n	8004048 <_puts_r+0x58>
 8004042:	6da0      	ldr	r0, [r4, #88]	; 0x58
 8004044:	f003 fcfc 	bl	8007a40 <__retarget_lock_acquire_recursive>
 8004048:	f9b4 300c 	ldrsh.w	r3, [r4, #12]
 800404c:	0499      	lsls	r1, r3, #18
 800404e:	d406      	bmi.n	800405e <_puts_r+0x6e>
 8004050:	f443 5300 	orr.w	r3, r3, #8192	; 0x2000
 8004054:	81a3      	strh	r3, [r4, #12]
 8004056:	6e63      	ldr	r3, [r4, #100]	; 0x64
 8004058:	f423 5300 	bic.w	r3, r3, #8192	; 0x2000
 800405c:	6663      	str	r3, [r4, #100]	; 0x64
 800405e:	4628      	mov	r0, r5
 8004060:	aa01      	add	r2, sp, #4
 8004062:	4621      	mov	r1, r4
 8004064:	f003 fb5e 	bl	8007724 <__sfvwrite_r>
 8004068:	6e63      	ldr	r3, [r4, #100]	; 0x64
 800406a:	2800      	cmp	r0, #0
 800406c:	bf14      	ite	ne
 800406e:	f04f 35ff 	movne.w	r5, #4294967295
 8004072:	250a      	moveq	r5, #10
 8004074:	07da      	lsls	r2, r3, #31
 8004076:	d405      	bmi.n	8004084 <_puts_r+0x94>
 8004078:	89a3      	ldrh	r3, [r4, #12]
 800407a:	059b      	lsls	r3, r3, #22
 800407c:	d402      	bmi.n	8004084 <_puts_r+0x94>
 800407e:	6da0      	ldr	r0, [r4, #88]	; 0x58
 8004080:	f003 fcdf 	bl	8007a42 <__retarget_lock_release_recursive>
 8004084:	4628      	mov	r0, r5
 8004086:	b009      	add	sp, #36	; 0x24
 8004088:	bd30      	pop	{r4, r5, pc}
 800408a:	4b07      	ldr	r3, [pc, #28]	; (80040a8 <_puts_r+0xb8>)
 800408c:	429c      	cmp	r4, r3
 800408e:	d101      	bne.n	8004094 <_puts_r+0xa4>
 8004090:	68ac      	ldr	r4, [r5, #8]
 8004092:	e7d0      	b.n	8004036 <_puts_r+0x46>
 8004094:	4b05      	ldr	r3, [pc, #20]	; (80040ac <_puts_r+0xbc>)
 8004096:	429c      	cmp	r4, r3
 8004098:	bf08      	it	eq
 800409a:	68ec      	ldreq	r4, [r5, #12]
 800409c:	e7cb      	b.n	8004036 <_puts_r+0x46>
 800409e:	bf00      	nop
 80040a0:	0800918c 	.word	0x0800918c
 80040a4:	08009390 	.word	0x08009390
 80040a8:	080093b0 	.word	0x080093b0
 80040ac:	08009370 	.word	0x08009370

080040b0 <puts>:
 80040b0:	4b02      	ldr	r3, [pc, #8]	; (80040bc <puts+0xc>)
 80040b2:	4601      	mov	r1, r0
 80040b4:	6818      	ldr	r0, [r3, #0]
 80040b6:	f7ff bf9b 	b.w	8003ff0 <_puts_r>
 80040ba:	bf00      	nop
 80040bc:	2000005c 	.word	0x2000005c

080040c0 <sprintf>:
 80040c0:	b40e      	push	{r1, r2, r3}
 80040c2:	f44f 7102 	mov.w	r1, #520	; 0x208
 80040c6:	b500      	push	{lr}
 80040c8:	b09c      	sub	sp, #112	; 0x70
 80040ca:	f8ad 1014 	strh.w	r1, [sp, #20]
 80040ce:	f06f 4100 	mvn.w	r1, #2147483648	; 0x80000000
 80040d2:	9104      	str	r1, [sp, #16]
 80040d4:	9107      	str	r1, [sp, #28]
 80040d6:	f64f 71ff 	movw	r1, #65535	; 0xffff
 80040da:	ab1d      	add	r3, sp, #116	; 0x74
 80040dc:	9002      	str	r0, [sp, #8]
 80040de:	9006      	str	r0, [sp, #24]
 80040e0:	4808      	ldr	r0, [pc, #32]	; (8004104 <sprintf+0x44>)
 80040e2:	f853 2b04 	ldr.w	r2, [r3], #4
 80040e6:	f8ad 1016 	strh.w	r1, [sp, #22]
 80040ea:	6800      	ldr	r0, [r0, #0]
 80040ec:	a902      	add	r1, sp, #8
 80040ee:	9301      	str	r3, [sp, #4]
 80040f0:	f000 f94a 	bl	8004388 <_svfprintf_r>
 80040f4:	2200      	movs	r2, #0
 80040f6:	9b02      	ldr	r3, [sp, #8]
 80040f8:	701a      	strb	r2, [r3, #0]
 80040fa:	b01c      	add	sp, #112	; 0x70
 80040fc:	f85d eb04 	ldr.w	lr, [sp], #4
 8004100:	b003      	add	sp, #12
 8004102:	4770      	bx	lr
 8004104:	2000005c 	.word	0x2000005c

08004108 <strcat>:
 8004108:	4602      	mov	r2, r0
 800410a:	b510      	push	{r4, lr}
 800410c:	4613      	mov	r3, r2
 800410e:	781c      	ldrb	r4, [r3, #0]
 8004110:	3201      	adds	r2, #1
 8004112:	2c00      	cmp	r4, #0
 8004114:	d1fa      	bne.n	800410c <strcat+0x4>
 8004116:	3b01      	subs	r3, #1
 8004118:	f811 2b01 	ldrb.w	r2, [r1], #1
 800411c:	f803 2f01 	strb.w	r2, [r3, #1]!
 8004120:	2a00      	cmp	r2, #0
 8004122:	d1f9      	bne.n	8004118 <strcat+0x10>
 8004124:	bd10      	pop	{r4, pc}

08004126 <strchr>:
 8004126:	b2c9      	uxtb	r1, r1
 8004128:	4603      	mov	r3, r0
 800412a:	f810 2b01 	ldrb.w	r2, [r0], #1
 800412e:	b11a      	cbz	r2, 8004138 <strchr+0x12>
 8004130:	4291      	cmp	r1, r2
 8004132:	d1f9      	bne.n	8004128 <strchr+0x2>
 8004134:	4618      	mov	r0, r3
 8004136:	4770      	bx	lr
 8004138:	2900      	cmp	r1, #0
 800413a:	bf0c      	ite	eq
 800413c:	4618      	moveq	r0, r3
 800413e:	2000      	movne	r0, #0
 8004140:	4770      	bx	lr

08004142 <strcpy>:
 8004142:	4603      	mov	r3, r0
 8004144:	f811 2b01 	ldrb.w	r2, [r1], #1
 8004148:	f803 2b01 	strb.w	r2, [r3], #1
 800414c:	2a00      	cmp	r2, #0
 800414e:	d1f9      	bne.n	8004144 <strcpy+0x2>
 8004150:	4770      	bx	lr

08004152 <strncat>:
 8004152:	4603      	mov	r3, r0
 8004154:	b530      	push	{r4, r5, lr}
 8004156:	781c      	ldrb	r4, [r3, #0]
 8004158:	1c5d      	adds	r5, r3, #1
 800415a:	b944      	cbnz	r4, 800416e <strncat+0x1c>
 800415c:	f112 32ff 	adds.w	r2, r2, #4294967295
 8004160:	d304      	bcc.n	800416c <strncat+0x1a>
 8004162:	f811 4b01 	ldrb.w	r4, [r1], #1
 8004166:	f803 4b01 	strb.w	r4, [r3], #1
 800416a:	b914      	cbnz	r4, 8004172 <strncat+0x20>
 800416c:	bd30      	pop	{r4, r5, pc}
 800416e:	462b      	mov	r3, r5
 8004170:	e7f1      	b.n	8004156 <strncat+0x4>
 8004172:	2a00      	cmp	r2, #0
 8004174:	d1f2      	bne.n	800415c <strncat+0xa>
 8004176:	701a      	strb	r2, [r3, #0]
 8004178:	e7f0      	b.n	800415c <strncat+0xa>

0800417a <strstr>:
 800417a:	b5f0      	push	{r4, r5, r6, r7, lr}
 800417c:	7803      	ldrb	r3, [r0, #0]
 800417e:	b133      	cbz	r3, 800418e <strstr+0x14>
 8004180:	4603      	mov	r3, r0
 8004182:	4618      	mov	r0, r3
 8004184:	1c5e      	adds	r6, r3, #1
 8004186:	781b      	ldrb	r3, [r3, #0]
 8004188:	b933      	cbnz	r3, 8004198 <strstr+0x1e>
 800418a:	4618      	mov	r0, r3
 800418c:	bdf0      	pop	{r4, r5, r6, r7, pc}
 800418e:	780b      	ldrb	r3, [r1, #0]
 8004190:	2b00      	cmp	r3, #0
 8004192:	bf18      	it	ne
 8004194:	2000      	movne	r0, #0
 8004196:	bdf0      	pop	{r4, r5, r6, r7, pc}
 8004198:	1e4d      	subs	r5, r1, #1
 800419a:	1e44      	subs	r4, r0, #1
 800419c:	f815 2f01 	ldrb.w	r2, [r5, #1]!
 80041a0:	2a00      	cmp	r2, #0
 80041a2:	d0f3      	beq.n	800418c <strstr+0x12>
 80041a4:	f814 7f01 	ldrb.w	r7, [r4, #1]!
 80041a8:	4633      	mov	r3, r6
 80041aa:	4297      	cmp	r7, r2
 80041ac:	d0f6      	beq.n	800419c <strstr+0x22>
 80041ae:	e7e8      	b.n	8004182 <strstr+0x8>

080041b0 <strtok>:
 80041b0:	4b14      	ldr	r3, [pc, #80]	; (8004204 <strtok+0x54>)
 80041b2:	e92d 41f0 	stmdb	sp!, {r4, r5, r6, r7, r8, lr}
 80041b6:	681d      	ldr	r5, [r3, #0]
 80041b8:	4606      	mov	r6, r0
 80041ba:	f8d5 40e8 	ldr.w	r4, [r5, #232]	; 0xe8
 80041be:	460f      	mov	r7, r1
 80041c0:	b9bc      	cbnz	r4, 80041f2 <strtok+0x42>
 80041c2:	2050      	movs	r0, #80	; 0x50
 80041c4:	f003 fcaa 	bl	8007b1c <malloc>
 80041c8:	f8c5 00e8 	str.w	r0, [r5, #232]	; 0xe8
 80041cc:	6004      	str	r4, [r0, #0]
 80041ce:	6044      	str	r4, [r0, #4]
 80041d0:	6084      	str	r4, [r0, #8]
 80041d2:	60c4      	str	r4, [r0, #12]
 80041d4:	6104      	str	r4, [r0, #16]
 80041d6:	6144      	str	r4, [r0, #20]
 80041d8:	6184      	str	r4, [r0, #24]
 80041da:	6284      	str	r4, [r0, #40]	; 0x28
 80041dc:	62c4      	str	r4, [r0, #44]	; 0x2c
 80041de:	6304      	str	r4, [r0, #48]	; 0x30
 80041e0:	6344      	str	r4, [r0, #52]	; 0x34
 80041e2:	6384      	str	r4, [r0, #56]	; 0x38
 80041e4:	63c4      	str	r4, [r0, #60]	; 0x3c
 80041e6:	6404      	str	r4, [r0, #64]	; 0x40
 80041e8:	6444      	str	r4, [r0, #68]	; 0x44
 80041ea:	6484      	str	r4, [r0, #72]	; 0x48
 80041ec:	64c4      	str	r4, [r0, #76]	; 0x4c
 80041ee:	7704      	strb	r4, [r0, #28]
 80041f0:	6244      	str	r4, [r0, #36]	; 0x24
 80041f2:	f8d5 20e8 	ldr.w	r2, [r5, #232]	; 0xe8
 80041f6:	4639      	mov	r1, r7
 80041f8:	4630      	mov	r0, r6
 80041fa:	e8bd 41f0 	ldmia.w	sp!, {r4, r5, r6, r7, r8, lr}
 80041fe:	2301      	movs	r3, #1
 8004200:	f000 b802 	b.w	8004208 <__strtok_r>
 8004204:	2000005c 	.word	0x2000005c

08004208 <__strtok_r>:
 8004208:	b5f0      	push	{r4, r5, r6, r7, lr}
 800420a:	b918      	cbnz	r0, 8004214 <__strtok_r+0xc>
 800420c:	6810      	ldr	r0, [r2, #0]
 800420e:	b908      	cbnz	r0, 8004214 <__strtok_r+0xc>
 8004210:	bdf0      	pop	{r4, r5, r6, r7, pc}
 8004212:	4620      	mov	r0, r4
 8004214:	4604      	mov	r4, r0
 8004216:	460f      	mov	r7, r1
 8004218:	f814 5b01 	ldrb.w	r5, [r4], #1
 800421c:	f817 6b01 	ldrb.w	r6, [r7], #1
 8004220:	b91e      	cbnz	r6, 800422a <__strtok_r+0x22>
 8004222:	b965      	cbnz	r5, 800423e <__strtok_r+0x36>
 8004224:	6015      	str	r5, [r2, #0]
 8004226:	4628      	mov	r0, r5
 8004228:	bdf0      	pop	{r4, r5, r6, r7, pc}
 800422a:	42b5      	cmp	r5, r6
 800422c:	d1f6      	bne.n	800421c <__strtok_r+0x14>
 800422e:	2b00      	cmp	r3, #0
 8004230:	d1ef      	bne.n	8004212 <__strtok_r+0xa>
 8004232:	6014      	str	r4, [r2, #0]
 8004234:	7003      	strb	r3, [r0, #0]
 8004236:	bdf0      	pop	{r4, r5, r6, r7, pc}
 8004238:	461c      	mov	r4, r3
 800423a:	e00c      	b.n	8004256 <__strtok_r+0x4e>
 800423c:	b915      	cbnz	r5, 8004244 <__strtok_r+0x3c>
 800423e:	460e      	mov	r6, r1
 8004240:	f814 3b01 	ldrb.w	r3, [r4], #1
 8004244:	f816 5b01 	ldrb.w	r5, [r6], #1
 8004248:	42ab      	cmp	r3, r5
 800424a:	d1f7      	bne.n	800423c <__strtok_r+0x34>
 800424c:	2b00      	cmp	r3, #0
 800424e:	d0f3      	beq.n	8004238 <__strtok_r+0x30>
 8004250:	2300      	movs	r3, #0
 8004252:	f804 3c01 	strb.w	r3, [r4, #-1]
 8004256:	6014      	str	r4, [r2, #0]
 8004258:	bdf0      	pop	{r4, r5, r6, r7, pc}

0800425a <_strtol_l.isra.0>:
 800425a:	e92d 4ff8 	stmdb	sp!, {r3, r4, r5, r6, r7, r8, r9, sl, fp, lr}
 800425e:	4680      	mov	r8, r0
 8004260:	4689      	mov	r9, r1
 8004262:	4692      	mov	sl, r2
 8004264:	461f      	mov	r7, r3
 8004266:	468b      	mov	fp, r1
 8004268:	465d      	mov	r5, fp
 800426a:	980a      	ldr	r0, [sp, #40]	; 0x28
 800426c:	f815 4b01 	ldrb.w	r4, [r5], #1
 8004270:	f003 fbd2 	bl	8007a18 <__locale_ctype_ptr_l>
 8004274:	4420      	add	r0, r4
 8004276:	7846      	ldrb	r6, [r0, #1]
 8004278:	f016 0608 	ands.w	r6, r6, #8
 800427c:	d10b      	bne.n	8004296 <_strtol_l.isra.0+0x3c>
 800427e:	2c2d      	cmp	r4, #45	; 0x2d
 8004280:	d10b      	bne.n	800429a <_strtol_l.isra.0+0x40>
 8004282:	2601      	movs	r6, #1
 8004284:	782c      	ldrb	r4, [r5, #0]
 8004286:	f10b 0502 	add.w	r5, fp, #2
 800428a:	b167      	cbz	r7, 80042a6 <_strtol_l.isra.0+0x4c>
 800428c:	2f10      	cmp	r7, #16
 800428e:	d114      	bne.n	80042ba <_strtol_l.isra.0+0x60>
 8004290:	2c30      	cmp	r4, #48	; 0x30
 8004292:	d00a      	beq.n	80042aa <_strtol_l.isra.0+0x50>
 8004294:	e011      	b.n	80042ba <_strtol_l.isra.0+0x60>
 8004296:	46ab      	mov	fp, r5
 8004298:	e7e6      	b.n	8004268 <_strtol_l.isra.0+0xe>
 800429a:	2c2b      	cmp	r4, #43	; 0x2b
 800429c:	bf04      	itt	eq
 800429e:	782c      	ldrbeq	r4, [r5, #0]
 80042a0:	f10b 0502 	addeq.w	r5, fp, #2
 80042a4:	e7f1      	b.n	800428a <_strtol_l.isra.0+0x30>
 80042a6:	2c30      	cmp	r4, #48	; 0x30
 80042a8:	d127      	bne.n	80042fa <_strtol_l.isra.0+0xa0>
 80042aa:	782b      	ldrb	r3, [r5, #0]
 80042ac:	f003 03df 	and.w	r3, r3, #223	; 0xdf
 80042b0:	2b58      	cmp	r3, #88	; 0x58
 80042b2:	d14b      	bne.n	800434c <_strtol_l.isra.0+0xf2>
 80042b4:	2710      	movs	r7, #16
 80042b6:	786c      	ldrb	r4, [r5, #1]
 80042b8:	3502      	adds	r5, #2
 80042ba:	2e00      	cmp	r6, #0
 80042bc:	bf0c      	ite	eq
 80042be:	f06f 4100 	mvneq.w	r1, #2147483648	; 0x80000000
 80042c2:	f04f 4100 	movne.w	r1, #2147483648	; 0x80000000
 80042c6:	2200      	movs	r2, #0
 80042c8:	fbb1 fef7 	udiv	lr, r1, r7
 80042cc:	4610      	mov	r0, r2
 80042ce:	fb07 1c1e 	mls	ip, r7, lr, r1
 80042d2:	f1a4 0330 	sub.w	r3, r4, #48	; 0x30
 80042d6:	2b09      	cmp	r3, #9
 80042d8:	d811      	bhi.n	80042fe <_strtol_l.isra.0+0xa4>
 80042da:	461c      	mov	r4, r3
 80042dc:	42a7      	cmp	r7, r4
 80042de:	dd1d      	ble.n	800431c <_strtol_l.isra.0+0xc2>
 80042e0:	1c53      	adds	r3, r2, #1
 80042e2:	d007      	beq.n	80042f4 <_strtol_l.isra.0+0x9a>
 80042e4:	4586      	cmp	lr, r0
 80042e6:	d316      	bcc.n	8004316 <_strtol_l.isra.0+0xbc>
 80042e8:	d101      	bne.n	80042ee <_strtol_l.isra.0+0x94>
 80042ea:	45a4      	cmp	ip, r4
 80042ec:	db13      	blt.n	8004316 <_strtol_l.isra.0+0xbc>
 80042ee:	2201      	movs	r2, #1
 80042f0:	fb00 4007 	mla	r0, r0, r7, r4
 80042f4:	f815 4b01 	ldrb.w	r4, [r5], #1
 80042f8:	e7eb      	b.n	80042d2 <_strtol_l.isra.0+0x78>
 80042fa:	270a      	movs	r7, #10
 80042fc:	e7dd      	b.n	80042ba <_strtol_l.isra.0+0x60>
 80042fe:	f1a4 0341 	sub.w	r3, r4, #65	; 0x41
 8004302:	2b19      	cmp	r3, #25
 8004304:	d801      	bhi.n	800430a <_strtol_l.isra.0+0xb0>
 8004306:	3c37      	subs	r4, #55	; 0x37
 8004308:	e7e8      	b.n	80042dc <_strtol_l.isra.0+0x82>
 800430a:	f1a4 0361 	sub.w	r3, r4, #97	; 0x61
 800430e:	2b19      	cmp	r3, #25
 8004310:	d804      	bhi.n	800431c <_strtol_l.isra.0+0xc2>
 8004312:	3c57      	subs	r4, #87	; 0x57
 8004314:	e7e2      	b.n	80042dc <_strtol_l.isra.0+0x82>
 8004316:	f04f 32ff 	mov.w	r2, #4294967295
 800431a:	e7eb      	b.n	80042f4 <_strtol_l.isra.0+0x9a>
 800431c:	1c53      	adds	r3, r2, #1
 800431e:	d108      	bne.n	8004332 <_strtol_l.isra.0+0xd8>
 8004320:	2322      	movs	r3, #34	; 0x22
 8004322:	4608      	mov	r0, r1
 8004324:	f8c8 3000 	str.w	r3, [r8]
 8004328:	f1ba 0f00 	cmp.w	sl, #0
 800432c:	d107      	bne.n	800433e <_strtol_l.isra.0+0xe4>
 800432e:	e8bd 8ff8 	ldmia.w	sp!, {r3, r4, r5, r6, r7, r8, r9, sl, fp, pc}
 8004332:	b106      	cbz	r6, 8004336 <_strtol_l.isra.0+0xdc>
 8004334:	4240      	negs	r0, r0
 8004336:	f1ba 0f00 	cmp.w	sl, #0
 800433a:	d00c      	beq.n	8004356 <_strtol_l.isra.0+0xfc>
 800433c:	b122      	cbz	r2, 8004348 <_strtol_l.isra.0+0xee>
 800433e:	3d01      	subs	r5, #1
 8004340:	f8ca 5000 	str.w	r5, [sl]
 8004344:	e8bd 8ff8 	ldmia.w	sp!, {r3, r4, r5, r6, r7, r8, r9, sl, fp, pc}
 8004348:	464d      	mov	r5, r9
 800434a:	e7f9      	b.n	8004340 <_strtol_l.isra.0+0xe6>
 800434c:	2430      	movs	r4, #48	; 0x30
 800434e:	2f00      	cmp	r7, #0
 8004350:	d1b3      	bne.n	80042ba <_strtol_l.isra.0+0x60>
 8004352:	2708      	movs	r7, #8
 8004354:	e7b1      	b.n	80042ba <_strtol_l.isra.0+0x60>
 8004356:	e8bd 8ff8 	ldmia.w	sp!, {r3, r4, r5, r6, r7, r8, r9, sl, fp, pc}
	...

0800435c <strtol>:
 800435c:	4b08      	ldr	r3, [pc, #32]	; (8004380 <strtol+0x24>)
 800435e:	b537      	push	{r0, r1, r2, r4, r5, lr}
 8004360:	681c      	ldr	r4, [r3, #0]
 8004362:	4d08      	ldr	r5, [pc, #32]	; (8004384 <strtol+0x28>)
 8004364:	6a23      	ldr	r3, [r4, #32]
 8004366:	2b00      	cmp	r3, #0
 8004368:	bf08      	it	eq
 800436a:	462b      	moveq	r3, r5
 800436c:	9300      	str	r3, [sp, #0]
 800436e:	4613      	mov	r3, r2
 8004370:	460a      	mov	r2, r1
 8004372:	4601      	mov	r1, r0
 8004374:	4620      	mov	r0, r4
 8004376:	f7ff ff70 	bl	800425a <_strtol_l.isra.0>
 800437a:	b003      	add	sp, #12
 800437c:	bd30      	pop	{r4, r5, pc}
 800437e:	bf00      	nop
 8004380:	2000005c 	.word	0x2000005c
 8004384:	20000150 	.word	0x20000150

08004388 <_svfprintf_r>:
 8004388:	e92d 4ff0 	stmdb	sp!, {r4, r5, r6, r7, r8, r9, sl, fp, lr}
 800438c:	b0bf      	sub	sp, #252	; 0xfc
 800438e:	4689      	mov	r9, r1
 8004390:	4615      	mov	r5, r2
 8004392:	461f      	mov	r7, r3
 8004394:	4682      	mov	sl, r0
 8004396:	f003 fb43 	bl	8007a20 <_localeconv_r>
 800439a:	6803      	ldr	r3, [r0, #0]
 800439c:	4618      	mov	r0, r3
 800439e:	9311      	str	r3, [sp, #68]	; 0x44
 80043a0:	f7fb ff42 	bl	8000228 <strlen>
 80043a4:	f8b9 300c 	ldrh.w	r3, [r9, #12]
 80043a8:	900a      	str	r0, [sp, #40]	; 0x28
 80043aa:	061b      	lsls	r3, r3, #24
 80043ac:	d518      	bpl.n	80043e0 <_svfprintf_r+0x58>
 80043ae:	f8d9 3010 	ldr.w	r3, [r9, #16]
 80043b2:	b9ab      	cbnz	r3, 80043e0 <_svfprintf_r+0x58>
 80043b4:	2140      	movs	r1, #64	; 0x40
 80043b6:	4650      	mov	r0, sl
 80043b8:	f003 fbb8 	bl	8007b2c <_malloc_r>
 80043bc:	f8c9 0000 	str.w	r0, [r9]
 80043c0:	f8c9 0010 	str.w	r0, [r9, #16]
 80043c4:	b948      	cbnz	r0, 80043da <_svfprintf_r+0x52>
 80043c6:	230c      	movs	r3, #12
 80043c8:	f8ca 3000 	str.w	r3, [sl]
 80043cc:	f04f 33ff 	mov.w	r3, #4294967295
 80043d0:	930b      	str	r3, [sp, #44]	; 0x2c
 80043d2:	980b      	ldr	r0, [sp, #44]	; 0x2c
 80043d4:	b03f      	add	sp, #252	; 0xfc
 80043d6:	e8bd 8ff0 	ldmia.w	sp!, {r4, r5, r6, r7, r8, r9, sl, fp, pc}
 80043da:	2340      	movs	r3, #64	; 0x40
 80043dc:	f8c9 3014 	str.w	r3, [r9, #20]
 80043e0:	2300      	movs	r3, #0
 80043e2:	ac2e      	add	r4, sp, #184	; 0xb8
 80043e4:	9421      	str	r4, [sp, #132]	; 0x84
 80043e6:	9323      	str	r3, [sp, #140]	; 0x8c
 80043e8:	9322      	str	r3, [sp, #136]	; 0x88
 80043ea:	9509      	str	r5, [sp, #36]	; 0x24
 80043ec:	9307      	str	r3, [sp, #28]
 80043ee:	930d      	str	r3, [sp, #52]	; 0x34
 80043f0:	930e      	str	r3, [sp, #56]	; 0x38
 80043f2:	9315      	str	r3, [sp, #84]	; 0x54
 80043f4:	9314      	str	r3, [sp, #80]	; 0x50
 80043f6:	930b      	str	r3, [sp, #44]	; 0x2c
 80043f8:	9312      	str	r3, [sp, #72]	; 0x48
 80043fa:	9313      	str	r3, [sp, #76]	; 0x4c
 80043fc:	9d09      	ldr	r5, [sp, #36]	; 0x24
 80043fe:	462b      	mov	r3, r5
 8004400:	f813 2b01 	ldrb.w	r2, [r3], #1
 8004404:	b112      	cbz	r2, 800440c <_svfprintf_r+0x84>
 8004406:	2a25      	cmp	r2, #37	; 0x25
 8004408:	f040 8083 	bne.w	8004512 <_svfprintf_r+0x18a>
 800440c:	9b09      	ldr	r3, [sp, #36]	; 0x24
 800440e:	1aee      	subs	r6, r5, r3
 8004410:	d00d      	beq.n	800442e <_svfprintf_r+0xa6>
 8004412:	e884 0048 	stmia.w	r4, {r3, r6}
 8004416:	9b23      	ldr	r3, [sp, #140]	; 0x8c
 8004418:	4433      	add	r3, r6
 800441a:	9323      	str	r3, [sp, #140]	; 0x8c
 800441c:	9b22      	ldr	r3, [sp, #136]	; 0x88
 800441e:	3301      	adds	r3, #1
 8004420:	2b07      	cmp	r3, #7
 8004422:	9322      	str	r3, [sp, #136]	; 0x88
 8004424:	dc77      	bgt.n	8004516 <_svfprintf_r+0x18e>
 8004426:	3408      	adds	r4, #8
 8004428:	9b0b      	ldr	r3, [sp, #44]	; 0x2c
 800442a:	4433      	add	r3, r6
 800442c:	930b      	str	r3, [sp, #44]	; 0x2c
 800442e:	782b      	ldrb	r3, [r5, #0]
 8004430:	2b00      	cmp	r3, #0
 8004432:	f000 8725 	beq.w	8005280 <_svfprintf_r+0xef8>
 8004436:	2300      	movs	r3, #0
 8004438:	1c69      	adds	r1, r5, #1
 800443a:	461a      	mov	r2, r3
 800443c:	f04f 3bff 	mov.w	fp, #4294967295
 8004440:	461d      	mov	r5, r3
 8004442:	200a      	movs	r0, #10
 8004444:	f88d 3067 	strb.w	r3, [sp, #103]	; 0x67
 8004448:	930c      	str	r3, [sp, #48]	; 0x30
 800444a:	1c4e      	adds	r6, r1, #1
 800444c:	7809      	ldrb	r1, [r1, #0]
 800444e:	9609      	str	r6, [sp, #36]	; 0x24
 8004450:	9106      	str	r1, [sp, #24]
 8004452:	9906      	ldr	r1, [sp, #24]
 8004454:	3920      	subs	r1, #32
 8004456:	2958      	cmp	r1, #88	; 0x58
 8004458:	f200 8414 	bhi.w	8004c84 <_svfprintf_r+0x8fc>
 800445c:	e8df f011 	tbh	[pc, r1, lsl #1]
 8004460:	041200a5 	.word	0x041200a5
 8004464:	00aa0412 	.word	0x00aa0412
 8004468:	04120412 	.word	0x04120412
 800446c:	04120412 	.word	0x04120412
 8004470:	04120412 	.word	0x04120412
 8004474:	006500ad 	.word	0x006500ad
 8004478:	00b50412 	.word	0x00b50412
 800447c:	041200b8 	.word	0x041200b8
 8004480:	00d800d5 	.word	0x00d800d5
 8004484:	00d800d8 	.word	0x00d800d8
 8004488:	00d800d8 	.word	0x00d800d8
 800448c:	00d800d8 	.word	0x00d800d8
 8004490:	00d800d8 	.word	0x00d800d8
 8004494:	04120412 	.word	0x04120412
 8004498:	04120412 	.word	0x04120412
 800449c:	04120412 	.word	0x04120412
 80044a0:	04120412 	.word	0x04120412
 80044a4:	04120412 	.word	0x04120412
 80044a8:	0122010c 	.word	0x0122010c
 80044ac:	01220412 	.word	0x01220412
 80044b0:	04120412 	.word	0x04120412
 80044b4:	04120412 	.word	0x04120412
 80044b8:	041200eb 	.word	0x041200eb
 80044bc:	033c0412 	.word	0x033c0412
 80044c0:	04120412 	.word	0x04120412
 80044c4:	04120412 	.word	0x04120412
 80044c8:	03a40412 	.word	0x03a40412
 80044cc:	04120412 	.word	0x04120412
 80044d0:	04120085 	.word	0x04120085
 80044d4:	04120412 	.word	0x04120412
 80044d8:	04120412 	.word	0x04120412
 80044dc:	04120412 	.word	0x04120412
 80044e0:	04120412 	.word	0x04120412
 80044e4:	00fe0412 	.word	0x00fe0412
 80044e8:	0122006b 	.word	0x0122006b
 80044ec:	01220122 	.word	0x01220122
 80044f0:	006b00ee 	.word	0x006b00ee
 80044f4:	04120412 	.word	0x04120412
 80044f8:	041200f1 	.word	0x041200f1
 80044fc:	033e031e 	.word	0x033e031e
 8004500:	00f80372 	.word	0x00f80372
 8004504:	03830412 	.word	0x03830412
 8004508:	03a60412 	.word	0x03a60412
 800450c:	04120412 	.word	0x04120412
 8004510:	03be      	.short	0x03be
 8004512:	461d      	mov	r5, r3
 8004514:	e773      	b.n	80043fe <_svfprintf_r+0x76>
 8004516:	aa21      	add	r2, sp, #132	; 0x84
 8004518:	4649      	mov	r1, r9
 800451a:	4650      	mov	r0, sl
 800451c:	f004 f9ff 	bl	800891e <__ssprint_r>
 8004520:	2800      	cmp	r0, #0
 8004522:	f040 868e 	bne.w	8005242 <_svfprintf_r+0xeba>
 8004526:	ac2e      	add	r4, sp, #184	; 0xb8
 8004528:	e77e      	b.n	8004428 <_svfprintf_r+0xa0>
 800452a:	2301      	movs	r3, #1
 800452c:	222b      	movs	r2, #43	; 0x2b
 800452e:	9909      	ldr	r1, [sp, #36]	; 0x24
 8004530:	e78b      	b.n	800444a <_svfprintf_r+0xc2>
 8004532:	460f      	mov	r7, r1
 8004534:	e7fb      	b.n	800452e <_svfprintf_r+0x1a6>
 8004536:	b10b      	cbz	r3, 800453c <_svfprintf_r+0x1b4>
 8004538:	f88d 2067 	strb.w	r2, [sp, #103]	; 0x67
 800453c:	06ae      	lsls	r6, r5, #26
 800453e:	f140 80a1 	bpl.w	8004684 <_svfprintf_r+0x2fc>
 8004542:	3707      	adds	r7, #7
 8004544:	f027 0707 	bic.w	r7, r7, #7
 8004548:	f107 0308 	add.w	r3, r7, #8
 800454c:	9308      	str	r3, [sp, #32]
 800454e:	e9d7 6700 	ldrd	r6, r7, [r7]
 8004552:	2e00      	cmp	r6, #0
 8004554:	f177 0300 	sbcs.w	r3, r7, #0
 8004558:	da05      	bge.n	8004566 <_svfprintf_r+0x1de>
 800455a:	232d      	movs	r3, #45	; 0x2d
 800455c:	4276      	negs	r6, r6
 800455e:	eb67 0747 	sbc.w	r7, r7, r7, lsl #1
 8004562:	f88d 3067 	strb.w	r3, [sp, #103]	; 0x67
 8004566:	2301      	movs	r3, #1
 8004568:	e2c7      	b.n	8004afa <_svfprintf_r+0x772>
 800456a:	b10b      	cbz	r3, 8004570 <_svfprintf_r+0x1e8>
 800456c:	f88d 2067 	strb.w	r2, [sp, #103]	; 0x67
 8004570:	4ba0      	ldr	r3, [pc, #640]	; (80047f4 <_svfprintf_r+0x46c>)
 8004572:	9315      	str	r3, [sp, #84]	; 0x54
 8004574:	06ab      	lsls	r3, r5, #26
 8004576:	f140 8336 	bpl.w	8004be6 <_svfprintf_r+0x85e>
 800457a:	3707      	adds	r7, #7
 800457c:	f027 0707 	bic.w	r7, r7, #7
 8004580:	f107 0308 	add.w	r3, r7, #8
 8004584:	9308      	str	r3, [sp, #32]
 8004586:	e9d7 6700 	ldrd	r6, r7, [r7]
 800458a:	07e8      	lsls	r0, r5, #31
 800458c:	d50b      	bpl.n	80045a6 <_svfprintf_r+0x21e>
 800458e:	ea56 0307 	orrs.w	r3, r6, r7
 8004592:	d008      	beq.n	80045a6 <_svfprintf_r+0x21e>
 8004594:	2330      	movs	r3, #48	; 0x30
 8004596:	f88d 3068 	strb.w	r3, [sp, #104]	; 0x68
 800459a:	f89d 3018 	ldrb.w	r3, [sp, #24]
 800459e:	f045 0502 	orr.w	r5, r5, #2
 80045a2:	f88d 3069 	strb.w	r3, [sp, #105]	; 0x69
 80045a6:	2302      	movs	r3, #2
 80045a8:	e2a4      	b.n	8004af4 <_svfprintf_r+0x76c>
 80045aa:	2a00      	cmp	r2, #0
 80045ac:	d1bf      	bne.n	800452e <_svfprintf_r+0x1a6>
 80045ae:	2301      	movs	r3, #1
 80045b0:	2220      	movs	r2, #32
 80045b2:	e7bc      	b.n	800452e <_svfprintf_r+0x1a6>
 80045b4:	f045 0501 	orr.w	r5, r5, #1
 80045b8:	e7b9      	b.n	800452e <_svfprintf_r+0x1a6>
 80045ba:	683e      	ldr	r6, [r7, #0]
 80045bc:	1d39      	adds	r1, r7, #4
 80045be:	2e00      	cmp	r6, #0
 80045c0:	960c      	str	r6, [sp, #48]	; 0x30
 80045c2:	dab6      	bge.n	8004532 <_svfprintf_r+0x1aa>
 80045c4:	460f      	mov	r7, r1
 80045c6:	4276      	negs	r6, r6
 80045c8:	960c      	str	r6, [sp, #48]	; 0x30
 80045ca:	f045 0504 	orr.w	r5, r5, #4
 80045ce:	e7ae      	b.n	800452e <_svfprintf_r+0x1a6>
 80045d0:	9909      	ldr	r1, [sp, #36]	; 0x24
 80045d2:	1c4e      	adds	r6, r1, #1
 80045d4:	7809      	ldrb	r1, [r1, #0]
 80045d6:	292a      	cmp	r1, #42	; 0x2a
 80045d8:	9106      	str	r1, [sp, #24]
 80045da:	d010      	beq.n	80045fe <_svfprintf_r+0x276>
 80045dc:	f04f 0b00 	mov.w	fp, #0
 80045e0:	9609      	str	r6, [sp, #36]	; 0x24
 80045e2:	9906      	ldr	r1, [sp, #24]
 80045e4:	3930      	subs	r1, #48	; 0x30
 80045e6:	2909      	cmp	r1, #9
 80045e8:	f63f af33 	bhi.w	8004452 <_svfprintf_r+0xca>
 80045ec:	fb00 1b0b 	mla	fp, r0, fp, r1
 80045f0:	9909      	ldr	r1, [sp, #36]	; 0x24
 80045f2:	460e      	mov	r6, r1
 80045f4:	f816 1b01 	ldrb.w	r1, [r6], #1
 80045f8:	9106      	str	r1, [sp, #24]
 80045fa:	9609      	str	r6, [sp, #36]	; 0x24
 80045fc:	e7f1      	b.n	80045e2 <_svfprintf_r+0x25a>
 80045fe:	6839      	ldr	r1, [r7, #0]
 8004600:	9609      	str	r6, [sp, #36]	; 0x24
 8004602:	ea41 7be1 	orr.w	fp, r1, r1, asr #31
 8004606:	3704      	adds	r7, #4
 8004608:	e791      	b.n	800452e <_svfprintf_r+0x1a6>
 800460a:	f045 0580 	orr.w	r5, r5, #128	; 0x80
 800460e:	e78e      	b.n	800452e <_svfprintf_r+0x1a6>
 8004610:	2100      	movs	r1, #0
 8004612:	910c      	str	r1, [sp, #48]	; 0x30
 8004614:	9906      	ldr	r1, [sp, #24]
 8004616:	9e0c      	ldr	r6, [sp, #48]	; 0x30
 8004618:	3930      	subs	r1, #48	; 0x30
 800461a:	fb00 1106 	mla	r1, r0, r6, r1
 800461e:	910c      	str	r1, [sp, #48]	; 0x30
 8004620:	9909      	ldr	r1, [sp, #36]	; 0x24
 8004622:	460e      	mov	r6, r1
 8004624:	f816 1b01 	ldrb.w	r1, [r6], #1
 8004628:	9106      	str	r1, [sp, #24]
 800462a:	9906      	ldr	r1, [sp, #24]
 800462c:	9609      	str	r6, [sp, #36]	; 0x24
 800462e:	3930      	subs	r1, #48	; 0x30
 8004630:	2909      	cmp	r1, #9
 8004632:	d9ef      	bls.n	8004614 <_svfprintf_r+0x28c>
 8004634:	e70d      	b.n	8004452 <_svfprintf_r+0xca>
 8004636:	f045 0508 	orr.w	r5, r5, #8
 800463a:	e778      	b.n	800452e <_svfprintf_r+0x1a6>
 800463c:	f045 0540 	orr.w	r5, r5, #64	; 0x40
 8004640:	e775      	b.n	800452e <_svfprintf_r+0x1a6>
 8004642:	9909      	ldr	r1, [sp, #36]	; 0x24
 8004644:	7809      	ldrb	r1, [r1, #0]
 8004646:	296c      	cmp	r1, #108	; 0x6c
 8004648:	d105      	bne.n	8004656 <_svfprintf_r+0x2ce>
 800464a:	9909      	ldr	r1, [sp, #36]	; 0x24
 800464c:	3101      	adds	r1, #1
 800464e:	9109      	str	r1, [sp, #36]	; 0x24
 8004650:	f045 0520 	orr.w	r5, r5, #32
 8004654:	e76b      	b.n	800452e <_svfprintf_r+0x1a6>
 8004656:	f045 0510 	orr.w	r5, r5, #16
 800465a:	e768      	b.n	800452e <_svfprintf_r+0x1a6>
 800465c:	2600      	movs	r6, #0
 800465e:	1d3b      	adds	r3, r7, #4
 8004660:	9308      	str	r3, [sp, #32]
 8004662:	683b      	ldr	r3, [r7, #0]
 8004664:	f88d 6067 	strb.w	r6, [sp, #103]	; 0x67
 8004668:	f88d 3090 	strb.w	r3, [sp, #144]	; 0x90
 800466c:	f04f 0b01 	mov.w	fp, #1
 8004670:	4637      	mov	r7, r6
 8004672:	f10d 0890 	add.w	r8, sp, #144	; 0x90
 8004676:	e11c      	b.n	80048b2 <_svfprintf_r+0x52a>
 8004678:	b10b      	cbz	r3, 800467e <_svfprintf_r+0x2f6>
 800467a:	f88d 2067 	strb.w	r2, [sp, #103]	; 0x67
 800467e:	f045 0510 	orr.w	r5, r5, #16
 8004682:	e75b      	b.n	800453c <_svfprintf_r+0x1b4>
 8004684:	f015 0f10 	tst.w	r5, #16
 8004688:	f107 0304 	add.w	r3, r7, #4
 800468c:	d003      	beq.n	8004696 <_svfprintf_r+0x30e>
 800468e:	683e      	ldr	r6, [r7, #0]
 8004690:	9308      	str	r3, [sp, #32]
 8004692:	17f7      	asrs	r7, r6, #31
 8004694:	e75d      	b.n	8004552 <_svfprintf_r+0x1ca>
 8004696:	683e      	ldr	r6, [r7, #0]
 8004698:	f015 0f40 	tst.w	r5, #64	; 0x40
 800469c:	9308      	str	r3, [sp, #32]
 800469e:	bf18      	it	ne
 80046a0:	b236      	sxthne	r6, r6
 80046a2:	e7f6      	b.n	8004692 <_svfprintf_r+0x30a>
 80046a4:	b10b      	cbz	r3, 80046aa <_svfprintf_r+0x322>
 80046a6:	f88d 2067 	strb.w	r2, [sp, #103]	; 0x67
 80046aa:	3707      	adds	r7, #7
 80046ac:	f027 0707 	bic.w	r7, r7, #7
 80046b0:	f107 0308 	add.w	r3, r7, #8
 80046b4:	9308      	str	r3, [sp, #32]
 80046b6:	683b      	ldr	r3, [r7, #0]
 80046b8:	f04f 32ff 	mov.w	r2, #4294967295
 80046bc:	930d      	str	r3, [sp, #52]	; 0x34
 80046be:	687b      	ldr	r3, [r7, #4]
 80046c0:	9f0d      	ldr	r7, [sp, #52]	; 0x34
 80046c2:	930e      	str	r3, [sp, #56]	; 0x38
 80046c4:	9b0e      	ldr	r3, [sp, #56]	; 0x38
 80046c6:	4638      	mov	r0, r7
 80046c8:	f023 4600 	bic.w	r6, r3, #2147483648	; 0x80000000
 80046cc:	4631      	mov	r1, r6
 80046ce:	4b4a      	ldr	r3, [pc, #296]	; (80047f8 <_svfprintf_r+0x470>)
 80046d0:	f7fc fa04 	bl	8000adc <__aeabi_dcmpun>
 80046d4:	2800      	cmp	r0, #0
 80046d6:	f040 85dc 	bne.w	8005292 <_svfprintf_r+0xf0a>
 80046da:	f04f 32ff 	mov.w	r2, #4294967295
 80046de:	4b46      	ldr	r3, [pc, #280]	; (80047f8 <_svfprintf_r+0x470>)
 80046e0:	4638      	mov	r0, r7
 80046e2:	4631      	mov	r1, r6
 80046e4:	f7fc f9dc 	bl	8000aa0 <__aeabi_dcmple>
 80046e8:	2800      	cmp	r0, #0
 80046ea:	f040 85d2 	bne.w	8005292 <_svfprintf_r+0xf0a>
 80046ee:	9a12      	ldr	r2, [sp, #72]	; 0x48
 80046f0:	9b13      	ldr	r3, [sp, #76]	; 0x4c
 80046f2:	980d      	ldr	r0, [sp, #52]	; 0x34
 80046f4:	990e      	ldr	r1, [sp, #56]	; 0x38
 80046f6:	f7fc f9c9 	bl	8000a8c <__aeabi_dcmplt>
 80046fa:	b110      	cbz	r0, 8004702 <_svfprintf_r+0x37a>
 80046fc:	232d      	movs	r3, #45	; 0x2d
 80046fe:	f88d 3067 	strb.w	r3, [sp, #103]	; 0x67
 8004702:	4b3e      	ldr	r3, [pc, #248]	; (80047fc <_svfprintf_r+0x474>)
 8004704:	4a3e      	ldr	r2, [pc, #248]	; (8004800 <_svfprintf_r+0x478>)
 8004706:	9906      	ldr	r1, [sp, #24]
 8004708:	f04f 0b03 	mov.w	fp, #3
 800470c:	2947      	cmp	r1, #71	; 0x47
 800470e:	bfcc      	ite	gt
 8004710:	4690      	movgt	r8, r2
 8004712:	4698      	movle	r8, r3
 8004714:	2600      	movs	r6, #0
 8004716:	f025 0580 	bic.w	r5, r5, #128	; 0x80
 800471a:	4637      	mov	r7, r6
 800471c:	e0c9      	b.n	80048b2 <_svfprintf_r+0x52a>
 800471e:	f1bb 3fff 	cmp.w	fp, #4294967295
 8004722:	d026      	beq.n	8004772 <_svfprintf_r+0x3ea>
 8004724:	9b06      	ldr	r3, [sp, #24]
 8004726:	f023 0320 	bic.w	r3, r3, #32
 800472a:	2b47      	cmp	r3, #71	; 0x47
 800472c:	d104      	bne.n	8004738 <_svfprintf_r+0x3b0>
 800472e:	f1bb 0f00 	cmp.w	fp, #0
 8004732:	bf08      	it	eq
 8004734:	f04f 0b01 	moveq.w	fp, #1
 8004738:	f445 7380 	orr.w	r3, r5, #256	; 0x100
 800473c:	9317      	str	r3, [sp, #92]	; 0x5c
 800473e:	9b0e      	ldr	r3, [sp, #56]	; 0x38
 8004740:	1e1f      	subs	r7, r3, #0
 8004742:	9b0d      	ldr	r3, [sp, #52]	; 0x34
 8004744:	bfa8      	it	ge
 8004746:	9710      	strge	r7, [sp, #64]	; 0x40
 8004748:	930f      	str	r3, [sp, #60]	; 0x3c
 800474a:	bfbd      	ittte	lt
 800474c:	463b      	movlt	r3, r7
 800474e:	f103 4300 	addlt.w	r3, r3, #2147483648	; 0x80000000
 8004752:	9310      	strlt	r3, [sp, #64]	; 0x40
 8004754:	2300      	movge	r3, #0
 8004756:	bfb8      	it	lt
 8004758:	232d      	movlt	r3, #45	; 0x2d
 800475a:	9316      	str	r3, [sp, #88]	; 0x58
 800475c:	9b06      	ldr	r3, [sp, #24]
 800475e:	f023 0720 	bic.w	r7, r3, #32
 8004762:	2f46      	cmp	r7, #70	; 0x46
 8004764:	d008      	beq.n	8004778 <_svfprintf_r+0x3f0>
 8004766:	2f45      	cmp	r7, #69	; 0x45
 8004768:	d142      	bne.n	80047f0 <_svfprintf_r+0x468>
 800476a:	f10b 0601 	add.w	r6, fp, #1
 800476e:	2302      	movs	r3, #2
 8004770:	e004      	b.n	800477c <_svfprintf_r+0x3f4>
 8004772:	f04f 0b06 	mov.w	fp, #6
 8004776:	e7df      	b.n	8004738 <_svfprintf_r+0x3b0>
 8004778:	465e      	mov	r6, fp
 800477a:	2303      	movs	r3, #3
 800477c:	aa1f      	add	r2, sp, #124	; 0x7c
 800477e:	9204      	str	r2, [sp, #16]
 8004780:	aa1c      	add	r2, sp, #112	; 0x70
 8004782:	9203      	str	r2, [sp, #12]
 8004784:	aa1b      	add	r2, sp, #108	; 0x6c
 8004786:	9202      	str	r2, [sp, #8]
 8004788:	e88d 0048 	stmia.w	sp, {r3, r6}
 800478c:	9a0f      	ldr	r2, [sp, #60]	; 0x3c
 800478e:	9b10      	ldr	r3, [sp, #64]	; 0x40
 8004790:	4650      	mov	r0, sl
 8004792:	f001 ff39 	bl	8006608 <_dtoa_r>
 8004796:	2f47      	cmp	r7, #71	; 0x47
 8004798:	4680      	mov	r8, r0
 800479a:	d102      	bne.n	80047a2 <_svfprintf_r+0x41a>
 800479c:	07e8      	lsls	r0, r5, #31
 800479e:	f140 8585 	bpl.w	80052ac <_svfprintf_r+0xf24>
 80047a2:	eb08 0306 	add.w	r3, r8, r6
 80047a6:	2f46      	cmp	r7, #70	; 0x46
 80047a8:	9307      	str	r3, [sp, #28]
 80047aa:	d111      	bne.n	80047d0 <_svfprintf_r+0x448>
 80047ac:	f898 3000 	ldrb.w	r3, [r8]
 80047b0:	2b30      	cmp	r3, #48	; 0x30
 80047b2:	d109      	bne.n	80047c8 <_svfprintf_r+0x440>
 80047b4:	9a12      	ldr	r2, [sp, #72]	; 0x48
 80047b6:	9b13      	ldr	r3, [sp, #76]	; 0x4c
 80047b8:	980f      	ldr	r0, [sp, #60]	; 0x3c
 80047ba:	9910      	ldr	r1, [sp, #64]	; 0x40
 80047bc:	f7fc f95c 	bl	8000a78 <__aeabi_dcmpeq>
 80047c0:	b910      	cbnz	r0, 80047c8 <_svfprintf_r+0x440>
 80047c2:	f1c6 0601 	rsb	r6, r6, #1
 80047c6:	961b      	str	r6, [sp, #108]	; 0x6c
 80047c8:	9a07      	ldr	r2, [sp, #28]
 80047ca:	9b1b      	ldr	r3, [sp, #108]	; 0x6c
 80047cc:	441a      	add	r2, r3
 80047ce:	9207      	str	r2, [sp, #28]
 80047d0:	9a12      	ldr	r2, [sp, #72]	; 0x48
 80047d2:	9b13      	ldr	r3, [sp, #76]	; 0x4c
 80047d4:	980f      	ldr	r0, [sp, #60]	; 0x3c
 80047d6:	9910      	ldr	r1, [sp, #64]	; 0x40
 80047d8:	f7fc f94e 	bl	8000a78 <__aeabi_dcmpeq>
 80047dc:	b990      	cbnz	r0, 8004804 <_svfprintf_r+0x47c>
 80047de:	2230      	movs	r2, #48	; 0x30
 80047e0:	9b1f      	ldr	r3, [sp, #124]	; 0x7c
 80047e2:	9907      	ldr	r1, [sp, #28]
 80047e4:	4299      	cmp	r1, r3
 80047e6:	d90f      	bls.n	8004808 <_svfprintf_r+0x480>
 80047e8:	1c59      	adds	r1, r3, #1
 80047ea:	911f      	str	r1, [sp, #124]	; 0x7c
 80047ec:	701a      	strb	r2, [r3, #0]
 80047ee:	e7f7      	b.n	80047e0 <_svfprintf_r+0x458>
 80047f0:	465e      	mov	r6, fp
 80047f2:	e7bc      	b.n	800476e <_svfprintf_r+0x3e6>
 80047f4:	08009301 	.word	0x08009301
 80047f8:	7fefffff 	.word	0x7fefffff
 80047fc:	080092f1 	.word	0x080092f1
 8004800:	080092f5 	.word	0x080092f5
 8004804:	9b07      	ldr	r3, [sp, #28]
 8004806:	931f      	str	r3, [sp, #124]	; 0x7c
 8004808:	9b1f      	ldr	r3, [sp, #124]	; 0x7c
 800480a:	2f47      	cmp	r7, #71	; 0x47
 800480c:	eba3 0308 	sub.w	r3, r3, r8
 8004810:	9307      	str	r3, [sp, #28]
 8004812:	f040 8100 	bne.w	8004a16 <_svfprintf_r+0x68e>
 8004816:	9b1b      	ldr	r3, [sp, #108]	; 0x6c
 8004818:	1cd9      	adds	r1, r3, #3
 800481a:	db02      	blt.n	8004822 <_svfprintf_r+0x49a>
 800481c:	459b      	cmp	fp, r3
 800481e:	f280 8126 	bge.w	8004a6e <_svfprintf_r+0x6e6>
 8004822:	9b06      	ldr	r3, [sp, #24]
 8004824:	3b02      	subs	r3, #2
 8004826:	9306      	str	r3, [sp, #24]
 8004828:	9a1b      	ldr	r2, [sp, #108]	; 0x6c
 800482a:	f89d 1018 	ldrb.w	r1, [sp, #24]
 800482e:	1e53      	subs	r3, r2, #1
 8004830:	2b00      	cmp	r3, #0
 8004832:	bfa8      	it	ge
 8004834:	222b      	movge	r2, #43	; 0x2b
 8004836:	931b      	str	r3, [sp, #108]	; 0x6c
 8004838:	bfbc      	itt	lt
 800483a:	f1c2 0301 	rsblt	r3, r2, #1
 800483e:	222d      	movlt	r2, #45	; 0x2d
 8004840:	2b09      	cmp	r3, #9
 8004842:	f88d 1074 	strb.w	r1, [sp, #116]	; 0x74
 8004846:	f88d 2075 	strb.w	r2, [sp, #117]	; 0x75
 800484a:	f340 8100 	ble.w	8004a4e <_svfprintf_r+0x6c6>
 800484e:	260a      	movs	r6, #10
 8004850:	f10d 0283 	add.w	r2, sp, #131	; 0x83
 8004854:	fb93 f0f6 	sdiv	r0, r3, r6
 8004858:	fb06 3310 	mls	r3, r6, r0, r3
 800485c:	2809      	cmp	r0, #9
 800485e:	f103 0330 	add.w	r3, r3, #48	; 0x30
 8004862:	f802 3c01 	strb.w	r3, [r2, #-1]
 8004866:	f102 31ff 	add.w	r1, r2, #4294967295
 800486a:	4603      	mov	r3, r0
 800486c:	f300 80e8 	bgt.w	8004a40 <_svfprintf_r+0x6b8>
 8004870:	3330      	adds	r3, #48	; 0x30
 8004872:	f801 3c01 	strb.w	r3, [r1, #-1]
 8004876:	3a02      	subs	r2, #2
 8004878:	f10d 0376 	add.w	r3, sp, #118	; 0x76
 800487c:	f10d 0083 	add.w	r0, sp, #131	; 0x83
 8004880:	4282      	cmp	r2, r0
 8004882:	4619      	mov	r1, r3
 8004884:	f0c0 80de 	bcc.w	8004a44 <_svfprintf_r+0x6bc>
 8004888:	9a07      	ldr	r2, [sp, #28]
 800488a:	ab1d      	add	r3, sp, #116	; 0x74
 800488c:	1acb      	subs	r3, r1, r3
 800488e:	2a01      	cmp	r2, #1
 8004890:	9314      	str	r3, [sp, #80]	; 0x50
 8004892:	eb03 0b02 	add.w	fp, r3, r2
 8004896:	dc02      	bgt.n	800489e <_svfprintf_r+0x516>
 8004898:	f015 0701 	ands.w	r7, r5, #1
 800489c:	d002      	beq.n	80048a4 <_svfprintf_r+0x51c>
 800489e:	2700      	movs	r7, #0
 80048a0:	9b0a      	ldr	r3, [sp, #40]	; 0x28
 80048a2:	449b      	add	fp, r3
 80048a4:	9b16      	ldr	r3, [sp, #88]	; 0x58
 80048a6:	b113      	cbz	r3, 80048ae <_svfprintf_r+0x526>
 80048a8:	232d      	movs	r3, #45	; 0x2d
 80048aa:	f88d 3067 	strb.w	r3, [sp, #103]	; 0x67
 80048ae:	2600      	movs	r6, #0
 80048b0:	9d17      	ldr	r5, [sp, #92]	; 0x5c
 80048b2:	455e      	cmp	r6, fp
 80048b4:	4633      	mov	r3, r6
 80048b6:	bfb8      	it	lt
 80048b8:	465b      	movlt	r3, fp
 80048ba:	930f      	str	r3, [sp, #60]	; 0x3c
 80048bc:	f89d 3067 	ldrb.w	r3, [sp, #103]	; 0x67
 80048c0:	b113      	cbz	r3, 80048c8 <_svfprintf_r+0x540>
 80048c2:	9b0f      	ldr	r3, [sp, #60]	; 0x3c
 80048c4:	3301      	adds	r3, #1
 80048c6:	930f      	str	r3, [sp, #60]	; 0x3c
 80048c8:	f015 0302 	ands.w	r3, r5, #2
 80048cc:	9316      	str	r3, [sp, #88]	; 0x58
 80048ce:	bf1e      	ittt	ne
 80048d0:	9b0f      	ldrne	r3, [sp, #60]	; 0x3c
 80048d2:	3302      	addne	r3, #2
 80048d4:	930f      	strne	r3, [sp, #60]	; 0x3c
 80048d6:	f015 0384 	ands.w	r3, r5, #132	; 0x84
 80048da:	9317      	str	r3, [sp, #92]	; 0x5c
 80048dc:	d118      	bne.n	8004910 <_svfprintf_r+0x588>
 80048de:	9b0c      	ldr	r3, [sp, #48]	; 0x30
 80048e0:	9a0f      	ldr	r2, [sp, #60]	; 0x3c
 80048e2:	1a9b      	subs	r3, r3, r2
 80048e4:	2b00      	cmp	r3, #0
 80048e6:	9310      	str	r3, [sp, #64]	; 0x40
 80048e8:	dd12      	ble.n	8004910 <_svfprintf_r+0x588>
 80048ea:	9b10      	ldr	r3, [sp, #64]	; 0x40
 80048ec:	2b10      	cmp	r3, #16
 80048ee:	4bab      	ldr	r3, [pc, #684]	; (8004b9c <_svfprintf_r+0x814>)
 80048f0:	6023      	str	r3, [r4, #0]
 80048f2:	f300 81d9 	bgt.w	8004ca8 <_svfprintf_r+0x920>
 80048f6:	9b10      	ldr	r3, [sp, #64]	; 0x40
 80048f8:	9a10      	ldr	r2, [sp, #64]	; 0x40
 80048fa:	6063      	str	r3, [r4, #4]
 80048fc:	9b23      	ldr	r3, [sp, #140]	; 0x8c
 80048fe:	4413      	add	r3, r2
 8004900:	9323      	str	r3, [sp, #140]	; 0x8c
 8004902:	9b22      	ldr	r3, [sp, #136]	; 0x88
 8004904:	3301      	adds	r3, #1
 8004906:	2b07      	cmp	r3, #7
 8004908:	9322      	str	r3, [sp, #136]	; 0x88
 800490a:	f300 81e6 	bgt.w	8004cda <_svfprintf_r+0x952>
 800490e:	3408      	adds	r4, #8
 8004910:	f89d 3067 	ldrb.w	r3, [sp, #103]	; 0x67
 8004914:	b173      	cbz	r3, 8004934 <_svfprintf_r+0x5ac>
 8004916:	f10d 0367 	add.w	r3, sp, #103	; 0x67
 800491a:	6023      	str	r3, [r4, #0]
 800491c:	2301      	movs	r3, #1
 800491e:	6063      	str	r3, [r4, #4]
 8004920:	9b23      	ldr	r3, [sp, #140]	; 0x8c
 8004922:	3301      	adds	r3, #1
 8004924:	9323      	str	r3, [sp, #140]	; 0x8c
 8004926:	9b22      	ldr	r3, [sp, #136]	; 0x88
 8004928:	3301      	adds	r3, #1
 800492a:	2b07      	cmp	r3, #7
 800492c:	9322      	str	r3, [sp, #136]	; 0x88
 800492e:	f300 81de 	bgt.w	8004cee <_svfprintf_r+0x966>
 8004932:	3408      	adds	r4, #8
 8004934:	9b16      	ldr	r3, [sp, #88]	; 0x58
 8004936:	b16b      	cbz	r3, 8004954 <_svfprintf_r+0x5cc>
 8004938:	ab1a      	add	r3, sp, #104	; 0x68
 800493a:	6023      	str	r3, [r4, #0]
 800493c:	2302      	movs	r3, #2
 800493e:	6063      	str	r3, [r4, #4]
 8004940:	9b23      	ldr	r3, [sp, #140]	; 0x8c
 8004942:	3302      	adds	r3, #2
 8004944:	9323      	str	r3, [sp, #140]	; 0x8c
 8004946:	9b22      	ldr	r3, [sp, #136]	; 0x88
 8004948:	3301      	adds	r3, #1
 800494a:	2b07      	cmp	r3, #7
 800494c:	9322      	str	r3, [sp, #136]	; 0x88
 800494e:	f300 81d8 	bgt.w	8004d02 <_svfprintf_r+0x97a>
 8004952:	3408      	adds	r4, #8
 8004954:	9b17      	ldr	r3, [sp, #92]	; 0x5c
 8004956:	2b80      	cmp	r3, #128	; 0x80
 8004958:	d118      	bne.n	800498c <_svfprintf_r+0x604>
 800495a:	9b0c      	ldr	r3, [sp, #48]	; 0x30
 800495c:	9a0f      	ldr	r2, [sp, #60]	; 0x3c
 800495e:	1a9b      	subs	r3, r3, r2
 8004960:	2b00      	cmp	r3, #0
 8004962:	9310      	str	r3, [sp, #64]	; 0x40
 8004964:	dd12      	ble.n	800498c <_svfprintf_r+0x604>
 8004966:	9b10      	ldr	r3, [sp, #64]	; 0x40
 8004968:	2b10      	cmp	r3, #16
 800496a:	4b8d      	ldr	r3, [pc, #564]	; (8004ba0 <_svfprintf_r+0x818>)
 800496c:	6023      	str	r3, [r4, #0]
 800496e:	f300 81d2 	bgt.w	8004d16 <_svfprintf_r+0x98e>
 8004972:	9b10      	ldr	r3, [sp, #64]	; 0x40
 8004974:	9a10      	ldr	r2, [sp, #64]	; 0x40
 8004976:	6063      	str	r3, [r4, #4]
 8004978:	9b23      	ldr	r3, [sp, #140]	; 0x8c
 800497a:	4413      	add	r3, r2
 800497c:	9323      	str	r3, [sp, #140]	; 0x8c
 800497e:	9b22      	ldr	r3, [sp, #136]	; 0x88
 8004980:	3301      	adds	r3, #1
 8004982:	2b07      	cmp	r3, #7
 8004984:	9322      	str	r3, [sp, #136]	; 0x88
 8004986:	f300 81df 	bgt.w	8004d48 <_svfprintf_r+0x9c0>
 800498a:	3408      	adds	r4, #8
 800498c:	eba6 060b 	sub.w	r6, r6, fp
 8004990:	2e00      	cmp	r6, #0
 8004992:	dd0f      	ble.n	80049b4 <_svfprintf_r+0x62c>
 8004994:	4b82      	ldr	r3, [pc, #520]	; (8004ba0 <_svfprintf_r+0x818>)
 8004996:	2e10      	cmp	r6, #16
 8004998:	6023      	str	r3, [r4, #0]
 800499a:	f300 81df 	bgt.w	8004d5c <_svfprintf_r+0x9d4>
 800499e:	9b22      	ldr	r3, [sp, #136]	; 0x88
 80049a0:	9823      	ldr	r0, [sp, #140]	; 0x8c
 80049a2:	3301      	adds	r3, #1
 80049a4:	6066      	str	r6, [r4, #4]
 80049a6:	2b07      	cmp	r3, #7
 80049a8:	4406      	add	r6, r0
 80049aa:	9623      	str	r6, [sp, #140]	; 0x8c
 80049ac:	9322      	str	r3, [sp, #136]	; 0x88
 80049ae:	f300 81ec 	bgt.w	8004d8a <_svfprintf_r+0xa02>
 80049b2:	3408      	adds	r4, #8
 80049b4:	05eb      	lsls	r3, r5, #23
 80049b6:	f100 81f2 	bmi.w	8004d9e <_svfprintf_r+0xa16>
 80049ba:	9b23      	ldr	r3, [sp, #140]	; 0x8c
 80049bc:	e884 0900 	stmia.w	r4, {r8, fp}
 80049c0:	445b      	add	r3, fp
 80049c2:	9323      	str	r3, [sp, #140]	; 0x8c
 80049c4:	9b22      	ldr	r3, [sp, #136]	; 0x88
 80049c6:	3301      	adds	r3, #1
 80049c8:	2b07      	cmp	r3, #7
 80049ca:	9322      	str	r3, [sp, #136]	; 0x88
 80049cc:	f340 8419 	ble.w	8005202 <_svfprintf_r+0xe7a>
 80049d0:	aa21      	add	r2, sp, #132	; 0x84
 80049d2:	4649      	mov	r1, r9
 80049d4:	4650      	mov	r0, sl
 80049d6:	f003 ffa2 	bl	800891e <__ssprint_r>
 80049da:	2800      	cmp	r0, #0
 80049dc:	f040 8431 	bne.w	8005242 <_svfprintf_r+0xeba>
 80049e0:	ac2e      	add	r4, sp, #184	; 0xb8
 80049e2:	076b      	lsls	r3, r5, #29
 80049e4:	f100 8410 	bmi.w	8005208 <_svfprintf_r+0xe80>
 80049e8:	9b0b      	ldr	r3, [sp, #44]	; 0x2c
 80049ea:	9a0c      	ldr	r2, [sp, #48]	; 0x30
 80049ec:	990f      	ldr	r1, [sp, #60]	; 0x3c
 80049ee:	428a      	cmp	r2, r1
 80049f0:	bfac      	ite	ge
 80049f2:	189b      	addge	r3, r3, r2
 80049f4:	185b      	addlt	r3, r3, r1
 80049f6:	930b      	str	r3, [sp, #44]	; 0x2c
 80049f8:	9b23      	ldr	r3, [sp, #140]	; 0x8c
 80049fa:	b13b      	cbz	r3, 8004a0c <_svfprintf_r+0x684>
 80049fc:	aa21      	add	r2, sp, #132	; 0x84
 80049fe:	4649      	mov	r1, r9
 8004a00:	4650      	mov	r0, sl
 8004a02:	f003 ff8c 	bl	800891e <__ssprint_r>
 8004a06:	2800      	cmp	r0, #0
 8004a08:	f040 841b 	bne.w	8005242 <_svfprintf_r+0xeba>
 8004a0c:	2300      	movs	r3, #0
 8004a0e:	9f08      	ldr	r7, [sp, #32]
 8004a10:	9322      	str	r3, [sp, #136]	; 0x88
 8004a12:	ac2e      	add	r4, sp, #184	; 0xb8
 8004a14:	e4f2      	b.n	80043fc <_svfprintf_r+0x74>
 8004a16:	9b06      	ldr	r3, [sp, #24]
 8004a18:	2b65      	cmp	r3, #101	; 0x65
 8004a1a:	f77f af05 	ble.w	8004828 <_svfprintf_r+0x4a0>
 8004a1e:	9b06      	ldr	r3, [sp, #24]
 8004a20:	2b66      	cmp	r3, #102	; 0x66
 8004a22:	d124      	bne.n	8004a6e <_svfprintf_r+0x6e6>
 8004a24:	9b1b      	ldr	r3, [sp, #108]	; 0x6c
 8004a26:	2b00      	cmp	r3, #0
 8004a28:	dd19      	ble.n	8004a5e <_svfprintf_r+0x6d6>
 8004a2a:	f1bb 0f00 	cmp.w	fp, #0
 8004a2e:	d101      	bne.n	8004a34 <_svfprintf_r+0x6ac>
 8004a30:	07ea      	lsls	r2, r5, #31
 8004a32:	d502      	bpl.n	8004a3a <_svfprintf_r+0x6b2>
 8004a34:	9a0a      	ldr	r2, [sp, #40]	; 0x28
 8004a36:	4413      	add	r3, r2
 8004a38:	445b      	add	r3, fp
 8004a3a:	9f1b      	ldr	r7, [sp, #108]	; 0x6c
 8004a3c:	469b      	mov	fp, r3
 8004a3e:	e731      	b.n	80048a4 <_svfprintf_r+0x51c>
 8004a40:	460a      	mov	r2, r1
 8004a42:	e707      	b.n	8004854 <_svfprintf_r+0x4cc>
 8004a44:	f812 1b01 	ldrb.w	r1, [r2], #1
 8004a48:	f803 1b01 	strb.w	r1, [r3], #1
 8004a4c:	e718      	b.n	8004880 <_svfprintf_r+0x4f8>
 8004a4e:	2230      	movs	r2, #48	; 0x30
 8004a50:	4413      	add	r3, r2
 8004a52:	f88d 2076 	strb.w	r2, [sp, #118]	; 0x76
 8004a56:	f88d 3077 	strb.w	r3, [sp, #119]	; 0x77
 8004a5a:	a91e      	add	r1, sp, #120	; 0x78
 8004a5c:	e714      	b.n	8004888 <_svfprintf_r+0x500>
 8004a5e:	f1bb 0f00 	cmp.w	fp, #0
 8004a62:	d101      	bne.n	8004a68 <_svfprintf_r+0x6e0>
 8004a64:	07eb      	lsls	r3, r5, #31
 8004a66:	d515      	bpl.n	8004a94 <_svfprintf_r+0x70c>
 8004a68:	9b0a      	ldr	r3, [sp, #40]	; 0x28
 8004a6a:	3301      	adds	r3, #1
 8004a6c:	e7e4      	b.n	8004a38 <_svfprintf_r+0x6b0>
 8004a6e:	9a1b      	ldr	r2, [sp, #108]	; 0x6c
 8004a70:	9b07      	ldr	r3, [sp, #28]
 8004a72:	429a      	cmp	r2, r3
 8004a74:	db06      	blt.n	8004a84 <_svfprintf_r+0x6fc>
 8004a76:	07ef      	lsls	r7, r5, #31
 8004a78:	d50e      	bpl.n	8004a98 <_svfprintf_r+0x710>
 8004a7a:	9b0a      	ldr	r3, [sp, #40]	; 0x28
 8004a7c:	4413      	add	r3, r2
 8004a7e:	2267      	movs	r2, #103	; 0x67
 8004a80:	9206      	str	r2, [sp, #24]
 8004a82:	e7da      	b.n	8004a3a <_svfprintf_r+0x6b2>
 8004a84:	9b07      	ldr	r3, [sp, #28]
 8004a86:	990a      	ldr	r1, [sp, #40]	; 0x28
 8004a88:	2a00      	cmp	r2, #0
 8004a8a:	440b      	add	r3, r1
 8004a8c:	dcf7      	bgt.n	8004a7e <_svfprintf_r+0x6f6>
 8004a8e:	f1c2 0201 	rsb	r2, r2, #1
 8004a92:	e7f3      	b.n	8004a7c <_svfprintf_r+0x6f4>
 8004a94:	2301      	movs	r3, #1
 8004a96:	e7d0      	b.n	8004a3a <_svfprintf_r+0x6b2>
 8004a98:	4613      	mov	r3, r2
 8004a9a:	e7f0      	b.n	8004a7e <_svfprintf_r+0x6f6>
 8004a9c:	b10b      	cbz	r3, 8004aa2 <_svfprintf_r+0x71a>
 8004a9e:	f88d 2067 	strb.w	r2, [sp, #103]	; 0x67
 8004aa2:	f015 0f20 	tst.w	r5, #32
 8004aa6:	f107 0304 	add.w	r3, r7, #4
 8004aaa:	d008      	beq.n	8004abe <_svfprintf_r+0x736>
 8004aac:	990b      	ldr	r1, [sp, #44]	; 0x2c
 8004aae:	683a      	ldr	r2, [r7, #0]
 8004ab0:	17ce      	asrs	r6, r1, #31
 8004ab2:	4608      	mov	r0, r1
 8004ab4:	4631      	mov	r1, r6
 8004ab6:	e9c2 0100 	strd	r0, r1, [r2]
 8004aba:	461f      	mov	r7, r3
 8004abc:	e49e      	b.n	80043fc <_svfprintf_r+0x74>
 8004abe:	06ee      	lsls	r6, r5, #27
 8004ac0:	d503      	bpl.n	8004aca <_svfprintf_r+0x742>
 8004ac2:	683a      	ldr	r2, [r7, #0]
 8004ac4:	990b      	ldr	r1, [sp, #44]	; 0x2c
 8004ac6:	6011      	str	r1, [r2, #0]
 8004ac8:	e7f7      	b.n	8004aba <_svfprintf_r+0x732>
 8004aca:	0668      	lsls	r0, r5, #25
 8004acc:	d5f9      	bpl.n	8004ac2 <_svfprintf_r+0x73a>
 8004ace:	683a      	ldr	r2, [r7, #0]
 8004ad0:	f8bd 102c 	ldrh.w	r1, [sp, #44]	; 0x2c
 8004ad4:	8011      	strh	r1, [r2, #0]
 8004ad6:	e7f0      	b.n	8004aba <_svfprintf_r+0x732>
 8004ad8:	f045 0510 	orr.w	r5, r5, #16
 8004adc:	f015 0320 	ands.w	r3, r5, #32
 8004ae0:	d022      	beq.n	8004b28 <_svfprintf_r+0x7a0>
 8004ae2:	3707      	adds	r7, #7
 8004ae4:	f027 0707 	bic.w	r7, r7, #7
 8004ae8:	f107 0308 	add.w	r3, r7, #8
 8004aec:	9308      	str	r3, [sp, #32]
 8004aee:	e9d7 6700 	ldrd	r6, r7, [r7]
 8004af2:	2300      	movs	r3, #0
 8004af4:	2200      	movs	r2, #0
 8004af6:	f88d 2067 	strb.w	r2, [sp, #103]	; 0x67
 8004afa:	f1bb 3fff 	cmp.w	fp, #4294967295
 8004afe:	f000 83db 	beq.w	80052b8 <_svfprintf_r+0xf30>
 8004b02:	f025 0280 	bic.w	r2, r5, #128	; 0x80
 8004b06:	920f      	str	r2, [sp, #60]	; 0x3c
 8004b08:	ea56 0207 	orrs.w	r2, r6, r7
 8004b0c:	f040 83d9 	bne.w	80052c2 <_svfprintf_r+0xf3a>
 8004b10:	f1bb 0f00 	cmp.w	fp, #0
 8004b14:	f000 80aa 	beq.w	8004c6c <_svfprintf_r+0x8e4>
 8004b18:	2b01      	cmp	r3, #1
 8004b1a:	d076      	beq.n	8004c0a <_svfprintf_r+0x882>
 8004b1c:	2b02      	cmp	r3, #2
 8004b1e:	f000 8091 	beq.w	8004c44 <_svfprintf_r+0x8bc>
 8004b22:	2600      	movs	r6, #0
 8004b24:	2700      	movs	r7, #0
 8004b26:	e3d2      	b.n	80052ce <_svfprintf_r+0xf46>
 8004b28:	1d3a      	adds	r2, r7, #4
 8004b2a:	f015 0110 	ands.w	r1, r5, #16
 8004b2e:	9208      	str	r2, [sp, #32]
 8004b30:	d002      	beq.n	8004b38 <_svfprintf_r+0x7b0>
 8004b32:	683e      	ldr	r6, [r7, #0]
 8004b34:	2700      	movs	r7, #0
 8004b36:	e7dd      	b.n	8004af4 <_svfprintf_r+0x76c>
 8004b38:	f015 0340 	ands.w	r3, r5, #64	; 0x40
 8004b3c:	d0f9      	beq.n	8004b32 <_svfprintf_r+0x7aa>
 8004b3e:	883e      	ldrh	r6, [r7, #0]
 8004b40:	2700      	movs	r7, #0
 8004b42:	e7d6      	b.n	8004af2 <_svfprintf_r+0x76a>
 8004b44:	1d3b      	adds	r3, r7, #4
 8004b46:	9308      	str	r3, [sp, #32]
 8004b48:	2330      	movs	r3, #48	; 0x30
 8004b4a:	2278      	movs	r2, #120	; 0x78
 8004b4c:	f88d 3068 	strb.w	r3, [sp, #104]	; 0x68
 8004b50:	4b14      	ldr	r3, [pc, #80]	; (8004ba4 <_svfprintf_r+0x81c>)
 8004b52:	683e      	ldr	r6, [r7, #0]
 8004b54:	9315      	str	r3, [sp, #84]	; 0x54
 8004b56:	2700      	movs	r7, #0
 8004b58:	f045 0502 	orr.w	r5, r5, #2
 8004b5c:	f88d 2069 	strb.w	r2, [sp, #105]	; 0x69
 8004b60:	2302      	movs	r3, #2
 8004b62:	9206      	str	r2, [sp, #24]
 8004b64:	e7c6      	b.n	8004af4 <_svfprintf_r+0x76c>
 8004b66:	2600      	movs	r6, #0
 8004b68:	1d3b      	adds	r3, r7, #4
 8004b6a:	f1bb 3fff 	cmp.w	fp, #4294967295
 8004b6e:	9308      	str	r3, [sp, #32]
 8004b70:	f8d7 8000 	ldr.w	r8, [r7]
 8004b74:	f88d 6067 	strb.w	r6, [sp, #103]	; 0x67
 8004b78:	d00a      	beq.n	8004b90 <_svfprintf_r+0x808>
 8004b7a:	465a      	mov	r2, fp
 8004b7c:	4631      	mov	r1, r6
 8004b7e:	4640      	mov	r0, r8
 8004b80:	f003 f9f2 	bl	8007f68 <memchr>
 8004b84:	2800      	cmp	r0, #0
 8004b86:	f000 808d 	beq.w	8004ca4 <_svfprintf_r+0x91c>
 8004b8a:	eba0 0b08 	sub.w	fp, r0, r8
 8004b8e:	e5c4      	b.n	800471a <_svfprintf_r+0x392>
 8004b90:	4640      	mov	r0, r8
 8004b92:	f7fb fb49 	bl	8000228 <strlen>
 8004b96:	4683      	mov	fp, r0
 8004b98:	e5bf      	b.n	800471a <_svfprintf_r+0x392>
 8004b9a:	bf00      	nop
 8004b9c:	08009323 	.word	0x08009323
 8004ba0:	08009333 	.word	0x08009333
 8004ba4:	08009312 	.word	0x08009312
 8004ba8:	f045 0510 	orr.w	r5, r5, #16
 8004bac:	06a9      	lsls	r1, r5, #26
 8004bae:	d509      	bpl.n	8004bc4 <_svfprintf_r+0x83c>
 8004bb0:	3707      	adds	r7, #7
 8004bb2:	f027 0707 	bic.w	r7, r7, #7
 8004bb6:	f107 0308 	add.w	r3, r7, #8
 8004bba:	9308      	str	r3, [sp, #32]
 8004bbc:	e9d7 6700 	ldrd	r6, r7, [r7]
 8004bc0:	2301      	movs	r3, #1
 8004bc2:	e797      	b.n	8004af4 <_svfprintf_r+0x76c>
 8004bc4:	1d3b      	adds	r3, r7, #4
 8004bc6:	f015 0f10 	tst.w	r5, #16
 8004bca:	9308      	str	r3, [sp, #32]
 8004bcc:	d001      	beq.n	8004bd2 <_svfprintf_r+0x84a>
 8004bce:	683e      	ldr	r6, [r7, #0]
 8004bd0:	e002      	b.n	8004bd8 <_svfprintf_r+0x850>
 8004bd2:	066a      	lsls	r2, r5, #25
 8004bd4:	d5fb      	bpl.n	8004bce <_svfprintf_r+0x846>
 8004bd6:	883e      	ldrh	r6, [r7, #0]
 8004bd8:	2700      	movs	r7, #0
 8004bda:	e7f1      	b.n	8004bc0 <_svfprintf_r+0x838>
 8004bdc:	b10b      	cbz	r3, 8004be2 <_svfprintf_r+0x85a>
 8004bde:	f88d 2067 	strb.w	r2, [sp, #103]	; 0x67
 8004be2:	4ba3      	ldr	r3, [pc, #652]	; (8004e70 <_svfprintf_r+0xae8>)
 8004be4:	e4c5      	b.n	8004572 <_svfprintf_r+0x1ea>
 8004be6:	1d3b      	adds	r3, r7, #4
 8004be8:	f015 0f10 	tst.w	r5, #16
 8004bec:	9308      	str	r3, [sp, #32]
 8004bee:	d001      	beq.n	8004bf4 <_svfprintf_r+0x86c>
 8004bf0:	683e      	ldr	r6, [r7, #0]
 8004bf2:	e002      	b.n	8004bfa <_svfprintf_r+0x872>
 8004bf4:	066e      	lsls	r6, r5, #25
 8004bf6:	d5fb      	bpl.n	8004bf0 <_svfprintf_r+0x868>
 8004bf8:	883e      	ldrh	r6, [r7, #0]
 8004bfa:	2700      	movs	r7, #0
 8004bfc:	e4c5      	b.n	800458a <_svfprintf_r+0x202>
 8004bfe:	4643      	mov	r3, r8
 8004c00:	e366      	b.n	80052d0 <_svfprintf_r+0xf48>
 8004c02:	2f00      	cmp	r7, #0
 8004c04:	bf08      	it	eq
 8004c06:	2e0a      	cmpeq	r6, #10
 8004c08:	d205      	bcs.n	8004c16 <_svfprintf_r+0x88e>
 8004c0a:	3630      	adds	r6, #48	; 0x30
 8004c0c:	f10d 08f8 	add.w	r8, sp, #248	; 0xf8
 8004c10:	f808 6d41 	strb.w	r6, [r8, #-65]!
 8004c14:	e377      	b.n	8005306 <_svfprintf_r+0xf7e>
 8004c16:	f10d 08b8 	add.w	r8, sp, #184	; 0xb8
 8004c1a:	4630      	mov	r0, r6
 8004c1c:	4639      	mov	r1, r7
 8004c1e:	220a      	movs	r2, #10
 8004c20:	2300      	movs	r3, #0
 8004c22:	f7fb ff99 	bl	8000b58 <__aeabi_uldivmod>
 8004c26:	3230      	adds	r2, #48	; 0x30
 8004c28:	f808 2d01 	strb.w	r2, [r8, #-1]!
 8004c2c:	2300      	movs	r3, #0
 8004c2e:	4630      	mov	r0, r6
 8004c30:	4639      	mov	r1, r7
 8004c32:	220a      	movs	r2, #10
 8004c34:	f7fb ff90 	bl	8000b58 <__aeabi_uldivmod>
 8004c38:	4606      	mov	r6, r0
 8004c3a:	460f      	mov	r7, r1
 8004c3c:	ea56 0307 	orrs.w	r3, r6, r7
 8004c40:	d1eb      	bne.n	8004c1a <_svfprintf_r+0x892>
 8004c42:	e360      	b.n	8005306 <_svfprintf_r+0xf7e>
 8004c44:	2600      	movs	r6, #0
 8004c46:	2700      	movs	r7, #0
 8004c48:	f10d 08b8 	add.w	r8, sp, #184	; 0xb8
 8004c4c:	9a15      	ldr	r2, [sp, #84]	; 0x54
 8004c4e:	f006 030f 	and.w	r3, r6, #15
 8004c52:	5cd3      	ldrb	r3, [r2, r3]
 8004c54:	093a      	lsrs	r2, r7, #4
 8004c56:	f808 3d01 	strb.w	r3, [r8, #-1]!
 8004c5a:	0933      	lsrs	r3, r6, #4
 8004c5c:	ea43 7307 	orr.w	r3, r3, r7, lsl #28
 8004c60:	461e      	mov	r6, r3
 8004c62:	4617      	mov	r7, r2
 8004c64:	ea56 0307 	orrs.w	r3, r6, r7
 8004c68:	d1f0      	bne.n	8004c4c <_svfprintf_r+0x8c4>
 8004c6a:	e34c      	b.n	8005306 <_svfprintf_r+0xf7e>
 8004c6c:	b93b      	cbnz	r3, 8004c7e <_svfprintf_r+0x8f6>
 8004c6e:	07ea      	lsls	r2, r5, #31
 8004c70:	d505      	bpl.n	8004c7e <_svfprintf_r+0x8f6>
 8004c72:	2330      	movs	r3, #48	; 0x30
 8004c74:	f10d 08f8 	add.w	r8, sp, #248	; 0xf8
 8004c78:	f808 3d41 	strb.w	r3, [r8, #-65]!
 8004c7c:	e343      	b.n	8005306 <_svfprintf_r+0xf7e>
 8004c7e:	f10d 08b8 	add.w	r8, sp, #184	; 0xb8
 8004c82:	e340      	b.n	8005306 <_svfprintf_r+0xf7e>
 8004c84:	b10b      	cbz	r3, 8004c8a <_svfprintf_r+0x902>
 8004c86:	f88d 2067 	strb.w	r2, [sp, #103]	; 0x67
 8004c8a:	9b06      	ldr	r3, [sp, #24]
 8004c8c:	2b00      	cmp	r3, #0
 8004c8e:	f000 82f7 	beq.w	8005280 <_svfprintf_r+0xef8>
 8004c92:	2600      	movs	r6, #0
 8004c94:	f89d 3018 	ldrb.w	r3, [sp, #24]
 8004c98:	f88d 6067 	strb.w	r6, [sp, #103]	; 0x67
 8004c9c:	f88d 3090 	strb.w	r3, [sp, #144]	; 0x90
 8004ca0:	9708      	str	r7, [sp, #32]
 8004ca2:	e4e3      	b.n	800466c <_svfprintf_r+0x2e4>
 8004ca4:	4606      	mov	r6, r0
 8004ca6:	e538      	b.n	800471a <_svfprintf_r+0x392>
 8004ca8:	2310      	movs	r3, #16
 8004caa:	6063      	str	r3, [r4, #4]
 8004cac:	9b23      	ldr	r3, [sp, #140]	; 0x8c
 8004cae:	3310      	adds	r3, #16
 8004cb0:	9323      	str	r3, [sp, #140]	; 0x8c
 8004cb2:	9b22      	ldr	r3, [sp, #136]	; 0x88
 8004cb4:	3301      	adds	r3, #1
 8004cb6:	2b07      	cmp	r3, #7
 8004cb8:	9322      	str	r3, [sp, #136]	; 0x88
 8004cba:	dc04      	bgt.n	8004cc6 <_svfprintf_r+0x93e>
 8004cbc:	3408      	adds	r4, #8
 8004cbe:	9b10      	ldr	r3, [sp, #64]	; 0x40
 8004cc0:	3b10      	subs	r3, #16
 8004cc2:	9310      	str	r3, [sp, #64]	; 0x40
 8004cc4:	e611      	b.n	80048ea <_svfprintf_r+0x562>
 8004cc6:	aa21      	add	r2, sp, #132	; 0x84
 8004cc8:	4649      	mov	r1, r9
 8004cca:	4650      	mov	r0, sl
 8004ccc:	f003 fe27 	bl	800891e <__ssprint_r>
 8004cd0:	2800      	cmp	r0, #0
 8004cd2:	f040 82b6 	bne.w	8005242 <_svfprintf_r+0xeba>
 8004cd6:	ac2e      	add	r4, sp, #184	; 0xb8
 8004cd8:	e7f1      	b.n	8004cbe <_svfprintf_r+0x936>
 8004cda:	aa21      	add	r2, sp, #132	; 0x84
 8004cdc:	4649      	mov	r1, r9
 8004cde:	4650      	mov	r0, sl
 8004ce0:	f003 fe1d 	bl	800891e <__ssprint_r>
 8004ce4:	2800      	cmp	r0, #0
 8004ce6:	f040 82ac 	bne.w	8005242 <_svfprintf_r+0xeba>
 8004cea:	ac2e      	add	r4, sp, #184	; 0xb8
 8004cec:	e610      	b.n	8004910 <_svfprintf_r+0x588>
 8004cee:	aa21      	add	r2, sp, #132	; 0x84
 8004cf0:	4649      	mov	r1, r9
 8004cf2:	4650      	mov	r0, sl
 8004cf4:	f003 fe13 	bl	800891e <__ssprint_r>
 8004cf8:	2800      	cmp	r0, #0
 8004cfa:	f040 82a2 	bne.w	8005242 <_svfprintf_r+0xeba>
 8004cfe:	ac2e      	add	r4, sp, #184	; 0xb8
 8004d00:	e618      	b.n	8004934 <_svfprintf_r+0x5ac>
 8004d02:	aa21      	add	r2, sp, #132	; 0x84
 8004d04:	4649      	mov	r1, r9
 8004d06:	4650      	mov	r0, sl
 8004d08:	f003 fe09 	bl	800891e <__ssprint_r>
 8004d0c:	2800      	cmp	r0, #0
 8004d0e:	f040 8298 	bne.w	8005242 <_svfprintf_r+0xeba>
 8004d12:	ac2e      	add	r4, sp, #184	; 0xb8
 8004d14:	e61e      	b.n	8004954 <_svfprintf_r+0x5cc>
 8004d16:	2310      	movs	r3, #16
 8004d18:	6063      	str	r3, [r4, #4]
 8004d1a:	9b23      	ldr	r3, [sp, #140]	; 0x8c
 8004d1c:	3310      	adds	r3, #16
 8004d1e:	9323      	str	r3, [sp, #140]	; 0x8c
 8004d20:	9b22      	ldr	r3, [sp, #136]	; 0x88
 8004d22:	3301      	adds	r3, #1
 8004d24:	2b07      	cmp	r3, #7
 8004d26:	9322      	str	r3, [sp, #136]	; 0x88
 8004d28:	dc04      	bgt.n	8004d34 <_svfprintf_r+0x9ac>
 8004d2a:	3408      	adds	r4, #8
 8004d2c:	9b10      	ldr	r3, [sp, #64]	; 0x40
 8004d2e:	3b10      	subs	r3, #16
 8004d30:	9310      	str	r3, [sp, #64]	; 0x40
 8004d32:	e618      	b.n	8004966 <_svfprintf_r+0x5de>
 8004d34:	aa21      	add	r2, sp, #132	; 0x84
 8004d36:	4649      	mov	r1, r9
 8004d38:	4650      	mov	r0, sl
 8004d3a:	f003 fdf0 	bl	800891e <__ssprint_r>
 8004d3e:	2800      	cmp	r0, #0
 8004d40:	f040 827f 	bne.w	8005242 <_svfprintf_r+0xeba>
 8004d44:	ac2e      	add	r4, sp, #184	; 0xb8
 8004d46:	e7f1      	b.n	8004d2c <_svfprintf_r+0x9a4>
 8004d48:	aa21      	add	r2, sp, #132	; 0x84
 8004d4a:	4649      	mov	r1, r9
 8004d4c:	4650      	mov	r0, sl
 8004d4e:	f003 fde6 	bl	800891e <__ssprint_r>
 8004d52:	2800      	cmp	r0, #0
 8004d54:	f040 8275 	bne.w	8005242 <_svfprintf_r+0xeba>
 8004d58:	ac2e      	add	r4, sp, #184	; 0xb8
 8004d5a:	e617      	b.n	800498c <_svfprintf_r+0x604>
 8004d5c:	2310      	movs	r3, #16
 8004d5e:	6063      	str	r3, [r4, #4]
 8004d60:	9b23      	ldr	r3, [sp, #140]	; 0x8c
 8004d62:	3310      	adds	r3, #16
 8004d64:	9323      	str	r3, [sp, #140]	; 0x8c
 8004d66:	9b22      	ldr	r3, [sp, #136]	; 0x88
 8004d68:	3301      	adds	r3, #1
 8004d6a:	2b07      	cmp	r3, #7
 8004d6c:	9322      	str	r3, [sp, #136]	; 0x88
 8004d6e:	dc02      	bgt.n	8004d76 <_svfprintf_r+0x9ee>
 8004d70:	3408      	adds	r4, #8
 8004d72:	3e10      	subs	r6, #16
 8004d74:	e60e      	b.n	8004994 <_svfprintf_r+0x60c>
 8004d76:	aa21      	add	r2, sp, #132	; 0x84
 8004d78:	4649      	mov	r1, r9
 8004d7a:	4650      	mov	r0, sl
 8004d7c:	f003 fdcf 	bl	800891e <__ssprint_r>
 8004d80:	2800      	cmp	r0, #0
 8004d82:	f040 825e 	bne.w	8005242 <_svfprintf_r+0xeba>
 8004d86:	ac2e      	add	r4, sp, #184	; 0xb8
 8004d88:	e7f3      	b.n	8004d72 <_svfprintf_r+0x9ea>
 8004d8a:	aa21      	add	r2, sp, #132	; 0x84
 8004d8c:	4649      	mov	r1, r9
 8004d8e:	4650      	mov	r0, sl
 8004d90:	f003 fdc5 	bl	800891e <__ssprint_r>
 8004d94:	2800      	cmp	r0, #0
 8004d96:	f040 8254 	bne.w	8005242 <_svfprintf_r+0xeba>
 8004d9a:	ac2e      	add	r4, sp, #184	; 0xb8
 8004d9c:	e60a      	b.n	80049b4 <_svfprintf_r+0x62c>
 8004d9e:	9b06      	ldr	r3, [sp, #24]
 8004da0:	2b65      	cmp	r3, #101	; 0x65
 8004da2:	f340 81a9 	ble.w	80050f8 <_svfprintf_r+0xd70>
 8004da6:	9a12      	ldr	r2, [sp, #72]	; 0x48
 8004da8:	9b13      	ldr	r3, [sp, #76]	; 0x4c
 8004daa:	980d      	ldr	r0, [sp, #52]	; 0x34
 8004dac:	990e      	ldr	r1, [sp, #56]	; 0x38
 8004dae:	f7fb fe63 	bl	8000a78 <__aeabi_dcmpeq>
 8004db2:	2800      	cmp	r0, #0
 8004db4:	d062      	beq.n	8004e7c <_svfprintf_r+0xaf4>
 8004db6:	4b2f      	ldr	r3, [pc, #188]	; (8004e74 <_svfprintf_r+0xaec>)
 8004db8:	6023      	str	r3, [r4, #0]
 8004dba:	2301      	movs	r3, #1
 8004dbc:	6063      	str	r3, [r4, #4]
 8004dbe:	9b23      	ldr	r3, [sp, #140]	; 0x8c
 8004dc0:	3301      	adds	r3, #1
 8004dc2:	9323      	str	r3, [sp, #140]	; 0x8c
 8004dc4:	9b22      	ldr	r3, [sp, #136]	; 0x88
 8004dc6:	3301      	adds	r3, #1
 8004dc8:	2b07      	cmp	r3, #7
 8004dca:	9322      	str	r3, [sp, #136]	; 0x88
 8004dcc:	dc25      	bgt.n	8004e1a <_svfprintf_r+0xa92>
 8004dce:	3408      	adds	r4, #8
 8004dd0:	9b1b      	ldr	r3, [sp, #108]	; 0x6c
 8004dd2:	9a07      	ldr	r2, [sp, #28]
 8004dd4:	4293      	cmp	r3, r2
 8004dd6:	db02      	blt.n	8004dde <_svfprintf_r+0xa56>
 8004dd8:	07ee      	lsls	r6, r5, #31
 8004dda:	f57f ae02 	bpl.w	80049e2 <_svfprintf_r+0x65a>
 8004dde:	9b11      	ldr	r3, [sp, #68]	; 0x44
 8004de0:	9a0a      	ldr	r2, [sp, #40]	; 0x28
 8004de2:	6023      	str	r3, [r4, #0]
 8004de4:	9b0a      	ldr	r3, [sp, #40]	; 0x28
 8004de6:	6063      	str	r3, [r4, #4]
 8004de8:	9b23      	ldr	r3, [sp, #140]	; 0x8c
 8004dea:	4413      	add	r3, r2
 8004dec:	9323      	str	r3, [sp, #140]	; 0x8c
 8004dee:	9b22      	ldr	r3, [sp, #136]	; 0x88
 8004df0:	3301      	adds	r3, #1
 8004df2:	2b07      	cmp	r3, #7
 8004df4:	9322      	str	r3, [sp, #136]	; 0x88
 8004df6:	dc1a      	bgt.n	8004e2e <_svfprintf_r+0xaa6>
 8004df8:	3408      	adds	r4, #8
 8004dfa:	9b07      	ldr	r3, [sp, #28]
 8004dfc:	1e5e      	subs	r6, r3, #1
 8004dfe:	2e00      	cmp	r6, #0
 8004e00:	f77f adef 	ble.w	80049e2 <_svfprintf_r+0x65a>
 8004e04:	f04f 0810 	mov.w	r8, #16
 8004e08:	4f1b      	ldr	r7, [pc, #108]	; (8004e78 <_svfprintf_r+0xaf0>)
 8004e0a:	2e10      	cmp	r6, #16
 8004e0c:	6027      	str	r7, [r4, #0]
 8004e0e:	dc18      	bgt.n	8004e42 <_svfprintf_r+0xaba>
 8004e10:	6066      	str	r6, [r4, #4]
 8004e12:	9b23      	ldr	r3, [sp, #140]	; 0x8c
 8004e14:	441e      	add	r6, r3
 8004e16:	9623      	str	r6, [sp, #140]	; 0x8c
 8004e18:	e5d4      	b.n	80049c4 <_svfprintf_r+0x63c>
 8004e1a:	aa21      	add	r2, sp, #132	; 0x84
 8004e1c:	4649      	mov	r1, r9
 8004e1e:	4650      	mov	r0, sl
 8004e20:	f003 fd7d 	bl	800891e <__ssprint_r>
 8004e24:	2800      	cmp	r0, #0
 8004e26:	f040 820c 	bne.w	8005242 <_svfprintf_r+0xeba>
 8004e2a:	ac2e      	add	r4, sp, #184	; 0xb8
 8004e2c:	e7d0      	b.n	8004dd0 <_svfprintf_r+0xa48>
 8004e2e:	aa21      	add	r2, sp, #132	; 0x84
 8004e30:	4649      	mov	r1, r9
 8004e32:	4650      	mov	r0, sl
 8004e34:	f003 fd73 	bl	800891e <__ssprint_r>
 8004e38:	2800      	cmp	r0, #0
 8004e3a:	f040 8202 	bne.w	8005242 <_svfprintf_r+0xeba>
 8004e3e:	ac2e      	add	r4, sp, #184	; 0xb8
 8004e40:	e7db      	b.n	8004dfa <_svfprintf_r+0xa72>
 8004e42:	9b23      	ldr	r3, [sp, #140]	; 0x8c
 8004e44:	f8c4 8004 	str.w	r8, [r4, #4]
 8004e48:	3310      	adds	r3, #16
 8004e4a:	9323      	str	r3, [sp, #140]	; 0x8c
 8004e4c:	9b22      	ldr	r3, [sp, #136]	; 0x88
 8004e4e:	3301      	adds	r3, #1
 8004e50:	2b07      	cmp	r3, #7
 8004e52:	9322      	str	r3, [sp, #136]	; 0x88
 8004e54:	dc02      	bgt.n	8004e5c <_svfprintf_r+0xad4>
 8004e56:	3408      	adds	r4, #8
 8004e58:	3e10      	subs	r6, #16
 8004e5a:	e7d6      	b.n	8004e0a <_svfprintf_r+0xa82>
 8004e5c:	aa21      	add	r2, sp, #132	; 0x84
 8004e5e:	4649      	mov	r1, r9
 8004e60:	4650      	mov	r0, sl
 8004e62:	f003 fd5c 	bl	800891e <__ssprint_r>
 8004e66:	2800      	cmp	r0, #0
 8004e68:	f040 81eb 	bne.w	8005242 <_svfprintf_r+0xeba>
 8004e6c:	ac2e      	add	r4, sp, #184	; 0xb8
 8004e6e:	e7f3      	b.n	8004e58 <_svfprintf_r+0xad0>
 8004e70:	08009312 	.word	0x08009312
 8004e74:	080090c7 	.word	0x080090c7
 8004e78:	08009333 	.word	0x08009333
 8004e7c:	9b1b      	ldr	r3, [sp, #108]	; 0x6c
 8004e7e:	2b00      	cmp	r3, #0
 8004e80:	dc7a      	bgt.n	8004f78 <_svfprintf_r+0xbf0>
 8004e82:	4b9b      	ldr	r3, [pc, #620]	; (80050f0 <_svfprintf_r+0xd68>)
 8004e84:	6023      	str	r3, [r4, #0]
 8004e86:	2301      	movs	r3, #1
 8004e88:	6063      	str	r3, [r4, #4]
 8004e8a:	9b23      	ldr	r3, [sp, #140]	; 0x8c
 8004e8c:	3301      	adds	r3, #1
 8004e8e:	9323      	str	r3, [sp, #140]	; 0x8c
 8004e90:	9b22      	ldr	r3, [sp, #136]	; 0x88
 8004e92:	3301      	adds	r3, #1
 8004e94:	2b07      	cmp	r3, #7
 8004e96:	9322      	str	r3, [sp, #136]	; 0x88
 8004e98:	dc44      	bgt.n	8004f24 <_svfprintf_r+0xb9c>
 8004e9a:	3408      	adds	r4, #8
 8004e9c:	9b1b      	ldr	r3, [sp, #108]	; 0x6c
 8004e9e:	b923      	cbnz	r3, 8004eaa <_svfprintf_r+0xb22>
 8004ea0:	9b07      	ldr	r3, [sp, #28]
 8004ea2:	b913      	cbnz	r3, 8004eaa <_svfprintf_r+0xb22>
 8004ea4:	07e8      	lsls	r0, r5, #31
 8004ea6:	f57f ad9c 	bpl.w	80049e2 <_svfprintf_r+0x65a>
 8004eaa:	9b11      	ldr	r3, [sp, #68]	; 0x44
 8004eac:	9a0a      	ldr	r2, [sp, #40]	; 0x28
 8004eae:	6023      	str	r3, [r4, #0]
 8004eb0:	9b0a      	ldr	r3, [sp, #40]	; 0x28
 8004eb2:	6063      	str	r3, [r4, #4]
 8004eb4:	9b23      	ldr	r3, [sp, #140]	; 0x8c
 8004eb6:	4413      	add	r3, r2
 8004eb8:	9323      	str	r3, [sp, #140]	; 0x8c
 8004eba:	9b22      	ldr	r3, [sp, #136]	; 0x88
 8004ebc:	3301      	adds	r3, #1
 8004ebe:	2b07      	cmp	r3, #7
 8004ec0:	9322      	str	r3, [sp, #136]	; 0x88
 8004ec2:	dc39      	bgt.n	8004f38 <_svfprintf_r+0xbb0>
 8004ec4:	f104 0308 	add.w	r3, r4, #8
 8004ec8:	9e1b      	ldr	r6, [sp, #108]	; 0x6c
 8004eca:	2e00      	cmp	r6, #0
 8004ecc:	da19      	bge.n	8004f02 <_svfprintf_r+0xb7a>
 8004ece:	2410      	movs	r4, #16
 8004ed0:	4f88      	ldr	r7, [pc, #544]	; (80050f4 <_svfprintf_r+0xd6c>)
 8004ed2:	4276      	negs	r6, r6
 8004ed4:	2e10      	cmp	r6, #16
 8004ed6:	601f      	str	r7, [r3, #0]
 8004ed8:	dc38      	bgt.n	8004f4c <_svfprintf_r+0xbc4>
 8004eda:	9a23      	ldr	r2, [sp, #140]	; 0x8c
 8004edc:	605e      	str	r6, [r3, #4]
 8004ede:	4416      	add	r6, r2
 8004ee0:	9a22      	ldr	r2, [sp, #136]	; 0x88
 8004ee2:	9623      	str	r6, [sp, #140]	; 0x8c
 8004ee4:	3201      	adds	r2, #1
 8004ee6:	2a07      	cmp	r2, #7
 8004ee8:	f103 0308 	add.w	r3, r3, #8
 8004eec:	9222      	str	r2, [sp, #136]	; 0x88
 8004eee:	dd08      	ble.n	8004f02 <_svfprintf_r+0xb7a>
 8004ef0:	aa21      	add	r2, sp, #132	; 0x84
 8004ef2:	4649      	mov	r1, r9
 8004ef4:	4650      	mov	r0, sl
 8004ef6:	f003 fd12 	bl	800891e <__ssprint_r>
 8004efa:	2800      	cmp	r0, #0
 8004efc:	f040 81a1 	bne.w	8005242 <_svfprintf_r+0xeba>
 8004f00:	ab2e      	add	r3, sp, #184	; 0xb8
 8004f02:	9a07      	ldr	r2, [sp, #28]
 8004f04:	9907      	ldr	r1, [sp, #28]
 8004f06:	605a      	str	r2, [r3, #4]
 8004f08:	9a23      	ldr	r2, [sp, #140]	; 0x8c
 8004f0a:	f8c3 8000 	str.w	r8, [r3]
 8004f0e:	440a      	add	r2, r1
 8004f10:	9223      	str	r2, [sp, #140]	; 0x8c
 8004f12:	9a22      	ldr	r2, [sp, #136]	; 0x88
 8004f14:	3201      	adds	r2, #1
 8004f16:	2a07      	cmp	r2, #7
 8004f18:	9222      	str	r2, [sp, #136]	; 0x88
 8004f1a:	f73f ad59 	bgt.w	80049d0 <_svfprintf_r+0x648>
 8004f1e:	f103 0408 	add.w	r4, r3, #8
 8004f22:	e55e      	b.n	80049e2 <_svfprintf_r+0x65a>
 8004f24:	aa21      	add	r2, sp, #132	; 0x84
 8004f26:	4649      	mov	r1, r9
 8004f28:	4650      	mov	r0, sl
 8004f2a:	f003 fcf8 	bl	800891e <__ssprint_r>
 8004f2e:	2800      	cmp	r0, #0
 8004f30:	f040 8187 	bne.w	8005242 <_svfprintf_r+0xeba>
 8004f34:	ac2e      	add	r4, sp, #184	; 0xb8
 8004f36:	e7b1      	b.n	8004e9c <_svfprintf_r+0xb14>
 8004f38:	aa21      	add	r2, sp, #132	; 0x84
 8004f3a:	4649      	mov	r1, r9
 8004f3c:	4650      	mov	r0, sl
 8004f3e:	f003 fcee 	bl	800891e <__ssprint_r>
 8004f42:	2800      	cmp	r0, #0
 8004f44:	f040 817d 	bne.w	8005242 <_svfprintf_r+0xeba>
 8004f48:	ab2e      	add	r3, sp, #184	; 0xb8
 8004f4a:	e7bd      	b.n	8004ec8 <_svfprintf_r+0xb40>
 8004f4c:	9a23      	ldr	r2, [sp, #140]	; 0x8c
 8004f4e:	605c      	str	r4, [r3, #4]
 8004f50:	3210      	adds	r2, #16
 8004f52:	9223      	str	r2, [sp, #140]	; 0x8c
 8004f54:	9a22      	ldr	r2, [sp, #136]	; 0x88
 8004f56:	3201      	adds	r2, #1
 8004f58:	2a07      	cmp	r2, #7
 8004f5a:	9222      	str	r2, [sp, #136]	; 0x88
 8004f5c:	dc02      	bgt.n	8004f64 <_svfprintf_r+0xbdc>
 8004f5e:	3308      	adds	r3, #8
 8004f60:	3e10      	subs	r6, #16
 8004f62:	e7b7      	b.n	8004ed4 <_svfprintf_r+0xb4c>
 8004f64:	aa21      	add	r2, sp, #132	; 0x84
 8004f66:	4649      	mov	r1, r9
 8004f68:	4650      	mov	r0, sl
 8004f6a:	f003 fcd8 	bl	800891e <__ssprint_r>
 8004f6e:	2800      	cmp	r0, #0
 8004f70:	f040 8167 	bne.w	8005242 <_svfprintf_r+0xeba>
 8004f74:	ab2e      	add	r3, sp, #184	; 0xb8
 8004f76:	e7f3      	b.n	8004f60 <_svfprintf_r+0xbd8>
 8004f78:	9b07      	ldr	r3, [sp, #28]
 8004f7a:	42bb      	cmp	r3, r7
 8004f7c:	bfa8      	it	ge
 8004f7e:	463b      	movge	r3, r7
 8004f80:	2b00      	cmp	r3, #0
 8004f82:	461e      	mov	r6, r3
 8004f84:	dd0b      	ble.n	8004f9e <_svfprintf_r+0xc16>
 8004f86:	6063      	str	r3, [r4, #4]
 8004f88:	9b23      	ldr	r3, [sp, #140]	; 0x8c
 8004f8a:	f8c4 8000 	str.w	r8, [r4]
 8004f8e:	4433      	add	r3, r6
 8004f90:	9323      	str	r3, [sp, #140]	; 0x8c
 8004f92:	9b22      	ldr	r3, [sp, #136]	; 0x88
 8004f94:	3301      	adds	r3, #1
 8004f96:	2b07      	cmp	r3, #7
 8004f98:	9322      	str	r3, [sp, #136]	; 0x88
 8004f9a:	dc5f      	bgt.n	800505c <_svfprintf_r+0xcd4>
 8004f9c:	3408      	adds	r4, #8
 8004f9e:	2e00      	cmp	r6, #0
 8004fa0:	bfb4      	ite	lt
 8004fa2:	463e      	movlt	r6, r7
 8004fa4:	1bbe      	subge	r6, r7, r6
 8004fa6:	2e00      	cmp	r6, #0
 8004fa8:	dd0f      	ble.n	8004fca <_svfprintf_r+0xc42>
 8004faa:	f8df b148 	ldr.w	fp, [pc, #328]	; 80050f4 <_svfprintf_r+0xd6c>
 8004fae:	2e10      	cmp	r6, #16
 8004fb0:	f8c4 b000 	str.w	fp, [r4]
 8004fb4:	dc5c      	bgt.n	8005070 <_svfprintf_r+0xce8>
 8004fb6:	9b23      	ldr	r3, [sp, #140]	; 0x8c
 8004fb8:	6066      	str	r6, [r4, #4]
 8004fba:	441e      	add	r6, r3
 8004fbc:	9b22      	ldr	r3, [sp, #136]	; 0x88
 8004fbe:	9623      	str	r6, [sp, #140]	; 0x8c
 8004fc0:	3301      	adds	r3, #1
 8004fc2:	2b07      	cmp	r3, #7
 8004fc4:	9322      	str	r3, [sp, #136]	; 0x88
 8004fc6:	dc6a      	bgt.n	800509e <_svfprintf_r+0xd16>
 8004fc8:	3408      	adds	r4, #8
 8004fca:	9b1b      	ldr	r3, [sp, #108]	; 0x6c
 8004fcc:	9a07      	ldr	r2, [sp, #28]
 8004fce:	4293      	cmp	r3, r2
 8004fd0:	db01      	blt.n	8004fd6 <_svfprintf_r+0xc4e>
 8004fd2:	07e9      	lsls	r1, r5, #31
 8004fd4:	d50d      	bpl.n	8004ff2 <_svfprintf_r+0xc6a>
 8004fd6:	9b11      	ldr	r3, [sp, #68]	; 0x44
 8004fd8:	9a0a      	ldr	r2, [sp, #40]	; 0x28
 8004fda:	6023      	str	r3, [r4, #0]
 8004fdc:	9b0a      	ldr	r3, [sp, #40]	; 0x28
 8004fde:	6063      	str	r3, [r4, #4]
 8004fe0:	9b23      	ldr	r3, [sp, #140]	; 0x8c
 8004fe2:	4413      	add	r3, r2
 8004fe4:	9323      	str	r3, [sp, #140]	; 0x8c
 8004fe6:	9b22      	ldr	r3, [sp, #136]	; 0x88
 8004fe8:	3301      	adds	r3, #1
 8004fea:	2b07      	cmp	r3, #7
 8004fec:	9322      	str	r3, [sp, #136]	; 0x88
 8004fee:	dc60      	bgt.n	80050b2 <_svfprintf_r+0xd2a>
 8004ff0:	3408      	adds	r4, #8
 8004ff2:	9b07      	ldr	r3, [sp, #28]
 8004ff4:	9a07      	ldr	r2, [sp, #28]
 8004ff6:	1bde      	subs	r6, r3, r7
 8004ff8:	9b1b      	ldr	r3, [sp, #108]	; 0x6c
 8004ffa:	1ad3      	subs	r3, r2, r3
 8004ffc:	429e      	cmp	r6, r3
 8004ffe:	bfa8      	it	ge
 8005000:	461e      	movge	r6, r3
 8005002:	2e00      	cmp	r6, #0
 8005004:	dd0b      	ble.n	800501e <_svfprintf_r+0xc96>
 8005006:	9b23      	ldr	r3, [sp, #140]	; 0x8c
 8005008:	4447      	add	r7, r8
 800500a:	4433      	add	r3, r6
 800500c:	9323      	str	r3, [sp, #140]	; 0x8c
 800500e:	9b22      	ldr	r3, [sp, #136]	; 0x88
 8005010:	6027      	str	r7, [r4, #0]
 8005012:	3301      	adds	r3, #1
 8005014:	2b07      	cmp	r3, #7
 8005016:	6066      	str	r6, [r4, #4]
 8005018:	9322      	str	r3, [sp, #136]	; 0x88
 800501a:	dc54      	bgt.n	80050c6 <_svfprintf_r+0xd3e>
 800501c:	3408      	adds	r4, #8
 800501e:	9b1b      	ldr	r3, [sp, #108]	; 0x6c
 8005020:	9a07      	ldr	r2, [sp, #28]
 8005022:	2e00      	cmp	r6, #0
 8005024:	eba2 0303 	sub.w	r3, r2, r3
 8005028:	bfb4      	ite	lt
 800502a:	461e      	movlt	r6, r3
 800502c:	1b9e      	subge	r6, r3, r6
 800502e:	2e00      	cmp	r6, #0
 8005030:	f77f acd7 	ble.w	80049e2 <_svfprintf_r+0x65a>
 8005034:	f04f 0810 	mov.w	r8, #16
 8005038:	4f2e      	ldr	r7, [pc, #184]	; (80050f4 <_svfprintf_r+0xd6c>)
 800503a:	2e10      	cmp	r6, #16
 800503c:	6027      	str	r7, [r4, #0]
 800503e:	f77f aee7 	ble.w	8004e10 <_svfprintf_r+0xa88>
 8005042:	9b23      	ldr	r3, [sp, #140]	; 0x8c
 8005044:	f8c4 8004 	str.w	r8, [r4, #4]
 8005048:	3310      	adds	r3, #16
 800504a:	9323      	str	r3, [sp, #140]	; 0x8c
 800504c:	9b22      	ldr	r3, [sp, #136]	; 0x88
 800504e:	3301      	adds	r3, #1
 8005050:	2b07      	cmp	r3, #7
 8005052:	9322      	str	r3, [sp, #136]	; 0x88
 8005054:	dc41      	bgt.n	80050da <_svfprintf_r+0xd52>
 8005056:	3408      	adds	r4, #8
 8005058:	3e10      	subs	r6, #16
 800505a:	e7ee      	b.n	800503a <_svfprintf_r+0xcb2>
 800505c:	aa21      	add	r2, sp, #132	; 0x84
 800505e:	4649      	mov	r1, r9
 8005060:	4650      	mov	r0, sl
 8005062:	f003 fc5c 	bl	800891e <__ssprint_r>
 8005066:	2800      	cmp	r0, #0
 8005068:	f040 80eb 	bne.w	8005242 <_svfprintf_r+0xeba>
 800506c:	ac2e      	add	r4, sp, #184	; 0xb8
 800506e:	e796      	b.n	8004f9e <_svfprintf_r+0xc16>
 8005070:	2310      	movs	r3, #16
 8005072:	6063      	str	r3, [r4, #4]
 8005074:	9b23      	ldr	r3, [sp, #140]	; 0x8c
 8005076:	3310      	adds	r3, #16
 8005078:	9323      	str	r3, [sp, #140]	; 0x8c
 800507a:	9b22      	ldr	r3, [sp, #136]	; 0x88
 800507c:	3301      	adds	r3, #1
 800507e:	2b07      	cmp	r3, #7
 8005080:	9322      	str	r3, [sp, #136]	; 0x88
 8005082:	dc02      	bgt.n	800508a <_svfprintf_r+0xd02>
 8005084:	3408      	adds	r4, #8
 8005086:	3e10      	subs	r6, #16
 8005088:	e791      	b.n	8004fae <_svfprintf_r+0xc26>
 800508a:	aa21      	add	r2, sp, #132	; 0x84
 800508c:	4649      	mov	r1, r9
 800508e:	4650      	mov	r0, sl
 8005090:	f003 fc45 	bl	800891e <__ssprint_r>
 8005094:	2800      	cmp	r0, #0
 8005096:	f040 80d4 	bne.w	8005242 <_svfprintf_r+0xeba>
 800509a:	ac2e      	add	r4, sp, #184	; 0xb8
 800509c:	e7f3      	b.n	8005086 <_svfprintf_r+0xcfe>
 800509e:	aa21      	add	r2, sp, #132	; 0x84
 80050a0:	4649      	mov	r1, r9
 80050a2:	4650      	mov	r0, sl
 80050a4:	f003 fc3b 	bl	800891e <__ssprint_r>
 80050a8:	2800      	cmp	r0, #0
 80050aa:	f040 80ca 	bne.w	8005242 <_svfprintf_r+0xeba>
 80050ae:	ac2e      	add	r4, sp, #184	; 0xb8
 80050b0:	e78b      	b.n	8004fca <_svfprintf_r+0xc42>
 80050b2:	aa21      	add	r2, sp, #132	; 0x84
 80050b4:	4649      	mov	r1, r9
 80050b6:	4650      	mov	r0, sl
 80050b8:	f003 fc31 	bl	800891e <__ssprint_r>
 80050bc:	2800      	cmp	r0, #0
 80050be:	f040 80c0 	bne.w	8005242 <_svfprintf_r+0xeba>
 80050c2:	ac2e      	add	r4, sp, #184	; 0xb8
 80050c4:	e795      	b.n	8004ff2 <_svfprintf_r+0xc6a>
 80050c6:	aa21      	add	r2, sp, #132	; 0x84
 80050c8:	4649      	mov	r1, r9
 80050ca:	4650      	mov	r0, sl
 80050cc:	f003 fc27 	bl	800891e <__ssprint_r>
 80050d0:	2800      	cmp	r0, #0
 80050d2:	f040 80b6 	bne.w	8005242 <_svfprintf_r+0xeba>
 80050d6:	ac2e      	add	r4, sp, #184	; 0xb8
 80050d8:	e7a1      	b.n	800501e <_svfprintf_r+0xc96>
 80050da:	aa21      	add	r2, sp, #132	; 0x84
 80050dc:	4649      	mov	r1, r9
 80050de:	4650      	mov	r0, sl
 80050e0:	f003 fc1d 	bl	800891e <__ssprint_r>
 80050e4:	2800      	cmp	r0, #0
 80050e6:	f040 80ac 	bne.w	8005242 <_svfprintf_r+0xeba>
 80050ea:	ac2e      	add	r4, sp, #184	; 0xb8
 80050ec:	e7b4      	b.n	8005058 <_svfprintf_r+0xcd0>
 80050ee:	bf00      	nop
 80050f0:	080090c7 	.word	0x080090c7
 80050f4:	08009333 	.word	0x08009333
 80050f8:	9b07      	ldr	r3, [sp, #28]
 80050fa:	2b01      	cmp	r3, #1
 80050fc:	dc01      	bgt.n	8005102 <_svfprintf_r+0xd7a>
 80050fe:	07ea      	lsls	r2, r5, #31
 8005100:	d576      	bpl.n	80051f0 <_svfprintf_r+0xe68>
 8005102:	2301      	movs	r3, #1
 8005104:	6063      	str	r3, [r4, #4]
 8005106:	9b23      	ldr	r3, [sp, #140]	; 0x8c
 8005108:	f8c4 8000 	str.w	r8, [r4]
 800510c:	3301      	adds	r3, #1
 800510e:	9323      	str	r3, [sp, #140]	; 0x8c
 8005110:	9b22      	ldr	r3, [sp, #136]	; 0x88
 8005112:	3301      	adds	r3, #1
 8005114:	2b07      	cmp	r3, #7
 8005116:	9322      	str	r3, [sp, #136]	; 0x88
 8005118:	dc36      	bgt.n	8005188 <_svfprintf_r+0xe00>
 800511a:	3408      	adds	r4, #8
 800511c:	9b11      	ldr	r3, [sp, #68]	; 0x44
 800511e:	9a0a      	ldr	r2, [sp, #40]	; 0x28
 8005120:	6023      	str	r3, [r4, #0]
 8005122:	9b0a      	ldr	r3, [sp, #40]	; 0x28
 8005124:	6063      	str	r3, [r4, #4]
 8005126:	9b23      	ldr	r3, [sp, #140]	; 0x8c
 8005128:	4413      	add	r3, r2
 800512a:	9323      	str	r3, [sp, #140]	; 0x8c
 800512c:	9b22      	ldr	r3, [sp, #136]	; 0x88
 800512e:	3301      	adds	r3, #1
 8005130:	2b07      	cmp	r3, #7
 8005132:	9322      	str	r3, [sp, #136]	; 0x88
 8005134:	dc31      	bgt.n	800519a <_svfprintf_r+0xe12>
 8005136:	3408      	adds	r4, #8
 8005138:	9b13      	ldr	r3, [sp, #76]	; 0x4c
 800513a:	9a12      	ldr	r2, [sp, #72]	; 0x48
 800513c:	980d      	ldr	r0, [sp, #52]	; 0x34
 800513e:	990e      	ldr	r1, [sp, #56]	; 0x38
 8005140:	f7fb fc9a 	bl	8000a78 <__aeabi_dcmpeq>
 8005144:	9b07      	ldr	r3, [sp, #28]
 8005146:	1e5e      	subs	r6, r3, #1
 8005148:	2800      	cmp	r0, #0
 800514a:	d12f      	bne.n	80051ac <_svfprintf_r+0xe24>
 800514c:	f108 0301 	add.w	r3, r8, #1
 8005150:	e884 0048 	stmia.w	r4, {r3, r6}
 8005154:	9b23      	ldr	r3, [sp, #140]	; 0x8c
 8005156:	9a07      	ldr	r2, [sp, #28]
 8005158:	3b01      	subs	r3, #1
 800515a:	4413      	add	r3, r2
 800515c:	9323      	str	r3, [sp, #140]	; 0x8c
 800515e:	9b22      	ldr	r3, [sp, #136]	; 0x88
 8005160:	3301      	adds	r3, #1
 8005162:	2b07      	cmp	r3, #7
 8005164:	9322      	str	r3, [sp, #136]	; 0x88
 8005166:	dd4a      	ble.n	80051fe <_svfprintf_r+0xe76>
 8005168:	aa21      	add	r2, sp, #132	; 0x84
 800516a:	4649      	mov	r1, r9
 800516c:	4650      	mov	r0, sl
 800516e:	f003 fbd6 	bl	800891e <__ssprint_r>
 8005172:	2800      	cmp	r0, #0
 8005174:	d165      	bne.n	8005242 <_svfprintf_r+0xeba>
 8005176:	ac2e      	add	r4, sp, #184	; 0xb8
 8005178:	ab1d      	add	r3, sp, #116	; 0x74
 800517a:	6023      	str	r3, [r4, #0]
 800517c:	9b14      	ldr	r3, [sp, #80]	; 0x50
 800517e:	9a14      	ldr	r2, [sp, #80]	; 0x50
 8005180:	6063      	str	r3, [r4, #4]
 8005182:	9b23      	ldr	r3, [sp, #140]	; 0x8c
 8005184:	4413      	add	r3, r2
 8005186:	e41c      	b.n	80049c2 <_svfprintf_r+0x63a>
 8005188:	aa21      	add	r2, sp, #132	; 0x84
 800518a:	4649      	mov	r1, r9
 800518c:	4650      	mov	r0, sl
 800518e:	f003 fbc6 	bl	800891e <__ssprint_r>
 8005192:	2800      	cmp	r0, #0
 8005194:	d155      	bne.n	8005242 <_svfprintf_r+0xeba>
 8005196:	ac2e      	add	r4, sp, #184	; 0xb8
 8005198:	e7c0      	b.n	800511c <_svfprintf_r+0xd94>
 800519a:	aa21      	add	r2, sp, #132	; 0x84
 800519c:	4649      	mov	r1, r9
 800519e:	4650      	mov	r0, sl
 80051a0:	f003 fbbd 	bl	800891e <__ssprint_r>
 80051a4:	2800      	cmp	r0, #0
 80051a6:	d14c      	bne.n	8005242 <_svfprintf_r+0xeba>
 80051a8:	ac2e      	add	r4, sp, #184	; 0xb8
 80051aa:	e7c5      	b.n	8005138 <_svfprintf_r+0xdb0>
 80051ac:	2e00      	cmp	r6, #0
 80051ae:	dde3      	ble.n	8005178 <_svfprintf_r+0xdf0>
 80051b0:	f04f 0810 	mov.w	r8, #16
 80051b4:	4f58      	ldr	r7, [pc, #352]	; (8005318 <_svfprintf_r+0xf90>)
 80051b6:	2e10      	cmp	r6, #16
 80051b8:	6027      	str	r7, [r4, #0]
 80051ba:	dc04      	bgt.n	80051c6 <_svfprintf_r+0xe3e>
 80051bc:	9b23      	ldr	r3, [sp, #140]	; 0x8c
 80051be:	6066      	str	r6, [r4, #4]
 80051c0:	441e      	add	r6, r3
 80051c2:	9623      	str	r6, [sp, #140]	; 0x8c
 80051c4:	e7cb      	b.n	800515e <_svfprintf_r+0xdd6>
 80051c6:	9b23      	ldr	r3, [sp, #140]	; 0x8c
 80051c8:	f8c4 8004 	str.w	r8, [r4, #4]
 80051cc:	3310      	adds	r3, #16
 80051ce:	9323      	str	r3, [sp, #140]	; 0x8c
 80051d0:	9b22      	ldr	r3, [sp, #136]	; 0x88
 80051d2:	3301      	adds	r3, #1
 80051d4:	2b07      	cmp	r3, #7
 80051d6:	9322      	str	r3, [sp, #136]	; 0x88
 80051d8:	dc02      	bgt.n	80051e0 <_svfprintf_r+0xe58>
 80051da:	3408      	adds	r4, #8
 80051dc:	3e10      	subs	r6, #16
 80051de:	e7ea      	b.n	80051b6 <_svfprintf_r+0xe2e>
 80051e0:	aa21      	add	r2, sp, #132	; 0x84
 80051e2:	4649      	mov	r1, r9
 80051e4:	4650      	mov	r0, sl
 80051e6:	f003 fb9a 	bl	800891e <__ssprint_r>
 80051ea:	bb50      	cbnz	r0, 8005242 <_svfprintf_r+0xeba>
 80051ec:	ac2e      	add	r4, sp, #184	; 0xb8
 80051ee:	e7f5      	b.n	80051dc <_svfprintf_r+0xe54>
 80051f0:	2301      	movs	r3, #1
 80051f2:	6063      	str	r3, [r4, #4]
 80051f4:	9b23      	ldr	r3, [sp, #140]	; 0x8c
 80051f6:	f8c4 8000 	str.w	r8, [r4]
 80051fa:	3301      	adds	r3, #1
 80051fc:	e7ae      	b.n	800515c <_svfprintf_r+0xdd4>
 80051fe:	3408      	adds	r4, #8
 8005200:	e7ba      	b.n	8005178 <_svfprintf_r+0xdf0>
 8005202:	3408      	adds	r4, #8
 8005204:	f7ff bbed 	b.w	80049e2 <_svfprintf_r+0x65a>
 8005208:	9b0c      	ldr	r3, [sp, #48]	; 0x30
 800520a:	9a0f      	ldr	r2, [sp, #60]	; 0x3c
 800520c:	1a9d      	subs	r5, r3, r2
 800520e:	2d00      	cmp	r5, #0
 8005210:	f77f abea 	ble.w	80049e8 <_svfprintf_r+0x660>
 8005214:	2610      	movs	r6, #16
 8005216:	4b41      	ldr	r3, [pc, #260]	; (800531c <_svfprintf_r+0xf94>)
 8005218:	2d10      	cmp	r5, #16
 800521a:	6023      	str	r3, [r4, #0]
 800521c:	dc1b      	bgt.n	8005256 <_svfprintf_r+0xece>
 800521e:	9b23      	ldr	r3, [sp, #140]	; 0x8c
 8005220:	6065      	str	r5, [r4, #4]
 8005222:	441d      	add	r5, r3
 8005224:	9b22      	ldr	r3, [sp, #136]	; 0x88
 8005226:	9523      	str	r5, [sp, #140]	; 0x8c
 8005228:	3301      	adds	r3, #1
 800522a:	2b07      	cmp	r3, #7
 800522c:	9322      	str	r3, [sp, #136]	; 0x88
 800522e:	f77f abdb 	ble.w	80049e8 <_svfprintf_r+0x660>
 8005232:	aa21      	add	r2, sp, #132	; 0x84
 8005234:	4649      	mov	r1, r9
 8005236:	4650      	mov	r0, sl
 8005238:	f003 fb71 	bl	800891e <__ssprint_r>
 800523c:	2800      	cmp	r0, #0
 800523e:	f43f abd3 	beq.w	80049e8 <_svfprintf_r+0x660>
 8005242:	f8b9 300c 	ldrh.w	r3, [r9, #12]
 8005246:	f013 0f40 	tst.w	r3, #64	; 0x40
 800524a:	9b0b      	ldr	r3, [sp, #44]	; 0x2c
 800524c:	bf18      	it	ne
 800524e:	f04f 33ff 	movne.w	r3, #4294967295
 8005252:	f7ff b8bd 	b.w	80043d0 <_svfprintf_r+0x48>
 8005256:	9b23      	ldr	r3, [sp, #140]	; 0x8c
 8005258:	6066      	str	r6, [r4, #4]
 800525a:	3310      	adds	r3, #16
 800525c:	9323      	str	r3, [sp, #140]	; 0x8c
 800525e:	9b22      	ldr	r3, [sp, #136]	; 0x88
 8005260:	3301      	adds	r3, #1
 8005262:	2b07      	cmp	r3, #7
 8005264:	9322      	str	r3, [sp, #136]	; 0x88
 8005266:	dc02      	bgt.n	800526e <_svfprintf_r+0xee6>
 8005268:	3408      	adds	r4, #8
 800526a:	3d10      	subs	r5, #16
 800526c:	e7d3      	b.n	8005216 <_svfprintf_r+0xe8e>
 800526e:	aa21      	add	r2, sp, #132	; 0x84
 8005270:	4649      	mov	r1, r9
 8005272:	4650      	mov	r0, sl
 8005274:	f003 fb53 	bl	800891e <__ssprint_r>
 8005278:	2800      	cmp	r0, #0
 800527a:	d1e2      	bne.n	8005242 <_svfprintf_r+0xeba>
 800527c:	ac2e      	add	r4, sp, #184	; 0xb8
 800527e:	e7f4      	b.n	800526a <_svfprintf_r+0xee2>
 8005280:	9b23      	ldr	r3, [sp, #140]	; 0x8c
 8005282:	2b00      	cmp	r3, #0
 8005284:	d0dd      	beq.n	8005242 <_svfprintf_r+0xeba>
 8005286:	aa21      	add	r2, sp, #132	; 0x84
 8005288:	4649      	mov	r1, r9
 800528a:	4650      	mov	r0, sl
 800528c:	f003 fb47 	bl	800891e <__ssprint_r>
 8005290:	e7d7      	b.n	8005242 <_svfprintf_r+0xeba>
 8005292:	9a0d      	ldr	r2, [sp, #52]	; 0x34
 8005294:	9b0e      	ldr	r3, [sp, #56]	; 0x38
 8005296:	980d      	ldr	r0, [sp, #52]	; 0x34
 8005298:	990e      	ldr	r1, [sp, #56]	; 0x38
 800529a:	f7fb fc1f 	bl	8000adc <__aeabi_dcmpun>
 800529e:	2800      	cmp	r0, #0
 80052a0:	f43f aa3d 	beq.w	800471e <_svfprintf_r+0x396>
 80052a4:	4b1e      	ldr	r3, [pc, #120]	; (8005320 <_svfprintf_r+0xf98>)
 80052a6:	4a1f      	ldr	r2, [pc, #124]	; (8005324 <_svfprintf_r+0xf9c>)
 80052a8:	f7ff ba2d 	b.w	8004706 <_svfprintf_r+0x37e>
 80052ac:	9b1f      	ldr	r3, [sp, #124]	; 0x7c
 80052ae:	eba3 0308 	sub.w	r3, r3, r8
 80052b2:	9307      	str	r3, [sp, #28]
 80052b4:	f7ff baaf 	b.w	8004816 <_svfprintf_r+0x48e>
 80052b8:	ea56 0207 	orrs.w	r2, r6, r7
 80052bc:	950f      	str	r5, [sp, #60]	; 0x3c
 80052be:	f43f ac2b 	beq.w	8004b18 <_svfprintf_r+0x790>
 80052c2:	2b01      	cmp	r3, #1
 80052c4:	f43f ac9d 	beq.w	8004c02 <_svfprintf_r+0x87a>
 80052c8:	2b02      	cmp	r3, #2
 80052ca:	f43f acbd 	beq.w	8004c48 <_svfprintf_r+0x8c0>
 80052ce:	ab2e      	add	r3, sp, #184	; 0xb8
 80052d0:	08f1      	lsrs	r1, r6, #3
 80052d2:	ea41 7147 	orr.w	r1, r1, r7, lsl #29
 80052d6:	08f8      	lsrs	r0, r7, #3
 80052d8:	f006 0207 	and.w	r2, r6, #7
 80052dc:	4607      	mov	r7, r0
 80052de:	460e      	mov	r6, r1
 80052e0:	3230      	adds	r2, #48	; 0x30
 80052e2:	ea56 0107 	orrs.w	r1, r6, r7
 80052e6:	f103 38ff 	add.w	r8, r3, #4294967295
 80052ea:	f803 2c01 	strb.w	r2, [r3, #-1]
 80052ee:	f47f ac86 	bne.w	8004bfe <_svfprintf_r+0x876>
 80052f2:	990f      	ldr	r1, [sp, #60]	; 0x3c
 80052f4:	07c9      	lsls	r1, r1, #31
 80052f6:	d506      	bpl.n	8005306 <_svfprintf_r+0xf7e>
 80052f8:	2a30      	cmp	r2, #48	; 0x30
 80052fa:	d004      	beq.n	8005306 <_svfprintf_r+0xf7e>
 80052fc:	2230      	movs	r2, #48	; 0x30
 80052fe:	f808 2c01 	strb.w	r2, [r8, #-1]
 8005302:	f1a3 0802 	sub.w	r8, r3, #2
 8005306:	ab2e      	add	r3, sp, #184	; 0xb8
 8005308:	465e      	mov	r6, fp
 800530a:	9d0f      	ldr	r5, [sp, #60]	; 0x3c
 800530c:	eba3 0b08 	sub.w	fp, r3, r8
 8005310:	2700      	movs	r7, #0
 8005312:	f7ff bace 	b.w	80048b2 <_svfprintf_r+0x52a>
 8005316:	bf00      	nop
 8005318:	08009333 	.word	0x08009333
 800531c:	08009323 	.word	0x08009323
 8005320:	080092f9 	.word	0x080092f9
 8005324:	080092fd 	.word	0x080092fd

08005328 <_vfprintf_r>:
 8005328:	e92d 4ff0 	stmdb	sp!, {r4, r5, r6, r7, r8, r9, sl, fp, lr}
 800532c:	b0bf      	sub	sp, #252	; 0xfc
 800532e:	460d      	mov	r5, r1
 8005330:	4616      	mov	r6, r2
 8005332:	461c      	mov	r4, r3
 8005334:	461f      	mov	r7, r3
 8005336:	4681      	mov	r9, r0
 8005338:	f002 fb72 	bl	8007a20 <_localeconv_r>
 800533c:	6803      	ldr	r3, [r0, #0]
 800533e:	4618      	mov	r0, r3
 8005340:	9311      	str	r3, [sp, #68]	; 0x44
 8005342:	f7fa ff71 	bl	8000228 <strlen>
 8005346:	900b      	str	r0, [sp, #44]	; 0x2c
 8005348:	f1b9 0f00 	cmp.w	r9, #0
 800534c:	d005      	beq.n	800535a <_vfprintf_r+0x32>
 800534e:	f8d9 3018 	ldr.w	r3, [r9, #24]
 8005352:	b913      	cbnz	r3, 800535a <_vfprintf_r+0x32>
 8005354:	4648      	mov	r0, r9
 8005356:	f002 f851 	bl	80073fc <__sinit>
 800535a:	4b8f      	ldr	r3, [pc, #572]	; (8005598 <_vfprintf_r+0x270>)
 800535c:	429d      	cmp	r5, r3
 800535e:	d12c      	bne.n	80053ba <_vfprintf_r+0x92>
 8005360:	f8d9 5004 	ldr.w	r5, [r9, #4]
 8005364:	6e6b      	ldr	r3, [r5, #100]	; 0x64
 8005366:	07d8      	lsls	r0, r3, #31
 8005368:	d405      	bmi.n	8005376 <_vfprintf_r+0x4e>
 800536a:	89ab      	ldrh	r3, [r5, #12]
 800536c:	0599      	lsls	r1, r3, #22
 800536e:	d402      	bmi.n	8005376 <_vfprintf_r+0x4e>
 8005370:	6da8      	ldr	r0, [r5, #88]	; 0x58
 8005372:	f002 fb65 	bl	8007a40 <__retarget_lock_acquire_recursive>
 8005376:	f9b5 300c 	ldrsh.w	r3, [r5, #12]
 800537a:	049a      	lsls	r2, r3, #18
 800537c:	d406      	bmi.n	800538c <_vfprintf_r+0x64>
 800537e:	f443 5300 	orr.w	r3, r3, #8192	; 0x2000
 8005382:	81ab      	strh	r3, [r5, #12]
 8005384:	6e6b      	ldr	r3, [r5, #100]	; 0x64
 8005386:	f423 5300 	bic.w	r3, r3, #8192	; 0x2000
 800538a:	666b      	str	r3, [r5, #100]	; 0x64
 800538c:	89ab      	ldrh	r3, [r5, #12]
 800538e:	071b      	lsls	r3, r3, #28
 8005390:	d501      	bpl.n	8005396 <_vfprintf_r+0x6e>
 8005392:	692b      	ldr	r3, [r5, #16]
 8005394:	b9eb      	cbnz	r3, 80053d2 <_vfprintf_r+0xaa>
 8005396:	4629      	mov	r1, r5
 8005398:	4648      	mov	r0, r9
 800539a:	f001 f83b 	bl	8006414 <__swsetup_r>
 800539e:	b1c0      	cbz	r0, 80053d2 <_vfprintf_r+0xaa>
 80053a0:	6e6b      	ldr	r3, [r5, #100]	; 0x64
 80053a2:	07d8      	lsls	r0, r3, #31
 80053a4:	d405      	bmi.n	80053b2 <_vfprintf_r+0x8a>
 80053a6:	89ab      	ldrh	r3, [r5, #12]
 80053a8:	0599      	lsls	r1, r3, #22
 80053aa:	d402      	bmi.n	80053b2 <_vfprintf_r+0x8a>
 80053ac:	6da8      	ldr	r0, [r5, #88]	; 0x58
 80053ae:	f002 fb48 	bl	8007a42 <__retarget_lock_release_recursive>
 80053b2:	f04f 33ff 	mov.w	r3, #4294967295
 80053b6:	930c      	str	r3, [sp, #48]	; 0x30
 80053b8:	e023      	b.n	8005402 <_vfprintf_r+0xda>
 80053ba:	4b78      	ldr	r3, [pc, #480]	; (800559c <_vfprintf_r+0x274>)
 80053bc:	429d      	cmp	r5, r3
 80053be:	d102      	bne.n	80053c6 <_vfprintf_r+0x9e>
 80053c0:	f8d9 5008 	ldr.w	r5, [r9, #8]
 80053c4:	e7ce      	b.n	8005364 <_vfprintf_r+0x3c>
 80053c6:	4b76      	ldr	r3, [pc, #472]	; (80055a0 <_vfprintf_r+0x278>)
 80053c8:	429d      	cmp	r5, r3
 80053ca:	bf08      	it	eq
 80053cc:	f8d9 500c 	ldreq.w	r5, [r9, #12]
 80053d0:	e7c8      	b.n	8005364 <_vfprintf_r+0x3c>
 80053d2:	89ab      	ldrh	r3, [r5, #12]
 80053d4:	f003 021a 	and.w	r2, r3, #26
 80053d8:	2a0a      	cmp	r2, #10
 80053da:	d116      	bne.n	800540a <_vfprintf_r+0xe2>
 80053dc:	f9b5 200e 	ldrsh.w	r2, [r5, #14]
 80053e0:	2a00      	cmp	r2, #0
 80053e2:	db12      	blt.n	800540a <_vfprintf_r+0xe2>
 80053e4:	6e6a      	ldr	r2, [r5, #100]	; 0x64
 80053e6:	07d2      	lsls	r2, r2, #31
 80053e8:	d404      	bmi.n	80053f4 <_vfprintf_r+0xcc>
 80053ea:	059f      	lsls	r7, r3, #22
 80053ec:	d402      	bmi.n	80053f4 <_vfprintf_r+0xcc>
 80053ee:	6da8      	ldr	r0, [r5, #88]	; 0x58
 80053f0:	f002 fb27 	bl	8007a42 <__retarget_lock_release_recursive>
 80053f4:	4623      	mov	r3, r4
 80053f6:	4632      	mov	r2, r6
 80053f8:	4629      	mov	r1, r5
 80053fa:	4648      	mov	r0, r9
 80053fc:	f000 ffca 	bl	8006394 <__sbprintf>
 8005400:	900c      	str	r0, [sp, #48]	; 0x30
 8005402:	980c      	ldr	r0, [sp, #48]	; 0x30
 8005404:	b03f      	add	sp, #252	; 0xfc
 8005406:	e8bd 8ff0 	ldmia.w	sp!, {r4, r5, r6, r7, r8, r9, sl, fp, pc}
 800540a:	2300      	movs	r3, #0
 800540c:	ac2e      	add	r4, sp, #184	; 0xb8
 800540e:	9421      	str	r4, [sp, #132]	; 0x84
 8005410:	9323      	str	r3, [sp, #140]	; 0x8c
 8005412:	9322      	str	r3, [sp, #136]	; 0x88
 8005414:	9609      	str	r6, [sp, #36]	; 0x24
 8005416:	9307      	str	r3, [sp, #28]
 8005418:	930e      	str	r3, [sp, #56]	; 0x38
 800541a:	930f      	str	r3, [sp, #60]	; 0x3c
 800541c:	9315      	str	r3, [sp, #84]	; 0x54
 800541e:	9314      	str	r3, [sp, #80]	; 0x50
 8005420:	930c      	str	r3, [sp, #48]	; 0x30
 8005422:	9312      	str	r3, [sp, #72]	; 0x48
 8005424:	9313      	str	r3, [sp, #76]	; 0x4c
 8005426:	9e09      	ldr	r6, [sp, #36]	; 0x24
 8005428:	4633      	mov	r3, r6
 800542a:	f813 2b01 	ldrb.w	r2, [r3], #1
 800542e:	b112      	cbz	r2, 8005436 <_vfprintf_r+0x10e>
 8005430:	2a25      	cmp	r2, #37	; 0x25
 8005432:	f040 8084 	bne.w	800553e <_vfprintf_r+0x216>
 8005436:	9b09      	ldr	r3, [sp, #36]	; 0x24
 8005438:	ebb6 0803 	subs.w	r8, r6, r3
 800543c:	d00d      	beq.n	800545a <_vfprintf_r+0x132>
 800543e:	e884 0108 	stmia.w	r4, {r3, r8}
 8005442:	9b23      	ldr	r3, [sp, #140]	; 0x8c
 8005444:	4443      	add	r3, r8
 8005446:	9323      	str	r3, [sp, #140]	; 0x8c
 8005448:	9b22      	ldr	r3, [sp, #136]	; 0x88
 800544a:	3301      	adds	r3, #1
 800544c:	2b07      	cmp	r3, #7
 800544e:	9322      	str	r3, [sp, #136]	; 0x88
 8005450:	dc77      	bgt.n	8005542 <_vfprintf_r+0x21a>
 8005452:	3408      	adds	r4, #8
 8005454:	9b0c      	ldr	r3, [sp, #48]	; 0x30
 8005456:	4443      	add	r3, r8
 8005458:	930c      	str	r3, [sp, #48]	; 0x30
 800545a:	7833      	ldrb	r3, [r6, #0]
 800545c:	2b00      	cmp	r3, #0
 800545e:	f000 873f 	beq.w	80062e0 <_vfprintf_r+0xfb8>
 8005462:	2300      	movs	r3, #0
 8005464:	f04f 3bff 	mov.w	fp, #4294967295
 8005468:	461a      	mov	r2, r3
 800546a:	469a      	mov	sl, r3
 800546c:	200a      	movs	r0, #10
 800546e:	3601      	adds	r6, #1
 8005470:	f88d 3067 	strb.w	r3, [sp, #103]	; 0x67
 8005474:	930d      	str	r3, [sp, #52]	; 0x34
 8005476:	1c71      	adds	r1, r6, #1
 8005478:	9109      	str	r1, [sp, #36]	; 0x24
 800547a:	7831      	ldrb	r1, [r6, #0]
 800547c:	9106      	str	r1, [sp, #24]
 800547e:	9906      	ldr	r1, [sp, #24]
 8005480:	3920      	subs	r1, #32
 8005482:	2958      	cmp	r1, #88	; 0x58
 8005484:	f200 8424 	bhi.w	8005cd0 <_vfprintf_r+0x9a8>
 8005488:	e8df f011 	tbh	[pc, r1, lsl #1]
 800548c:	042200ae 	.word	0x042200ae
 8005490:	00b30422 	.word	0x00b30422
 8005494:	04220422 	.word	0x04220422
 8005498:	04220422 	.word	0x04220422
 800549c:	04220422 	.word	0x04220422
 80054a0:	006500b6 	.word	0x006500b6
 80054a4:	00be0422 	.word	0x00be0422
 80054a8:	042200c1 	.word	0x042200c1
 80054ac:	00e100de 	.word	0x00e100de
 80054b0:	00e100e1 	.word	0x00e100e1
 80054b4:	00e100e1 	.word	0x00e100e1
 80054b8:	00e100e1 	.word	0x00e100e1
 80054bc:	00e100e1 	.word	0x00e100e1
 80054c0:	04220422 	.word	0x04220422
 80054c4:	04220422 	.word	0x04220422
 80054c8:	04220422 	.word	0x04220422
 80054cc:	04220422 	.word	0x04220422
 80054d0:	04220422 	.word	0x04220422
 80054d4:	012b0115 	.word	0x012b0115
 80054d8:	012b0422 	.word	0x012b0422
 80054dc:	04220422 	.word	0x04220422
 80054e0:	04220422 	.word	0x04220422
 80054e4:	042200f4 	.word	0x042200f4
 80054e8:	03490422 	.word	0x03490422
 80054ec:	04220422 	.word	0x04220422
 80054f0:	04220422 	.word	0x04220422
 80054f4:	03b00422 	.word	0x03b00422
 80054f8:	04220422 	.word	0x04220422
 80054fc:	0422008c 	.word	0x0422008c
 8005500:	04220422 	.word	0x04220422
 8005504:	04220422 	.word	0x04220422
 8005508:	04220422 	.word	0x04220422
 800550c:	04220422 	.word	0x04220422
 8005510:	01070422 	.word	0x01070422
 8005514:	012b006b 	.word	0x012b006b
 8005518:	012b012b 	.word	0x012b012b
 800551c:	006b00f7 	.word	0x006b00f7
 8005520:	04220422 	.word	0x04220422
 8005524:	042200fa 	.word	0x042200fa
 8005528:	034b0329 	.word	0x034b0329
 800552c:	0101037f 	.word	0x0101037f
 8005530:	03900422 	.word	0x03900422
 8005534:	03b20422 	.word	0x03b20422
 8005538:	04220422 	.word	0x04220422
 800553c:	03cc      	.short	0x03cc
 800553e:	461e      	mov	r6, r3
 8005540:	e772      	b.n	8005428 <_vfprintf_r+0x100>
 8005542:	aa21      	add	r2, sp, #132	; 0x84
 8005544:	4629      	mov	r1, r5
 8005546:	4648      	mov	r0, r9
 8005548:	f003 fa63 	bl	8008a12 <__sprint_r>
 800554c:	2800      	cmp	r0, #0
 800554e:	f040 86a3 	bne.w	8006298 <_vfprintf_r+0xf70>
 8005552:	ac2e      	add	r4, sp, #184	; 0xb8
 8005554:	e77e      	b.n	8005454 <_vfprintf_r+0x12c>
 8005556:	2301      	movs	r3, #1
 8005558:	222b      	movs	r2, #43	; 0x2b
 800555a:	9e09      	ldr	r6, [sp, #36]	; 0x24
 800555c:	e78b      	b.n	8005476 <_vfprintf_r+0x14e>
 800555e:	460f      	mov	r7, r1
 8005560:	e7fb      	b.n	800555a <_vfprintf_r+0x232>
 8005562:	b10b      	cbz	r3, 8005568 <_vfprintf_r+0x240>
 8005564:	f88d 2067 	strb.w	r2, [sp, #103]	; 0x67
 8005568:	f01a 0f20 	tst.w	sl, #32
 800556c:	f000 80a9 	beq.w	80056c2 <_vfprintf_r+0x39a>
 8005570:	3707      	adds	r7, #7
 8005572:	f027 0707 	bic.w	r7, r7, #7
 8005576:	f107 0308 	add.w	r3, r7, #8
 800557a:	9308      	str	r3, [sp, #32]
 800557c:	e9d7 6700 	ldrd	r6, r7, [r7]
 8005580:	2e00      	cmp	r6, #0
 8005582:	f177 0300 	sbcs.w	r3, r7, #0
 8005586:	da05      	bge.n	8005594 <_vfprintf_r+0x26c>
 8005588:	232d      	movs	r3, #45	; 0x2d
 800558a:	4276      	negs	r6, r6
 800558c:	eb67 0747 	sbc.w	r7, r7, r7, lsl #1
 8005590:	f88d 3067 	strb.w	r3, [sp, #103]	; 0x67
 8005594:	2301      	movs	r3, #1
 8005596:	e2d3      	b.n	8005b40 <_vfprintf_r+0x818>
 8005598:	08009390 	.word	0x08009390
 800559c:	080093b0 	.word	0x080093b0
 80055a0:	08009370 	.word	0x08009370
 80055a4:	b10b      	cbz	r3, 80055aa <_vfprintf_r+0x282>
 80055a6:	f88d 2067 	strb.w	r2, [sp, #103]	; 0x67
 80055aa:	4ba2      	ldr	r3, [pc, #648]	; (8005834 <_vfprintf_r+0x50c>)
 80055ac:	f01a 0f20 	tst.w	sl, #32
 80055b0:	9315      	str	r3, [sp, #84]	; 0x54
 80055b2:	f000 833c 	beq.w	8005c2e <_vfprintf_r+0x906>
 80055b6:	3707      	adds	r7, #7
 80055b8:	f027 0707 	bic.w	r7, r7, #7
 80055bc:	f107 0308 	add.w	r3, r7, #8
 80055c0:	9308      	str	r3, [sp, #32]
 80055c2:	e9d7 6700 	ldrd	r6, r7, [r7]
 80055c6:	f01a 0f01 	tst.w	sl, #1
 80055ca:	d00b      	beq.n	80055e4 <_vfprintf_r+0x2bc>
 80055cc:	ea56 0307 	orrs.w	r3, r6, r7
 80055d0:	d008      	beq.n	80055e4 <_vfprintf_r+0x2bc>
 80055d2:	2330      	movs	r3, #48	; 0x30
 80055d4:	f88d 3068 	strb.w	r3, [sp, #104]	; 0x68
 80055d8:	f89d 3018 	ldrb.w	r3, [sp, #24]
 80055dc:	f04a 0a02 	orr.w	sl, sl, #2
 80055e0:	f88d 3069 	strb.w	r3, [sp, #105]	; 0x69
 80055e4:	2302      	movs	r3, #2
 80055e6:	e2a8      	b.n	8005b3a <_vfprintf_r+0x812>
 80055e8:	2a00      	cmp	r2, #0
 80055ea:	d1b6      	bne.n	800555a <_vfprintf_r+0x232>
 80055ec:	2301      	movs	r3, #1
 80055ee:	2220      	movs	r2, #32
 80055f0:	e7b3      	b.n	800555a <_vfprintf_r+0x232>
 80055f2:	f04a 0a01 	orr.w	sl, sl, #1
 80055f6:	e7b0      	b.n	800555a <_vfprintf_r+0x232>
 80055f8:	683e      	ldr	r6, [r7, #0]
 80055fa:	1d39      	adds	r1, r7, #4
 80055fc:	2e00      	cmp	r6, #0
 80055fe:	960d      	str	r6, [sp, #52]	; 0x34
 8005600:	daad      	bge.n	800555e <_vfprintf_r+0x236>
 8005602:	460f      	mov	r7, r1
 8005604:	4276      	negs	r6, r6
 8005606:	960d      	str	r6, [sp, #52]	; 0x34
 8005608:	f04a 0a04 	orr.w	sl, sl, #4
 800560c:	e7a5      	b.n	800555a <_vfprintf_r+0x232>
 800560e:	9909      	ldr	r1, [sp, #36]	; 0x24
 8005610:	1c4e      	adds	r6, r1, #1
 8005612:	7809      	ldrb	r1, [r1, #0]
 8005614:	292a      	cmp	r1, #42	; 0x2a
 8005616:	9106      	str	r1, [sp, #24]
 8005618:	d010      	beq.n	800563c <_vfprintf_r+0x314>
 800561a:	f04f 0b00 	mov.w	fp, #0
 800561e:	9609      	str	r6, [sp, #36]	; 0x24
 8005620:	9906      	ldr	r1, [sp, #24]
 8005622:	3930      	subs	r1, #48	; 0x30
 8005624:	2909      	cmp	r1, #9
 8005626:	f63f af2a 	bhi.w	800547e <_vfprintf_r+0x156>
 800562a:	fb00 1b0b 	mla	fp, r0, fp, r1
 800562e:	9909      	ldr	r1, [sp, #36]	; 0x24
 8005630:	460e      	mov	r6, r1
 8005632:	f816 1b01 	ldrb.w	r1, [r6], #1
 8005636:	9106      	str	r1, [sp, #24]
 8005638:	9609      	str	r6, [sp, #36]	; 0x24
 800563a:	e7f1      	b.n	8005620 <_vfprintf_r+0x2f8>
 800563c:	6839      	ldr	r1, [r7, #0]
 800563e:	9609      	str	r6, [sp, #36]	; 0x24
 8005640:	ea41 7be1 	orr.w	fp, r1, r1, asr #31
 8005644:	3704      	adds	r7, #4
 8005646:	e788      	b.n	800555a <_vfprintf_r+0x232>
 8005648:	f04a 0a80 	orr.w	sl, sl, #128	; 0x80
 800564c:	e785      	b.n	800555a <_vfprintf_r+0x232>
 800564e:	2100      	movs	r1, #0
 8005650:	910d      	str	r1, [sp, #52]	; 0x34
 8005652:	9906      	ldr	r1, [sp, #24]
 8005654:	9e0d      	ldr	r6, [sp, #52]	; 0x34
 8005656:	3930      	subs	r1, #48	; 0x30
 8005658:	fb00 1106 	mla	r1, r0, r6, r1
 800565c:	910d      	str	r1, [sp, #52]	; 0x34
 800565e:	9909      	ldr	r1, [sp, #36]	; 0x24
 8005660:	460e      	mov	r6, r1
 8005662:	f816 1b01 	ldrb.w	r1, [r6], #1
 8005666:	9106      	str	r1, [sp, #24]
 8005668:	9906      	ldr	r1, [sp, #24]
 800566a:	9609      	str	r6, [sp, #36]	; 0x24
 800566c:	3930      	subs	r1, #48	; 0x30
 800566e:	2909      	cmp	r1, #9
 8005670:	d9ef      	bls.n	8005652 <_vfprintf_r+0x32a>
 8005672:	e704      	b.n	800547e <_vfprintf_r+0x156>
 8005674:	f04a 0a08 	orr.w	sl, sl, #8
 8005678:	e76f      	b.n	800555a <_vfprintf_r+0x232>
 800567a:	f04a 0a40 	orr.w	sl, sl, #64	; 0x40
 800567e:	e76c      	b.n	800555a <_vfprintf_r+0x232>
 8005680:	9909      	ldr	r1, [sp, #36]	; 0x24
 8005682:	7809      	ldrb	r1, [r1, #0]
 8005684:	296c      	cmp	r1, #108	; 0x6c
 8005686:	d105      	bne.n	8005694 <_vfprintf_r+0x36c>
 8005688:	9909      	ldr	r1, [sp, #36]	; 0x24
 800568a:	3101      	adds	r1, #1
 800568c:	9109      	str	r1, [sp, #36]	; 0x24
 800568e:	f04a 0a20 	orr.w	sl, sl, #32
 8005692:	e762      	b.n	800555a <_vfprintf_r+0x232>
 8005694:	f04a 0a10 	orr.w	sl, sl, #16
 8005698:	e75f      	b.n	800555a <_vfprintf_r+0x232>
 800569a:	2600      	movs	r6, #0
 800569c:	1d3b      	adds	r3, r7, #4
 800569e:	9308      	str	r3, [sp, #32]
 80056a0:	683b      	ldr	r3, [r7, #0]
 80056a2:	f88d 6067 	strb.w	r6, [sp, #103]	; 0x67
 80056a6:	f88d 3090 	strb.w	r3, [sp, #144]	; 0x90
 80056aa:	f04f 0b01 	mov.w	fp, #1
 80056ae:	960a      	str	r6, [sp, #40]	; 0x28
 80056b0:	f10d 0890 	add.w	r8, sp, #144	; 0x90
 80056b4:	e120      	b.n	80058f8 <_vfprintf_r+0x5d0>
 80056b6:	b10b      	cbz	r3, 80056bc <_vfprintf_r+0x394>
 80056b8:	f88d 2067 	strb.w	r2, [sp, #103]	; 0x67
 80056bc:	f04a 0a10 	orr.w	sl, sl, #16
 80056c0:	e752      	b.n	8005568 <_vfprintf_r+0x240>
 80056c2:	f01a 0f10 	tst.w	sl, #16
 80056c6:	f107 0304 	add.w	r3, r7, #4
 80056ca:	d003      	beq.n	80056d4 <_vfprintf_r+0x3ac>
 80056cc:	683e      	ldr	r6, [r7, #0]
 80056ce:	9308      	str	r3, [sp, #32]
 80056d0:	17f7      	asrs	r7, r6, #31
 80056d2:	e755      	b.n	8005580 <_vfprintf_r+0x258>
 80056d4:	683e      	ldr	r6, [r7, #0]
 80056d6:	f01a 0f40 	tst.w	sl, #64	; 0x40
 80056da:	9308      	str	r3, [sp, #32]
 80056dc:	bf18      	it	ne
 80056de:	b236      	sxthne	r6, r6
 80056e0:	e7f6      	b.n	80056d0 <_vfprintf_r+0x3a8>
 80056e2:	b10b      	cbz	r3, 80056e8 <_vfprintf_r+0x3c0>
 80056e4:	f88d 2067 	strb.w	r2, [sp, #103]	; 0x67
 80056e8:	3707      	adds	r7, #7
 80056ea:	f027 0707 	bic.w	r7, r7, #7
 80056ee:	f107 0308 	add.w	r3, r7, #8
 80056f2:	9308      	str	r3, [sp, #32]
 80056f4:	683b      	ldr	r3, [r7, #0]
 80056f6:	f04f 32ff 	mov.w	r2, #4294967295
 80056fa:	930e      	str	r3, [sp, #56]	; 0x38
 80056fc:	687b      	ldr	r3, [r7, #4]
 80056fe:	9f0e      	ldr	r7, [sp, #56]	; 0x38
 8005700:	930f      	str	r3, [sp, #60]	; 0x3c
 8005702:	9b0f      	ldr	r3, [sp, #60]	; 0x3c
 8005704:	4638      	mov	r0, r7
 8005706:	f023 4600 	bic.w	r6, r3, #2147483648	; 0x80000000
 800570a:	4631      	mov	r1, r6
 800570c:	4b4a      	ldr	r3, [pc, #296]	; (8005838 <_vfprintf_r+0x510>)
 800570e:	f7fb f9e5 	bl	8000adc <__aeabi_dcmpun>
 8005712:	2800      	cmp	r0, #0
 8005714:	f040 85f1 	bne.w	80062fa <_vfprintf_r+0xfd2>
 8005718:	f04f 32ff 	mov.w	r2, #4294967295
 800571c:	4b46      	ldr	r3, [pc, #280]	; (8005838 <_vfprintf_r+0x510>)
 800571e:	4638      	mov	r0, r7
 8005720:	4631      	mov	r1, r6
 8005722:	f7fb f9bd 	bl	8000aa0 <__aeabi_dcmple>
 8005726:	2800      	cmp	r0, #0
 8005728:	f040 85e7 	bne.w	80062fa <_vfprintf_r+0xfd2>
 800572c:	9a12      	ldr	r2, [sp, #72]	; 0x48
 800572e:	9b13      	ldr	r3, [sp, #76]	; 0x4c
 8005730:	980e      	ldr	r0, [sp, #56]	; 0x38
 8005732:	990f      	ldr	r1, [sp, #60]	; 0x3c
 8005734:	f7fb f9aa 	bl	8000a8c <__aeabi_dcmplt>
 8005738:	b110      	cbz	r0, 8005740 <_vfprintf_r+0x418>
 800573a:	232d      	movs	r3, #45	; 0x2d
 800573c:	f88d 3067 	strb.w	r3, [sp, #103]	; 0x67
 8005740:	4b3e      	ldr	r3, [pc, #248]	; (800583c <_vfprintf_r+0x514>)
 8005742:	4a3f      	ldr	r2, [pc, #252]	; (8005840 <_vfprintf_r+0x518>)
 8005744:	9906      	ldr	r1, [sp, #24]
 8005746:	f04f 0b03 	mov.w	fp, #3
 800574a:	2947      	cmp	r1, #71	; 0x47
 800574c:	bfcc      	ite	gt
 800574e:	4690      	movgt	r8, r2
 8005750:	4698      	movle	r8, r3
 8005752:	2600      	movs	r6, #0
 8005754:	f02a 0a80 	bic.w	sl, sl, #128	; 0x80
 8005758:	960a      	str	r6, [sp, #40]	; 0x28
 800575a:	e0cd      	b.n	80058f8 <_vfprintf_r+0x5d0>
 800575c:	f1bb 3fff 	cmp.w	fp, #4294967295
 8005760:	d026      	beq.n	80057b0 <_vfprintf_r+0x488>
 8005762:	9b06      	ldr	r3, [sp, #24]
 8005764:	f023 0320 	bic.w	r3, r3, #32
 8005768:	2b47      	cmp	r3, #71	; 0x47
 800576a:	d104      	bne.n	8005776 <_vfprintf_r+0x44e>
 800576c:	f1bb 0f00 	cmp.w	fp, #0
 8005770:	bf08      	it	eq
 8005772:	f04f 0b01 	moveq.w	fp, #1
 8005776:	f44a 7380 	orr.w	r3, sl, #256	; 0x100
 800577a:	9317      	str	r3, [sp, #92]	; 0x5c
 800577c:	9b0f      	ldr	r3, [sp, #60]	; 0x3c
 800577e:	1e1f      	subs	r7, r3, #0
 8005780:	9b0e      	ldr	r3, [sp, #56]	; 0x38
 8005782:	bfa8      	it	ge
 8005784:	9710      	strge	r7, [sp, #64]	; 0x40
 8005786:	930a      	str	r3, [sp, #40]	; 0x28
 8005788:	bfbd      	ittte	lt
 800578a:	463b      	movlt	r3, r7
 800578c:	f103 4300 	addlt.w	r3, r3, #2147483648	; 0x80000000
 8005790:	9310      	strlt	r3, [sp, #64]	; 0x40
 8005792:	2300      	movge	r3, #0
 8005794:	bfb8      	it	lt
 8005796:	232d      	movlt	r3, #45	; 0x2d
 8005798:	9316      	str	r3, [sp, #88]	; 0x58
 800579a:	9b06      	ldr	r3, [sp, #24]
 800579c:	f023 0720 	bic.w	r7, r3, #32
 80057a0:	2f46      	cmp	r7, #70	; 0x46
 80057a2:	d008      	beq.n	80057b6 <_vfprintf_r+0x48e>
 80057a4:	2f45      	cmp	r7, #69	; 0x45
 80057a6:	d143      	bne.n	8005830 <_vfprintf_r+0x508>
 80057a8:	f10b 0601 	add.w	r6, fp, #1
 80057ac:	2302      	movs	r3, #2
 80057ae:	e004      	b.n	80057ba <_vfprintf_r+0x492>
 80057b0:	f04f 0b06 	mov.w	fp, #6
 80057b4:	e7df      	b.n	8005776 <_vfprintf_r+0x44e>
 80057b6:	465e      	mov	r6, fp
 80057b8:	2303      	movs	r3, #3
 80057ba:	aa1f      	add	r2, sp, #124	; 0x7c
 80057bc:	9204      	str	r2, [sp, #16]
 80057be:	aa1c      	add	r2, sp, #112	; 0x70
 80057c0:	9203      	str	r2, [sp, #12]
 80057c2:	aa1b      	add	r2, sp, #108	; 0x6c
 80057c4:	9202      	str	r2, [sp, #8]
 80057c6:	e88d 0048 	stmia.w	sp, {r3, r6}
 80057ca:	9a0a      	ldr	r2, [sp, #40]	; 0x28
 80057cc:	9b10      	ldr	r3, [sp, #64]	; 0x40
 80057ce:	4648      	mov	r0, r9
 80057d0:	f000 ff1a 	bl	8006608 <_dtoa_r>
 80057d4:	2f47      	cmp	r7, #71	; 0x47
 80057d6:	4680      	mov	r8, r0
 80057d8:	d103      	bne.n	80057e2 <_vfprintf_r+0x4ba>
 80057da:	f01a 0f01 	tst.w	sl, #1
 80057de:	f000 8599 	beq.w	8006314 <_vfprintf_r+0xfec>
 80057e2:	eb08 0306 	add.w	r3, r8, r6
 80057e6:	2f46      	cmp	r7, #70	; 0x46
 80057e8:	9307      	str	r3, [sp, #28]
 80057ea:	d111      	bne.n	8005810 <_vfprintf_r+0x4e8>
 80057ec:	f898 3000 	ldrb.w	r3, [r8]
 80057f0:	2b30      	cmp	r3, #48	; 0x30
 80057f2:	d109      	bne.n	8005808 <_vfprintf_r+0x4e0>
 80057f4:	9a12      	ldr	r2, [sp, #72]	; 0x48
 80057f6:	9b13      	ldr	r3, [sp, #76]	; 0x4c
 80057f8:	980a      	ldr	r0, [sp, #40]	; 0x28
 80057fa:	9910      	ldr	r1, [sp, #64]	; 0x40
 80057fc:	f7fb f93c 	bl	8000a78 <__aeabi_dcmpeq>
 8005800:	b910      	cbnz	r0, 8005808 <_vfprintf_r+0x4e0>
 8005802:	f1c6 0601 	rsb	r6, r6, #1
 8005806:	961b      	str	r6, [sp, #108]	; 0x6c
 8005808:	9a07      	ldr	r2, [sp, #28]
 800580a:	9b1b      	ldr	r3, [sp, #108]	; 0x6c
 800580c:	441a      	add	r2, r3
 800580e:	9207      	str	r2, [sp, #28]
 8005810:	9a12      	ldr	r2, [sp, #72]	; 0x48
 8005812:	9b13      	ldr	r3, [sp, #76]	; 0x4c
 8005814:	980a      	ldr	r0, [sp, #40]	; 0x28
 8005816:	9910      	ldr	r1, [sp, #64]	; 0x40
 8005818:	f7fb f92e 	bl	8000a78 <__aeabi_dcmpeq>
 800581c:	b990      	cbnz	r0, 8005844 <_vfprintf_r+0x51c>
 800581e:	2230      	movs	r2, #48	; 0x30
 8005820:	9b1f      	ldr	r3, [sp, #124]	; 0x7c
 8005822:	9907      	ldr	r1, [sp, #28]
 8005824:	4299      	cmp	r1, r3
 8005826:	d90f      	bls.n	8005848 <_vfprintf_r+0x520>
 8005828:	1c59      	adds	r1, r3, #1
 800582a:	911f      	str	r1, [sp, #124]	; 0x7c
 800582c:	701a      	strb	r2, [r3, #0]
 800582e:	e7f7      	b.n	8005820 <_vfprintf_r+0x4f8>
 8005830:	465e      	mov	r6, fp
 8005832:	e7bb      	b.n	80057ac <_vfprintf_r+0x484>
 8005834:	08009301 	.word	0x08009301
 8005838:	7fefffff 	.word	0x7fefffff
 800583c:	080092f1 	.word	0x080092f1
 8005840:	080092f5 	.word	0x080092f5
 8005844:	9b07      	ldr	r3, [sp, #28]
 8005846:	931f      	str	r3, [sp, #124]	; 0x7c
 8005848:	9b1f      	ldr	r3, [sp, #124]	; 0x7c
 800584a:	2f47      	cmp	r7, #71	; 0x47
 800584c:	eba3 0308 	sub.w	r3, r3, r8
 8005850:	9307      	str	r3, [sp, #28]
 8005852:	f040 80fd 	bne.w	8005a50 <_vfprintf_r+0x728>
 8005856:	9b1b      	ldr	r3, [sp, #108]	; 0x6c
 8005858:	1cde      	adds	r6, r3, #3
 800585a:	db02      	blt.n	8005862 <_vfprintf_r+0x53a>
 800585c:	459b      	cmp	fp, r3
 800585e:	f280 8126 	bge.w	8005aae <_vfprintf_r+0x786>
 8005862:	9b06      	ldr	r3, [sp, #24]
 8005864:	3b02      	subs	r3, #2
 8005866:	9306      	str	r3, [sp, #24]
 8005868:	9a1b      	ldr	r2, [sp, #108]	; 0x6c
 800586a:	f89d 1018 	ldrb.w	r1, [sp, #24]
 800586e:	1e53      	subs	r3, r2, #1
 8005870:	2b00      	cmp	r3, #0
 8005872:	bfa8      	it	ge
 8005874:	222b      	movge	r2, #43	; 0x2b
 8005876:	931b      	str	r3, [sp, #108]	; 0x6c
 8005878:	bfbc      	itt	lt
 800587a:	f1c2 0301 	rsblt	r3, r2, #1
 800587e:	222d      	movlt	r2, #45	; 0x2d
 8005880:	2b09      	cmp	r3, #9
 8005882:	f88d 1074 	strb.w	r1, [sp, #116]	; 0x74
 8005886:	f88d 2075 	strb.w	r2, [sp, #117]	; 0x75
 800588a:	f340 80ff 	ble.w	8005a8c <_vfprintf_r+0x764>
 800588e:	260a      	movs	r6, #10
 8005890:	f10d 0283 	add.w	r2, sp, #131	; 0x83
 8005894:	fb93 f0f6 	sdiv	r0, r3, r6
 8005898:	fb06 3310 	mls	r3, r6, r0, r3
 800589c:	2809      	cmp	r0, #9
 800589e:	f103 0330 	add.w	r3, r3, #48	; 0x30
 80058a2:	f802 3c01 	strb.w	r3, [r2, #-1]
 80058a6:	f102 31ff 	add.w	r1, r2, #4294967295
 80058aa:	4603      	mov	r3, r0
 80058ac:	f300 80e7 	bgt.w	8005a7e <_vfprintf_r+0x756>
 80058b0:	3330      	adds	r3, #48	; 0x30
 80058b2:	f801 3c01 	strb.w	r3, [r1, #-1]
 80058b6:	3a02      	subs	r2, #2
 80058b8:	f10d 0376 	add.w	r3, sp, #118	; 0x76
 80058bc:	f10d 0083 	add.w	r0, sp, #131	; 0x83
 80058c0:	4282      	cmp	r2, r0
 80058c2:	4619      	mov	r1, r3
 80058c4:	f0c0 80dd 	bcc.w	8005a82 <_vfprintf_r+0x75a>
 80058c8:	9a07      	ldr	r2, [sp, #28]
 80058ca:	ab1d      	add	r3, sp, #116	; 0x74
 80058cc:	1acb      	subs	r3, r1, r3
 80058ce:	2a01      	cmp	r2, #1
 80058d0:	9314      	str	r3, [sp, #80]	; 0x50
 80058d2:	eb03 0b02 	add.w	fp, r3, r2
 80058d6:	dc03      	bgt.n	80058e0 <_vfprintf_r+0x5b8>
 80058d8:	f01a 0301 	ands.w	r3, sl, #1
 80058dc:	930a      	str	r3, [sp, #40]	; 0x28
 80058de:	d003      	beq.n	80058e8 <_vfprintf_r+0x5c0>
 80058e0:	9b0b      	ldr	r3, [sp, #44]	; 0x2c
 80058e2:	449b      	add	fp, r3
 80058e4:	2300      	movs	r3, #0
 80058e6:	930a      	str	r3, [sp, #40]	; 0x28
 80058e8:	9b16      	ldr	r3, [sp, #88]	; 0x58
 80058ea:	b113      	cbz	r3, 80058f2 <_vfprintf_r+0x5ca>
 80058ec:	232d      	movs	r3, #45	; 0x2d
 80058ee:	f88d 3067 	strb.w	r3, [sp, #103]	; 0x67
 80058f2:	2600      	movs	r6, #0
 80058f4:	f8dd a05c 	ldr.w	sl, [sp, #92]	; 0x5c
 80058f8:	455e      	cmp	r6, fp
 80058fa:	4633      	mov	r3, r6
 80058fc:	bfb8      	it	lt
 80058fe:	465b      	movlt	r3, fp
 8005900:	9310      	str	r3, [sp, #64]	; 0x40
 8005902:	f89d 3067 	ldrb.w	r3, [sp, #103]	; 0x67
 8005906:	b113      	cbz	r3, 800590e <_vfprintf_r+0x5e6>
 8005908:	9b10      	ldr	r3, [sp, #64]	; 0x40
 800590a:	3301      	adds	r3, #1
 800590c:	9310      	str	r3, [sp, #64]	; 0x40
 800590e:	f01a 0302 	ands.w	r3, sl, #2
 8005912:	9316      	str	r3, [sp, #88]	; 0x58
 8005914:	bf1e      	ittt	ne
 8005916:	9b10      	ldrne	r3, [sp, #64]	; 0x40
 8005918:	3302      	addne	r3, #2
 800591a:	9310      	strne	r3, [sp, #64]	; 0x40
 800591c:	f01a 0384 	ands.w	r3, sl, #132	; 0x84
 8005920:	9317      	str	r3, [sp, #92]	; 0x5c
 8005922:	d114      	bne.n	800594e <_vfprintf_r+0x626>
 8005924:	9b0d      	ldr	r3, [sp, #52]	; 0x34
 8005926:	9a10      	ldr	r2, [sp, #64]	; 0x40
 8005928:	1a9f      	subs	r7, r3, r2
 800592a:	2f00      	cmp	r7, #0
 800592c:	dd0f      	ble.n	800594e <_vfprintf_r+0x626>
 800592e:	4bac      	ldr	r3, [pc, #688]	; (8005be0 <_vfprintf_r+0x8b8>)
 8005930:	2f10      	cmp	r7, #16
 8005932:	6023      	str	r3, [r4, #0]
 8005934:	f300 81de 	bgt.w	8005cf4 <_vfprintf_r+0x9cc>
 8005938:	9b23      	ldr	r3, [sp, #140]	; 0x8c
 800593a:	6067      	str	r7, [r4, #4]
 800593c:	441f      	add	r7, r3
 800593e:	9b22      	ldr	r3, [sp, #136]	; 0x88
 8005940:	9723      	str	r7, [sp, #140]	; 0x8c
 8005942:	3301      	adds	r3, #1
 8005944:	2b07      	cmp	r3, #7
 8005946:	9322      	str	r3, [sp, #136]	; 0x88
 8005948:	f300 81eb 	bgt.w	8005d22 <_vfprintf_r+0x9fa>
 800594c:	3408      	adds	r4, #8
 800594e:	f89d 3067 	ldrb.w	r3, [sp, #103]	; 0x67
 8005952:	b173      	cbz	r3, 8005972 <_vfprintf_r+0x64a>
 8005954:	f10d 0367 	add.w	r3, sp, #103	; 0x67
 8005958:	6023      	str	r3, [r4, #0]
 800595a:	2301      	movs	r3, #1
 800595c:	6063      	str	r3, [r4, #4]
 800595e:	9b23      	ldr	r3, [sp, #140]	; 0x8c
 8005960:	3301      	adds	r3, #1
 8005962:	9323      	str	r3, [sp, #140]	; 0x8c
 8005964:	9b22      	ldr	r3, [sp, #136]	; 0x88
 8005966:	3301      	adds	r3, #1
 8005968:	2b07      	cmp	r3, #7
 800596a:	9322      	str	r3, [sp, #136]	; 0x88
 800596c:	f300 81e3 	bgt.w	8005d36 <_vfprintf_r+0xa0e>
 8005970:	3408      	adds	r4, #8
 8005972:	9b16      	ldr	r3, [sp, #88]	; 0x58
 8005974:	b16b      	cbz	r3, 8005992 <_vfprintf_r+0x66a>
 8005976:	ab1a      	add	r3, sp, #104	; 0x68
 8005978:	6023      	str	r3, [r4, #0]
 800597a:	2302      	movs	r3, #2
 800597c:	6063      	str	r3, [r4, #4]
 800597e:	9b23      	ldr	r3, [sp, #140]	; 0x8c
 8005980:	3302      	adds	r3, #2
 8005982:	9323      	str	r3, [sp, #140]	; 0x8c
 8005984:	9b22      	ldr	r3, [sp, #136]	; 0x88
 8005986:	3301      	adds	r3, #1
 8005988:	2b07      	cmp	r3, #7
 800598a:	9322      	str	r3, [sp, #136]	; 0x88
 800598c:	f300 81dd 	bgt.w	8005d4a <_vfprintf_r+0xa22>
 8005990:	3408      	adds	r4, #8
 8005992:	9b17      	ldr	r3, [sp, #92]	; 0x5c
 8005994:	2b80      	cmp	r3, #128	; 0x80
 8005996:	d114      	bne.n	80059c2 <_vfprintf_r+0x69a>
 8005998:	9b0d      	ldr	r3, [sp, #52]	; 0x34
 800599a:	9a10      	ldr	r2, [sp, #64]	; 0x40
 800599c:	1a9f      	subs	r7, r3, r2
 800599e:	2f00      	cmp	r7, #0
 80059a0:	dd0f      	ble.n	80059c2 <_vfprintf_r+0x69a>
 80059a2:	4b90      	ldr	r3, [pc, #576]	; (8005be4 <_vfprintf_r+0x8bc>)
 80059a4:	2f10      	cmp	r7, #16
 80059a6:	6023      	str	r3, [r4, #0]
 80059a8:	f300 81d9 	bgt.w	8005d5e <_vfprintf_r+0xa36>
 80059ac:	9b23      	ldr	r3, [sp, #140]	; 0x8c
 80059ae:	6067      	str	r7, [r4, #4]
 80059b0:	441f      	add	r7, r3
 80059b2:	9b22      	ldr	r3, [sp, #136]	; 0x88
 80059b4:	9723      	str	r7, [sp, #140]	; 0x8c
 80059b6:	3301      	adds	r3, #1
 80059b8:	2b07      	cmp	r3, #7
 80059ba:	9322      	str	r3, [sp, #136]	; 0x88
 80059bc:	f300 81e6 	bgt.w	8005d8c <_vfprintf_r+0xa64>
 80059c0:	3408      	adds	r4, #8
 80059c2:	eba6 060b 	sub.w	r6, r6, fp
 80059c6:	2e00      	cmp	r6, #0
 80059c8:	dd0f      	ble.n	80059ea <_vfprintf_r+0x6c2>
 80059ca:	4f86      	ldr	r7, [pc, #536]	; (8005be4 <_vfprintf_r+0x8bc>)
 80059cc:	2e10      	cmp	r6, #16
 80059ce:	6027      	str	r7, [r4, #0]
 80059d0:	f300 81e6 	bgt.w	8005da0 <_vfprintf_r+0xa78>
 80059d4:	9b22      	ldr	r3, [sp, #136]	; 0x88
 80059d6:	9823      	ldr	r0, [sp, #140]	; 0x8c
 80059d8:	3301      	adds	r3, #1
 80059da:	6066      	str	r6, [r4, #4]
 80059dc:	2b07      	cmp	r3, #7
 80059de:	4406      	add	r6, r0
 80059e0:	9623      	str	r6, [sp, #140]	; 0x8c
 80059e2:	9322      	str	r3, [sp, #136]	; 0x88
 80059e4:	f300 81f3 	bgt.w	8005dce <_vfprintf_r+0xaa6>
 80059e8:	3408      	adds	r4, #8
 80059ea:	f41a 7f80 	tst.w	sl, #256	; 0x100
 80059ee:	f040 81f8 	bne.w	8005de2 <_vfprintf_r+0xaba>
 80059f2:	9b23      	ldr	r3, [sp, #140]	; 0x8c
 80059f4:	e884 0900 	stmia.w	r4, {r8, fp}
 80059f8:	445b      	add	r3, fp
 80059fa:	9323      	str	r3, [sp, #140]	; 0x8c
 80059fc:	9b22      	ldr	r3, [sp, #136]	; 0x88
 80059fe:	3301      	adds	r3, #1
 8005a00:	2b07      	cmp	r3, #7
 8005a02:	9322      	str	r3, [sp, #136]	; 0x88
 8005a04:	f340 8428 	ble.w	8006258 <_vfprintf_r+0xf30>
 8005a08:	aa21      	add	r2, sp, #132	; 0x84
 8005a0a:	4629      	mov	r1, r5
 8005a0c:	4648      	mov	r0, r9
 8005a0e:	f003 f800 	bl	8008a12 <__sprint_r>
 8005a12:	2800      	cmp	r0, #0
 8005a14:	f040 8440 	bne.w	8006298 <_vfprintf_r+0xf70>
 8005a18:	ac2e      	add	r4, sp, #184	; 0xb8
 8005a1a:	f01a 0f04 	tst.w	sl, #4
 8005a1e:	f040 841e 	bne.w	800625e <_vfprintf_r+0xf36>
 8005a22:	9b0c      	ldr	r3, [sp, #48]	; 0x30
 8005a24:	9a0d      	ldr	r2, [sp, #52]	; 0x34
 8005a26:	9910      	ldr	r1, [sp, #64]	; 0x40
 8005a28:	428a      	cmp	r2, r1
 8005a2a:	bfac      	ite	ge
 8005a2c:	189b      	addge	r3, r3, r2
 8005a2e:	185b      	addlt	r3, r3, r1
 8005a30:	930c      	str	r3, [sp, #48]	; 0x30
 8005a32:	9b23      	ldr	r3, [sp, #140]	; 0x8c
 8005a34:	b13b      	cbz	r3, 8005a46 <_vfprintf_r+0x71e>
 8005a36:	aa21      	add	r2, sp, #132	; 0x84
 8005a38:	4629      	mov	r1, r5
 8005a3a:	4648      	mov	r0, r9
 8005a3c:	f002 ffe9 	bl	8008a12 <__sprint_r>
 8005a40:	2800      	cmp	r0, #0
 8005a42:	f040 8429 	bne.w	8006298 <_vfprintf_r+0xf70>
 8005a46:	2300      	movs	r3, #0
 8005a48:	9f08      	ldr	r7, [sp, #32]
 8005a4a:	9322      	str	r3, [sp, #136]	; 0x88
 8005a4c:	ac2e      	add	r4, sp, #184	; 0xb8
 8005a4e:	e4ea      	b.n	8005426 <_vfprintf_r+0xfe>
 8005a50:	9b06      	ldr	r3, [sp, #24]
 8005a52:	2b65      	cmp	r3, #101	; 0x65
 8005a54:	f77f af08 	ble.w	8005868 <_vfprintf_r+0x540>
 8005a58:	9b06      	ldr	r3, [sp, #24]
 8005a5a:	2b66      	cmp	r3, #102	; 0x66
 8005a5c:	d127      	bne.n	8005aae <_vfprintf_r+0x786>
 8005a5e:	9b1b      	ldr	r3, [sp, #108]	; 0x6c
 8005a60:	2b00      	cmp	r3, #0
 8005a62:	dd1b      	ble.n	8005a9c <_vfprintf_r+0x774>
 8005a64:	f1bb 0f00 	cmp.w	fp, #0
 8005a68:	d102      	bne.n	8005a70 <_vfprintf_r+0x748>
 8005a6a:	f01a 0f01 	tst.w	sl, #1
 8005a6e:	d002      	beq.n	8005a76 <_vfprintf_r+0x74e>
 8005a70:	9a0b      	ldr	r2, [sp, #44]	; 0x2c
 8005a72:	4413      	add	r3, r2
 8005a74:	445b      	add	r3, fp
 8005a76:	9a1b      	ldr	r2, [sp, #108]	; 0x6c
 8005a78:	469b      	mov	fp, r3
 8005a7a:	920a      	str	r2, [sp, #40]	; 0x28
 8005a7c:	e734      	b.n	80058e8 <_vfprintf_r+0x5c0>
 8005a7e:	460a      	mov	r2, r1
 8005a80:	e708      	b.n	8005894 <_vfprintf_r+0x56c>
 8005a82:	f812 1b01 	ldrb.w	r1, [r2], #1
 8005a86:	f803 1b01 	strb.w	r1, [r3], #1
 8005a8a:	e719      	b.n	80058c0 <_vfprintf_r+0x598>
 8005a8c:	2230      	movs	r2, #48	; 0x30
 8005a8e:	4413      	add	r3, r2
 8005a90:	f88d 2076 	strb.w	r2, [sp, #118]	; 0x76
 8005a94:	f88d 3077 	strb.w	r3, [sp, #119]	; 0x77
 8005a98:	a91e      	add	r1, sp, #120	; 0x78
 8005a9a:	e715      	b.n	80058c8 <_vfprintf_r+0x5a0>
 8005a9c:	f1bb 0f00 	cmp.w	fp, #0
 8005aa0:	d102      	bne.n	8005aa8 <_vfprintf_r+0x780>
 8005aa2:	f01a 0f01 	tst.w	sl, #1
 8005aa6:	d016      	beq.n	8005ad6 <_vfprintf_r+0x7ae>
 8005aa8:	9b0b      	ldr	r3, [sp, #44]	; 0x2c
 8005aaa:	3301      	adds	r3, #1
 8005aac:	e7e2      	b.n	8005a74 <_vfprintf_r+0x74c>
 8005aae:	9a1b      	ldr	r2, [sp, #108]	; 0x6c
 8005ab0:	9b07      	ldr	r3, [sp, #28]
 8005ab2:	429a      	cmp	r2, r3
 8005ab4:	db07      	blt.n	8005ac6 <_vfprintf_r+0x79e>
 8005ab6:	f01a 0f01 	tst.w	sl, #1
 8005aba:	d00e      	beq.n	8005ada <_vfprintf_r+0x7b2>
 8005abc:	9b0b      	ldr	r3, [sp, #44]	; 0x2c
 8005abe:	4413      	add	r3, r2
 8005ac0:	2267      	movs	r2, #103	; 0x67
 8005ac2:	9206      	str	r2, [sp, #24]
 8005ac4:	e7d7      	b.n	8005a76 <_vfprintf_r+0x74e>
 8005ac6:	9b07      	ldr	r3, [sp, #28]
 8005ac8:	990b      	ldr	r1, [sp, #44]	; 0x2c
 8005aca:	2a00      	cmp	r2, #0
 8005acc:	440b      	add	r3, r1
 8005ace:	dcf7      	bgt.n	8005ac0 <_vfprintf_r+0x798>
 8005ad0:	f1c2 0201 	rsb	r2, r2, #1
 8005ad4:	e7f3      	b.n	8005abe <_vfprintf_r+0x796>
 8005ad6:	2301      	movs	r3, #1
 8005ad8:	e7cd      	b.n	8005a76 <_vfprintf_r+0x74e>
 8005ada:	4613      	mov	r3, r2
 8005adc:	e7f0      	b.n	8005ac0 <_vfprintf_r+0x798>
 8005ade:	b10b      	cbz	r3, 8005ae4 <_vfprintf_r+0x7bc>
 8005ae0:	f88d 2067 	strb.w	r2, [sp, #103]	; 0x67
 8005ae4:	f01a 0f20 	tst.w	sl, #32
 8005ae8:	f107 0304 	add.w	r3, r7, #4
 8005aec:	d008      	beq.n	8005b00 <_vfprintf_r+0x7d8>
 8005aee:	990c      	ldr	r1, [sp, #48]	; 0x30
 8005af0:	683a      	ldr	r2, [r7, #0]
 8005af2:	17cf      	asrs	r7, r1, #31
 8005af4:	4608      	mov	r0, r1
 8005af6:	4639      	mov	r1, r7
 8005af8:	e9c2 0100 	strd	r0, r1, [r2]
 8005afc:	461f      	mov	r7, r3
 8005afe:	e492      	b.n	8005426 <_vfprintf_r+0xfe>
 8005b00:	f01a 0f10 	tst.w	sl, #16
 8005b04:	d003      	beq.n	8005b0e <_vfprintf_r+0x7e6>
 8005b06:	683a      	ldr	r2, [r7, #0]
 8005b08:	990c      	ldr	r1, [sp, #48]	; 0x30
 8005b0a:	6011      	str	r1, [r2, #0]
 8005b0c:	e7f6      	b.n	8005afc <_vfprintf_r+0x7d4>
 8005b0e:	f01a 0f40 	tst.w	sl, #64	; 0x40
 8005b12:	d0f8      	beq.n	8005b06 <_vfprintf_r+0x7de>
 8005b14:	683a      	ldr	r2, [r7, #0]
 8005b16:	f8bd 1030 	ldrh.w	r1, [sp, #48]	; 0x30
 8005b1a:	8011      	strh	r1, [r2, #0]
 8005b1c:	e7ee      	b.n	8005afc <_vfprintf_r+0x7d4>
 8005b1e:	f04a 0a10 	orr.w	sl, sl, #16
 8005b22:	f01a 0320 	ands.w	r3, sl, #32
 8005b26:	d022      	beq.n	8005b6e <_vfprintf_r+0x846>
 8005b28:	3707      	adds	r7, #7
 8005b2a:	f027 0707 	bic.w	r7, r7, #7
 8005b2e:	f107 0308 	add.w	r3, r7, #8
 8005b32:	9308      	str	r3, [sp, #32]
 8005b34:	e9d7 6700 	ldrd	r6, r7, [r7]
 8005b38:	2300      	movs	r3, #0
 8005b3a:	2200      	movs	r2, #0
 8005b3c:	f88d 2067 	strb.w	r2, [sp, #103]	; 0x67
 8005b40:	f1bb 3fff 	cmp.w	fp, #4294967295
 8005b44:	f000 83eb 	beq.w	800631e <_vfprintf_r+0xff6>
 8005b48:	f02a 0280 	bic.w	r2, sl, #128	; 0x80
 8005b4c:	920a      	str	r2, [sp, #40]	; 0x28
 8005b4e:	ea56 0207 	orrs.w	r2, r6, r7
 8005b52:	f040 83ea 	bne.w	800632a <_vfprintf_r+0x1002>
 8005b56:	f1bb 0f00 	cmp.w	fp, #0
 8005b5a:	f000 80ac 	beq.w	8005cb6 <_vfprintf_r+0x98e>
 8005b5e:	2b01      	cmp	r3, #1
 8005b60:	d078      	beq.n	8005c54 <_vfprintf_r+0x92c>
 8005b62:	2b02      	cmp	r3, #2
 8005b64:	f000 8093 	beq.w	8005c8e <_vfprintf_r+0x966>
 8005b68:	2600      	movs	r6, #0
 8005b6a:	2700      	movs	r7, #0
 8005b6c:	e3e3      	b.n	8006336 <_vfprintf_r+0x100e>
 8005b6e:	1d3a      	adds	r2, r7, #4
 8005b70:	f01a 0110 	ands.w	r1, sl, #16
 8005b74:	9208      	str	r2, [sp, #32]
 8005b76:	d002      	beq.n	8005b7e <_vfprintf_r+0x856>
 8005b78:	683e      	ldr	r6, [r7, #0]
 8005b7a:	2700      	movs	r7, #0
 8005b7c:	e7dd      	b.n	8005b3a <_vfprintf_r+0x812>
 8005b7e:	f01a 0340 	ands.w	r3, sl, #64	; 0x40
 8005b82:	d0f9      	beq.n	8005b78 <_vfprintf_r+0x850>
 8005b84:	883e      	ldrh	r6, [r7, #0]
 8005b86:	2700      	movs	r7, #0
 8005b88:	e7d6      	b.n	8005b38 <_vfprintf_r+0x810>
 8005b8a:	1d3b      	adds	r3, r7, #4
 8005b8c:	9308      	str	r3, [sp, #32]
 8005b8e:	2330      	movs	r3, #48	; 0x30
 8005b90:	2278      	movs	r2, #120	; 0x78
 8005b92:	f88d 3068 	strb.w	r3, [sp, #104]	; 0x68
 8005b96:	4b14      	ldr	r3, [pc, #80]	; (8005be8 <_vfprintf_r+0x8c0>)
 8005b98:	683e      	ldr	r6, [r7, #0]
 8005b9a:	9315      	str	r3, [sp, #84]	; 0x54
 8005b9c:	2700      	movs	r7, #0
 8005b9e:	f04a 0a02 	orr.w	sl, sl, #2
 8005ba2:	f88d 2069 	strb.w	r2, [sp, #105]	; 0x69
 8005ba6:	2302      	movs	r3, #2
 8005ba8:	9206      	str	r2, [sp, #24]
 8005baa:	e7c6      	b.n	8005b3a <_vfprintf_r+0x812>
 8005bac:	2600      	movs	r6, #0
 8005bae:	1d3b      	adds	r3, r7, #4
 8005bb0:	f1bb 3fff 	cmp.w	fp, #4294967295
 8005bb4:	9308      	str	r3, [sp, #32]
 8005bb6:	f8d7 8000 	ldr.w	r8, [r7]
 8005bba:	f88d 6067 	strb.w	r6, [sp, #103]	; 0x67
 8005bbe:	d00a      	beq.n	8005bd6 <_vfprintf_r+0x8ae>
 8005bc0:	465a      	mov	r2, fp
 8005bc2:	4631      	mov	r1, r6
 8005bc4:	4640      	mov	r0, r8
 8005bc6:	f002 f9cf 	bl	8007f68 <memchr>
 8005bca:	2800      	cmp	r0, #0
 8005bcc:	f000 8090 	beq.w	8005cf0 <_vfprintf_r+0x9c8>
 8005bd0:	eba0 0b08 	sub.w	fp, r0, r8
 8005bd4:	e5c0      	b.n	8005758 <_vfprintf_r+0x430>
 8005bd6:	4640      	mov	r0, r8
 8005bd8:	f7fa fb26 	bl	8000228 <strlen>
 8005bdc:	4683      	mov	fp, r0
 8005bde:	e5bb      	b.n	8005758 <_vfprintf_r+0x430>
 8005be0:	08009343 	.word	0x08009343
 8005be4:	08009353 	.word	0x08009353
 8005be8:	08009312 	.word	0x08009312
 8005bec:	f04a 0a10 	orr.w	sl, sl, #16
 8005bf0:	f01a 0f20 	tst.w	sl, #32
 8005bf4:	d009      	beq.n	8005c0a <_vfprintf_r+0x8e2>
 8005bf6:	3707      	adds	r7, #7
 8005bf8:	f027 0707 	bic.w	r7, r7, #7
 8005bfc:	f107 0308 	add.w	r3, r7, #8
 8005c00:	9308      	str	r3, [sp, #32]
 8005c02:	e9d7 6700 	ldrd	r6, r7, [r7]
 8005c06:	2301      	movs	r3, #1
 8005c08:	e797      	b.n	8005b3a <_vfprintf_r+0x812>
 8005c0a:	1d3b      	adds	r3, r7, #4
 8005c0c:	f01a 0f10 	tst.w	sl, #16
 8005c10:	9308      	str	r3, [sp, #32]
 8005c12:	d001      	beq.n	8005c18 <_vfprintf_r+0x8f0>
 8005c14:	683e      	ldr	r6, [r7, #0]
 8005c16:	e003      	b.n	8005c20 <_vfprintf_r+0x8f8>
 8005c18:	f01a 0f40 	tst.w	sl, #64	; 0x40
 8005c1c:	d0fa      	beq.n	8005c14 <_vfprintf_r+0x8ec>
 8005c1e:	883e      	ldrh	r6, [r7, #0]
 8005c20:	2700      	movs	r7, #0
 8005c22:	e7f0      	b.n	8005c06 <_vfprintf_r+0x8de>
 8005c24:	b10b      	cbz	r3, 8005c2a <_vfprintf_r+0x902>
 8005c26:	f88d 2067 	strb.w	r2, [sp, #103]	; 0x67
 8005c2a:	4ba3      	ldr	r3, [pc, #652]	; (8005eb8 <_vfprintf_r+0xb90>)
 8005c2c:	e4be      	b.n	80055ac <_vfprintf_r+0x284>
 8005c2e:	1d3b      	adds	r3, r7, #4
 8005c30:	f01a 0f10 	tst.w	sl, #16
 8005c34:	9308      	str	r3, [sp, #32]
 8005c36:	d001      	beq.n	8005c3c <_vfprintf_r+0x914>
 8005c38:	683e      	ldr	r6, [r7, #0]
 8005c3a:	e003      	b.n	8005c44 <_vfprintf_r+0x91c>
 8005c3c:	f01a 0f40 	tst.w	sl, #64	; 0x40
 8005c40:	d0fa      	beq.n	8005c38 <_vfprintf_r+0x910>
 8005c42:	883e      	ldrh	r6, [r7, #0]
 8005c44:	2700      	movs	r7, #0
 8005c46:	e4be      	b.n	80055c6 <_vfprintf_r+0x29e>
 8005c48:	4643      	mov	r3, r8
 8005c4a:	e375      	b.n	8006338 <_vfprintf_r+0x1010>
 8005c4c:	2f00      	cmp	r7, #0
 8005c4e:	bf08      	it	eq
 8005c50:	2e0a      	cmpeq	r6, #10
 8005c52:	d205      	bcs.n	8005c60 <_vfprintf_r+0x938>
 8005c54:	3630      	adds	r6, #48	; 0x30
 8005c56:	f10d 08f8 	add.w	r8, sp, #248	; 0xf8
 8005c5a:	f808 6d41 	strb.w	r6, [r8, #-65]!
 8005c5e:	e386      	b.n	800636e <_vfprintf_r+0x1046>
 8005c60:	f10d 08b8 	add.w	r8, sp, #184	; 0xb8
 8005c64:	4630      	mov	r0, r6
 8005c66:	4639      	mov	r1, r7
 8005c68:	220a      	movs	r2, #10
 8005c6a:	2300      	movs	r3, #0
 8005c6c:	f7fa ff74 	bl	8000b58 <__aeabi_uldivmod>
 8005c70:	3230      	adds	r2, #48	; 0x30
 8005c72:	f808 2d01 	strb.w	r2, [r8, #-1]!
 8005c76:	2300      	movs	r3, #0
 8005c78:	4630      	mov	r0, r6
 8005c7a:	4639      	mov	r1, r7
 8005c7c:	220a      	movs	r2, #10
 8005c7e:	f7fa ff6b 	bl	8000b58 <__aeabi_uldivmod>
 8005c82:	4606      	mov	r6, r0
 8005c84:	460f      	mov	r7, r1
 8005c86:	ea56 0307 	orrs.w	r3, r6, r7
 8005c8a:	d1eb      	bne.n	8005c64 <_vfprintf_r+0x93c>
 8005c8c:	e36f      	b.n	800636e <_vfprintf_r+0x1046>
 8005c8e:	2600      	movs	r6, #0
 8005c90:	2700      	movs	r7, #0
 8005c92:	f10d 08b8 	add.w	r8, sp, #184	; 0xb8
 8005c96:	9a15      	ldr	r2, [sp, #84]	; 0x54
 8005c98:	f006 030f 	and.w	r3, r6, #15
 8005c9c:	5cd3      	ldrb	r3, [r2, r3]
 8005c9e:	093a      	lsrs	r2, r7, #4
 8005ca0:	f808 3d01 	strb.w	r3, [r8, #-1]!
 8005ca4:	0933      	lsrs	r3, r6, #4
 8005ca6:	ea43 7307 	orr.w	r3, r3, r7, lsl #28
 8005caa:	461e      	mov	r6, r3
 8005cac:	4617      	mov	r7, r2
 8005cae:	ea56 0307 	orrs.w	r3, r6, r7
 8005cb2:	d1f0      	bne.n	8005c96 <_vfprintf_r+0x96e>
 8005cb4:	e35b      	b.n	800636e <_vfprintf_r+0x1046>
 8005cb6:	b943      	cbnz	r3, 8005cca <_vfprintf_r+0x9a2>
 8005cb8:	f01a 0f01 	tst.w	sl, #1
 8005cbc:	d005      	beq.n	8005cca <_vfprintf_r+0x9a2>
 8005cbe:	2330      	movs	r3, #48	; 0x30
 8005cc0:	f10d 08f8 	add.w	r8, sp, #248	; 0xf8
 8005cc4:	f808 3d41 	strb.w	r3, [r8, #-65]!
 8005cc8:	e351      	b.n	800636e <_vfprintf_r+0x1046>
 8005cca:	f10d 08b8 	add.w	r8, sp, #184	; 0xb8
 8005cce:	e34e      	b.n	800636e <_vfprintf_r+0x1046>
 8005cd0:	b10b      	cbz	r3, 8005cd6 <_vfprintf_r+0x9ae>
 8005cd2:	f88d 2067 	strb.w	r2, [sp, #103]	; 0x67
 8005cd6:	9b06      	ldr	r3, [sp, #24]
 8005cd8:	2b00      	cmp	r3, #0
 8005cda:	f000 8301 	beq.w	80062e0 <_vfprintf_r+0xfb8>
 8005cde:	2600      	movs	r6, #0
 8005ce0:	f89d 3018 	ldrb.w	r3, [sp, #24]
 8005ce4:	f88d 6067 	strb.w	r6, [sp, #103]	; 0x67
 8005ce8:	f88d 3090 	strb.w	r3, [sp, #144]	; 0x90
 8005cec:	9708      	str	r7, [sp, #32]
 8005cee:	e4dc      	b.n	80056aa <_vfprintf_r+0x382>
 8005cf0:	4606      	mov	r6, r0
 8005cf2:	e531      	b.n	8005758 <_vfprintf_r+0x430>
 8005cf4:	2310      	movs	r3, #16
 8005cf6:	6063      	str	r3, [r4, #4]
 8005cf8:	9b23      	ldr	r3, [sp, #140]	; 0x8c
 8005cfa:	3310      	adds	r3, #16
 8005cfc:	9323      	str	r3, [sp, #140]	; 0x8c
 8005cfe:	9b22      	ldr	r3, [sp, #136]	; 0x88
 8005d00:	3301      	adds	r3, #1
 8005d02:	2b07      	cmp	r3, #7
 8005d04:	9322      	str	r3, [sp, #136]	; 0x88
 8005d06:	dc02      	bgt.n	8005d0e <_vfprintf_r+0x9e6>
 8005d08:	3408      	adds	r4, #8
 8005d0a:	3f10      	subs	r7, #16
 8005d0c:	e60f      	b.n	800592e <_vfprintf_r+0x606>
 8005d0e:	aa21      	add	r2, sp, #132	; 0x84
 8005d10:	4629      	mov	r1, r5
 8005d12:	4648      	mov	r0, r9
 8005d14:	f002 fe7d 	bl	8008a12 <__sprint_r>
 8005d18:	2800      	cmp	r0, #0
 8005d1a:	f040 82bd 	bne.w	8006298 <_vfprintf_r+0xf70>
 8005d1e:	ac2e      	add	r4, sp, #184	; 0xb8
 8005d20:	e7f3      	b.n	8005d0a <_vfprintf_r+0x9e2>
 8005d22:	aa21      	add	r2, sp, #132	; 0x84
 8005d24:	4629      	mov	r1, r5
 8005d26:	4648      	mov	r0, r9
 8005d28:	f002 fe73 	bl	8008a12 <__sprint_r>
 8005d2c:	2800      	cmp	r0, #0
 8005d2e:	f040 82b3 	bne.w	8006298 <_vfprintf_r+0xf70>
 8005d32:	ac2e      	add	r4, sp, #184	; 0xb8
 8005d34:	e60b      	b.n	800594e <_vfprintf_r+0x626>
 8005d36:	aa21      	add	r2, sp, #132	; 0x84
 8005d38:	4629      	mov	r1, r5
 8005d3a:	4648      	mov	r0, r9
 8005d3c:	f002 fe69 	bl	8008a12 <__sprint_r>
 8005d40:	2800      	cmp	r0, #0
 8005d42:	f040 82a9 	bne.w	8006298 <_vfprintf_r+0xf70>
 8005d46:	ac2e      	add	r4, sp, #184	; 0xb8
 8005d48:	e613      	b.n	8005972 <_vfprintf_r+0x64a>
 8005d4a:	aa21      	add	r2, sp, #132	; 0x84
 8005d4c:	4629      	mov	r1, r5
 8005d4e:	4648      	mov	r0, r9
 8005d50:	f002 fe5f 	bl	8008a12 <__sprint_r>
 8005d54:	2800      	cmp	r0, #0
 8005d56:	f040 829f 	bne.w	8006298 <_vfprintf_r+0xf70>
 8005d5a:	ac2e      	add	r4, sp, #184	; 0xb8
 8005d5c:	e619      	b.n	8005992 <_vfprintf_r+0x66a>
 8005d5e:	2310      	movs	r3, #16
 8005d60:	6063      	str	r3, [r4, #4]
 8005d62:	9b23      	ldr	r3, [sp, #140]	; 0x8c
 8005d64:	3310      	adds	r3, #16
 8005d66:	9323      	str	r3, [sp, #140]	; 0x8c
 8005d68:	9b22      	ldr	r3, [sp, #136]	; 0x88
 8005d6a:	3301      	adds	r3, #1
 8005d6c:	2b07      	cmp	r3, #7
 8005d6e:	9322      	str	r3, [sp, #136]	; 0x88
 8005d70:	dc02      	bgt.n	8005d78 <_vfprintf_r+0xa50>
 8005d72:	3408      	adds	r4, #8
 8005d74:	3f10      	subs	r7, #16
 8005d76:	e614      	b.n	80059a2 <_vfprintf_r+0x67a>
 8005d78:	aa21      	add	r2, sp, #132	; 0x84
 8005d7a:	4629      	mov	r1, r5
 8005d7c:	4648      	mov	r0, r9
 8005d7e:	f002 fe48 	bl	8008a12 <__sprint_r>
 8005d82:	2800      	cmp	r0, #0
 8005d84:	f040 8288 	bne.w	8006298 <_vfprintf_r+0xf70>
 8005d88:	ac2e      	add	r4, sp, #184	; 0xb8
 8005d8a:	e7f3      	b.n	8005d74 <_vfprintf_r+0xa4c>
 8005d8c:	aa21      	add	r2, sp, #132	; 0x84
 8005d8e:	4629      	mov	r1, r5
 8005d90:	4648      	mov	r0, r9
 8005d92:	f002 fe3e 	bl	8008a12 <__sprint_r>
 8005d96:	2800      	cmp	r0, #0
 8005d98:	f040 827e 	bne.w	8006298 <_vfprintf_r+0xf70>
 8005d9c:	ac2e      	add	r4, sp, #184	; 0xb8
 8005d9e:	e610      	b.n	80059c2 <_vfprintf_r+0x69a>
 8005da0:	2310      	movs	r3, #16
 8005da2:	6063      	str	r3, [r4, #4]
 8005da4:	9b23      	ldr	r3, [sp, #140]	; 0x8c
 8005da6:	3310      	adds	r3, #16
 8005da8:	9323      	str	r3, [sp, #140]	; 0x8c
 8005daa:	9b22      	ldr	r3, [sp, #136]	; 0x88
 8005dac:	3301      	adds	r3, #1
 8005dae:	2b07      	cmp	r3, #7
 8005db0:	9322      	str	r3, [sp, #136]	; 0x88
 8005db2:	dc02      	bgt.n	8005dba <_vfprintf_r+0xa92>
 8005db4:	3408      	adds	r4, #8
 8005db6:	3e10      	subs	r6, #16
 8005db8:	e608      	b.n	80059cc <_vfprintf_r+0x6a4>
 8005dba:	aa21      	add	r2, sp, #132	; 0x84
 8005dbc:	4629      	mov	r1, r5
 8005dbe:	4648      	mov	r0, r9
 8005dc0:	f002 fe27 	bl	8008a12 <__sprint_r>
 8005dc4:	2800      	cmp	r0, #0
 8005dc6:	f040 8267 	bne.w	8006298 <_vfprintf_r+0xf70>
 8005dca:	ac2e      	add	r4, sp, #184	; 0xb8
 8005dcc:	e7f3      	b.n	8005db6 <_vfprintf_r+0xa8e>
 8005dce:	aa21      	add	r2, sp, #132	; 0x84
 8005dd0:	4629      	mov	r1, r5
 8005dd2:	4648      	mov	r0, r9
 8005dd4:	f002 fe1d 	bl	8008a12 <__sprint_r>
 8005dd8:	2800      	cmp	r0, #0
 8005dda:	f040 825d 	bne.w	8006298 <_vfprintf_r+0xf70>
 8005dde:	ac2e      	add	r4, sp, #184	; 0xb8
 8005de0:	e603      	b.n	80059ea <_vfprintf_r+0x6c2>
 8005de2:	9b06      	ldr	r3, [sp, #24]
 8005de4:	2b65      	cmp	r3, #101	; 0x65
 8005de6:	f340 81b1 	ble.w	800614c <_vfprintf_r+0xe24>
 8005dea:	9a12      	ldr	r2, [sp, #72]	; 0x48
 8005dec:	9b13      	ldr	r3, [sp, #76]	; 0x4c
 8005dee:	980e      	ldr	r0, [sp, #56]	; 0x38
 8005df0:	990f      	ldr	r1, [sp, #60]	; 0x3c
 8005df2:	f7fa fe41 	bl	8000a78 <__aeabi_dcmpeq>
 8005df6:	2800      	cmp	r0, #0
 8005df8:	d064      	beq.n	8005ec4 <_vfprintf_r+0xb9c>
 8005dfa:	4b30      	ldr	r3, [pc, #192]	; (8005ebc <_vfprintf_r+0xb94>)
 8005dfc:	6023      	str	r3, [r4, #0]
 8005dfe:	2301      	movs	r3, #1
 8005e00:	6063      	str	r3, [r4, #4]
 8005e02:	9b23      	ldr	r3, [sp, #140]	; 0x8c
 8005e04:	3301      	adds	r3, #1
 8005e06:	9323      	str	r3, [sp, #140]	; 0x8c
 8005e08:	9b22      	ldr	r3, [sp, #136]	; 0x88
 8005e0a:	3301      	adds	r3, #1
 8005e0c:	2b07      	cmp	r3, #7
 8005e0e:	9322      	str	r3, [sp, #136]	; 0x88
 8005e10:	dc26      	bgt.n	8005e60 <_vfprintf_r+0xb38>
 8005e12:	3408      	adds	r4, #8
 8005e14:	9b1b      	ldr	r3, [sp, #108]	; 0x6c
 8005e16:	9a07      	ldr	r2, [sp, #28]
 8005e18:	4293      	cmp	r3, r2
 8005e1a:	db03      	blt.n	8005e24 <_vfprintf_r+0xafc>
 8005e1c:	f01a 0f01 	tst.w	sl, #1
 8005e20:	f43f adfb 	beq.w	8005a1a <_vfprintf_r+0x6f2>
 8005e24:	9b11      	ldr	r3, [sp, #68]	; 0x44
 8005e26:	9a0b      	ldr	r2, [sp, #44]	; 0x2c
 8005e28:	6023      	str	r3, [r4, #0]
 8005e2a:	9b0b      	ldr	r3, [sp, #44]	; 0x2c
 8005e2c:	6063      	str	r3, [r4, #4]
 8005e2e:	9b23      	ldr	r3, [sp, #140]	; 0x8c
 8005e30:	4413      	add	r3, r2
 8005e32:	9323      	str	r3, [sp, #140]	; 0x8c
 8005e34:	9b22      	ldr	r3, [sp, #136]	; 0x88
 8005e36:	3301      	adds	r3, #1
 8005e38:	2b07      	cmp	r3, #7
 8005e3a:	9322      	str	r3, [sp, #136]	; 0x88
 8005e3c:	dc1a      	bgt.n	8005e74 <_vfprintf_r+0xb4c>
 8005e3e:	3408      	adds	r4, #8
 8005e40:	9b07      	ldr	r3, [sp, #28]
 8005e42:	1e5e      	subs	r6, r3, #1
 8005e44:	2e00      	cmp	r6, #0
 8005e46:	f77f ade8 	ble.w	8005a1a <_vfprintf_r+0x6f2>
 8005e4a:	f04f 0810 	mov.w	r8, #16
 8005e4e:	4f1c      	ldr	r7, [pc, #112]	; (8005ec0 <_vfprintf_r+0xb98>)
 8005e50:	2e10      	cmp	r6, #16
 8005e52:	6027      	str	r7, [r4, #0]
 8005e54:	dc18      	bgt.n	8005e88 <_vfprintf_r+0xb60>
 8005e56:	6066      	str	r6, [r4, #4]
 8005e58:	9b23      	ldr	r3, [sp, #140]	; 0x8c
 8005e5a:	441e      	add	r6, r3
 8005e5c:	9623      	str	r6, [sp, #140]	; 0x8c
 8005e5e:	e5cd      	b.n	80059fc <_vfprintf_r+0x6d4>
 8005e60:	aa21      	add	r2, sp, #132	; 0x84
 8005e62:	4629      	mov	r1, r5
 8005e64:	4648      	mov	r0, r9
 8005e66:	f002 fdd4 	bl	8008a12 <__sprint_r>
 8005e6a:	2800      	cmp	r0, #0
 8005e6c:	f040 8214 	bne.w	8006298 <_vfprintf_r+0xf70>
 8005e70:	ac2e      	add	r4, sp, #184	; 0xb8
 8005e72:	e7cf      	b.n	8005e14 <_vfprintf_r+0xaec>
 8005e74:	aa21      	add	r2, sp, #132	; 0x84
 8005e76:	4629      	mov	r1, r5
 8005e78:	4648      	mov	r0, r9
 8005e7a:	f002 fdca 	bl	8008a12 <__sprint_r>
 8005e7e:	2800      	cmp	r0, #0
 8005e80:	f040 820a 	bne.w	8006298 <_vfprintf_r+0xf70>
 8005e84:	ac2e      	add	r4, sp, #184	; 0xb8
 8005e86:	e7db      	b.n	8005e40 <_vfprintf_r+0xb18>
 8005e88:	9b23      	ldr	r3, [sp, #140]	; 0x8c
 8005e8a:	f8c4 8004 	str.w	r8, [r4, #4]
 8005e8e:	3310      	adds	r3, #16
 8005e90:	9323      	str	r3, [sp, #140]	; 0x8c
 8005e92:	9b22      	ldr	r3, [sp, #136]	; 0x88
 8005e94:	3301      	adds	r3, #1
 8005e96:	2b07      	cmp	r3, #7
 8005e98:	9322      	str	r3, [sp, #136]	; 0x88
 8005e9a:	dc02      	bgt.n	8005ea2 <_vfprintf_r+0xb7a>
 8005e9c:	3408      	adds	r4, #8
 8005e9e:	3e10      	subs	r6, #16
 8005ea0:	e7d6      	b.n	8005e50 <_vfprintf_r+0xb28>
 8005ea2:	aa21      	add	r2, sp, #132	; 0x84
 8005ea4:	4629      	mov	r1, r5
 8005ea6:	4648      	mov	r0, r9
 8005ea8:	f002 fdb3 	bl	8008a12 <__sprint_r>
 8005eac:	2800      	cmp	r0, #0
 8005eae:	f040 81f3 	bne.w	8006298 <_vfprintf_r+0xf70>
 8005eb2:	ac2e      	add	r4, sp, #184	; 0xb8
 8005eb4:	e7f3      	b.n	8005e9e <_vfprintf_r+0xb76>
 8005eb6:	bf00      	nop
 8005eb8:	08009312 	.word	0x08009312
 8005ebc:	080090c7 	.word	0x080090c7
 8005ec0:	08009353 	.word	0x08009353
 8005ec4:	9b1b      	ldr	r3, [sp, #108]	; 0x6c
 8005ec6:	2b00      	cmp	r3, #0
 8005ec8:	dc7b      	bgt.n	8005fc2 <_vfprintf_r+0xc9a>
 8005eca:	4b9e      	ldr	r3, [pc, #632]	; (8006144 <_vfprintf_r+0xe1c>)
 8005ecc:	6023      	str	r3, [r4, #0]
 8005ece:	2301      	movs	r3, #1
 8005ed0:	6063      	str	r3, [r4, #4]
 8005ed2:	9b23      	ldr	r3, [sp, #140]	; 0x8c
 8005ed4:	3301      	adds	r3, #1
 8005ed6:	9323      	str	r3, [sp, #140]	; 0x8c
 8005ed8:	9b22      	ldr	r3, [sp, #136]	; 0x88
 8005eda:	3301      	adds	r3, #1
 8005edc:	2b07      	cmp	r3, #7
 8005ede:	9322      	str	r3, [sp, #136]	; 0x88
 8005ee0:	dc45      	bgt.n	8005f6e <_vfprintf_r+0xc46>
 8005ee2:	3408      	adds	r4, #8
 8005ee4:	9b1b      	ldr	r3, [sp, #108]	; 0x6c
 8005ee6:	b92b      	cbnz	r3, 8005ef4 <_vfprintf_r+0xbcc>
 8005ee8:	9b07      	ldr	r3, [sp, #28]
 8005eea:	b91b      	cbnz	r3, 8005ef4 <_vfprintf_r+0xbcc>
 8005eec:	f01a 0f01 	tst.w	sl, #1
 8005ef0:	f43f ad93 	beq.w	8005a1a <_vfprintf_r+0x6f2>
 8005ef4:	9b11      	ldr	r3, [sp, #68]	; 0x44
 8005ef6:	9a0b      	ldr	r2, [sp, #44]	; 0x2c
 8005ef8:	6023      	str	r3, [r4, #0]
 8005efa:	9b0b      	ldr	r3, [sp, #44]	; 0x2c
 8005efc:	6063      	str	r3, [r4, #4]
 8005efe:	9b23      	ldr	r3, [sp, #140]	; 0x8c
 8005f00:	4413      	add	r3, r2
 8005f02:	9323      	str	r3, [sp, #140]	; 0x8c
 8005f04:	9b22      	ldr	r3, [sp, #136]	; 0x88
 8005f06:	3301      	adds	r3, #1
 8005f08:	2b07      	cmp	r3, #7
 8005f0a:	9322      	str	r3, [sp, #136]	; 0x88
 8005f0c:	dc39      	bgt.n	8005f82 <_vfprintf_r+0xc5a>
 8005f0e:	f104 0308 	add.w	r3, r4, #8
 8005f12:	9e1b      	ldr	r6, [sp, #108]	; 0x6c
 8005f14:	2e00      	cmp	r6, #0
 8005f16:	da19      	bge.n	8005f4c <_vfprintf_r+0xc24>
 8005f18:	2410      	movs	r4, #16
 8005f1a:	4f8b      	ldr	r7, [pc, #556]	; (8006148 <_vfprintf_r+0xe20>)
 8005f1c:	4276      	negs	r6, r6
 8005f1e:	2e10      	cmp	r6, #16
 8005f20:	601f      	str	r7, [r3, #0]
 8005f22:	dc38      	bgt.n	8005f96 <_vfprintf_r+0xc6e>
 8005f24:	9a23      	ldr	r2, [sp, #140]	; 0x8c
 8005f26:	605e      	str	r6, [r3, #4]
 8005f28:	4416      	add	r6, r2
 8005f2a:	9a22      	ldr	r2, [sp, #136]	; 0x88
 8005f2c:	9623      	str	r6, [sp, #140]	; 0x8c
 8005f2e:	3201      	adds	r2, #1
 8005f30:	2a07      	cmp	r2, #7
 8005f32:	f103 0308 	add.w	r3, r3, #8
 8005f36:	9222      	str	r2, [sp, #136]	; 0x88
 8005f38:	dd08      	ble.n	8005f4c <_vfprintf_r+0xc24>
 8005f3a:	aa21      	add	r2, sp, #132	; 0x84
 8005f3c:	4629      	mov	r1, r5
 8005f3e:	4648      	mov	r0, r9
 8005f40:	f002 fd67 	bl	8008a12 <__sprint_r>
 8005f44:	2800      	cmp	r0, #0
 8005f46:	f040 81a7 	bne.w	8006298 <_vfprintf_r+0xf70>
 8005f4a:	ab2e      	add	r3, sp, #184	; 0xb8
 8005f4c:	9a07      	ldr	r2, [sp, #28]
 8005f4e:	9907      	ldr	r1, [sp, #28]
 8005f50:	605a      	str	r2, [r3, #4]
 8005f52:	9a23      	ldr	r2, [sp, #140]	; 0x8c
 8005f54:	f8c3 8000 	str.w	r8, [r3]
 8005f58:	440a      	add	r2, r1
 8005f5a:	9223      	str	r2, [sp, #140]	; 0x8c
 8005f5c:	9a22      	ldr	r2, [sp, #136]	; 0x88
 8005f5e:	3201      	adds	r2, #1
 8005f60:	2a07      	cmp	r2, #7
 8005f62:	9222      	str	r2, [sp, #136]	; 0x88
 8005f64:	f73f ad50 	bgt.w	8005a08 <_vfprintf_r+0x6e0>
 8005f68:	f103 0408 	add.w	r4, r3, #8
 8005f6c:	e555      	b.n	8005a1a <_vfprintf_r+0x6f2>
 8005f6e:	aa21      	add	r2, sp, #132	; 0x84
 8005f70:	4629      	mov	r1, r5
 8005f72:	4648      	mov	r0, r9
 8005f74:	f002 fd4d 	bl	8008a12 <__sprint_r>
 8005f78:	2800      	cmp	r0, #0
 8005f7a:	f040 818d 	bne.w	8006298 <_vfprintf_r+0xf70>
 8005f7e:	ac2e      	add	r4, sp, #184	; 0xb8
 8005f80:	e7b0      	b.n	8005ee4 <_vfprintf_r+0xbbc>
 8005f82:	aa21      	add	r2, sp, #132	; 0x84
 8005f84:	4629      	mov	r1, r5
 8005f86:	4648      	mov	r0, r9
 8005f88:	f002 fd43 	bl	8008a12 <__sprint_r>
 8005f8c:	2800      	cmp	r0, #0
 8005f8e:	f040 8183 	bne.w	8006298 <_vfprintf_r+0xf70>
 8005f92:	ab2e      	add	r3, sp, #184	; 0xb8
 8005f94:	e7bd      	b.n	8005f12 <_vfprintf_r+0xbea>
 8005f96:	9a23      	ldr	r2, [sp, #140]	; 0x8c
 8005f98:	605c      	str	r4, [r3, #4]
 8005f9a:	3210      	adds	r2, #16
 8005f9c:	9223      	str	r2, [sp, #140]	; 0x8c
 8005f9e:	9a22      	ldr	r2, [sp, #136]	; 0x88
 8005fa0:	3201      	adds	r2, #1
 8005fa2:	2a07      	cmp	r2, #7
 8005fa4:	9222      	str	r2, [sp, #136]	; 0x88
 8005fa6:	dc02      	bgt.n	8005fae <_vfprintf_r+0xc86>
 8005fa8:	3308      	adds	r3, #8
 8005faa:	3e10      	subs	r6, #16
 8005fac:	e7b7      	b.n	8005f1e <_vfprintf_r+0xbf6>
 8005fae:	aa21      	add	r2, sp, #132	; 0x84
 8005fb0:	4629      	mov	r1, r5
 8005fb2:	4648      	mov	r0, r9
 8005fb4:	f002 fd2d 	bl	8008a12 <__sprint_r>
 8005fb8:	2800      	cmp	r0, #0
 8005fba:	f040 816d 	bne.w	8006298 <_vfprintf_r+0xf70>
 8005fbe:	ab2e      	add	r3, sp, #184	; 0xb8
 8005fc0:	e7f3      	b.n	8005faa <_vfprintf_r+0xc82>
 8005fc2:	9b0a      	ldr	r3, [sp, #40]	; 0x28
 8005fc4:	9a07      	ldr	r2, [sp, #28]
 8005fc6:	4293      	cmp	r3, r2
 8005fc8:	bfa8      	it	ge
 8005fca:	4613      	movge	r3, r2
 8005fcc:	2b00      	cmp	r3, #0
 8005fce:	461e      	mov	r6, r3
 8005fd0:	dd0b      	ble.n	8005fea <_vfprintf_r+0xcc2>
 8005fd2:	6063      	str	r3, [r4, #4]
 8005fd4:	9b23      	ldr	r3, [sp, #140]	; 0x8c
 8005fd6:	f8c4 8000 	str.w	r8, [r4]
 8005fda:	4433      	add	r3, r6
 8005fdc:	9323      	str	r3, [sp, #140]	; 0x8c
 8005fde:	9b22      	ldr	r3, [sp, #136]	; 0x88
 8005fe0:	3301      	adds	r3, #1
 8005fe2:	2b07      	cmp	r3, #7
 8005fe4:	9322      	str	r3, [sp, #136]	; 0x88
 8005fe6:	dc63      	bgt.n	80060b0 <_vfprintf_r+0xd88>
 8005fe8:	3408      	adds	r4, #8
 8005fea:	9b0a      	ldr	r3, [sp, #40]	; 0x28
 8005fec:	2e00      	cmp	r6, #0
 8005fee:	bfa8      	it	ge
 8005ff0:	1b9b      	subge	r3, r3, r6
 8005ff2:	2b00      	cmp	r3, #0
 8005ff4:	461e      	mov	r6, r3
 8005ff6:	dd0f      	ble.n	8006018 <_vfprintf_r+0xcf0>
 8005ff8:	f04f 0b10 	mov.w	fp, #16
 8005ffc:	4f52      	ldr	r7, [pc, #328]	; (8006148 <_vfprintf_r+0xe20>)
 8005ffe:	2e10      	cmp	r6, #16
 8006000:	6027      	str	r7, [r4, #0]
 8006002:	dc5f      	bgt.n	80060c4 <_vfprintf_r+0xd9c>
 8006004:	9b23      	ldr	r3, [sp, #140]	; 0x8c
 8006006:	6066      	str	r6, [r4, #4]
 8006008:	441e      	add	r6, r3
 800600a:	9b22      	ldr	r3, [sp, #136]	; 0x88
 800600c:	9623      	str	r6, [sp, #140]	; 0x8c
 800600e:	3301      	adds	r3, #1
 8006010:	2b07      	cmp	r3, #7
 8006012:	9322      	str	r3, [sp, #136]	; 0x88
 8006014:	dc6d      	bgt.n	80060f2 <_vfprintf_r+0xdca>
 8006016:	3408      	adds	r4, #8
 8006018:	9b1b      	ldr	r3, [sp, #108]	; 0x6c
 800601a:	9a07      	ldr	r2, [sp, #28]
 800601c:	4293      	cmp	r3, r2
 800601e:	db02      	blt.n	8006026 <_vfprintf_r+0xcfe>
 8006020:	f01a 0f01 	tst.w	sl, #1
 8006024:	d00d      	beq.n	8006042 <_vfprintf_r+0xd1a>
 8006026:	9b11      	ldr	r3, [sp, #68]	; 0x44
 8006028:	9a0b      	ldr	r2, [sp, #44]	; 0x2c
 800602a:	6023      	str	r3, [r4, #0]
 800602c:	9b0b      	ldr	r3, [sp, #44]	; 0x2c
 800602e:	6063      	str	r3, [r4, #4]
 8006030:	9b23      	ldr	r3, [sp, #140]	; 0x8c
 8006032:	4413      	add	r3, r2
 8006034:	9323      	str	r3, [sp, #140]	; 0x8c
 8006036:	9b22      	ldr	r3, [sp, #136]	; 0x88
 8006038:	3301      	adds	r3, #1
 800603a:	2b07      	cmp	r3, #7
 800603c:	9322      	str	r3, [sp, #136]	; 0x88
 800603e:	dc62      	bgt.n	8006106 <_vfprintf_r+0xdde>
 8006040:	3408      	adds	r4, #8
 8006042:	9b07      	ldr	r3, [sp, #28]
 8006044:	9a0a      	ldr	r2, [sp, #40]	; 0x28
 8006046:	1a9e      	subs	r6, r3, r2
 8006048:	9b1b      	ldr	r3, [sp, #108]	; 0x6c
 800604a:	9a07      	ldr	r2, [sp, #28]
 800604c:	1ad3      	subs	r3, r2, r3
 800604e:	429e      	cmp	r6, r3
 8006050:	bfa8      	it	ge
 8006052:	461e      	movge	r6, r3
 8006054:	2e00      	cmp	r6, #0
 8006056:	dd0c      	ble.n	8006072 <_vfprintf_r+0xd4a>
 8006058:	9b0a      	ldr	r3, [sp, #40]	; 0x28
 800605a:	4443      	add	r3, r8
 800605c:	e884 0048 	stmia.w	r4, {r3, r6}
 8006060:	9b23      	ldr	r3, [sp, #140]	; 0x8c
 8006062:	4433      	add	r3, r6
 8006064:	9323      	str	r3, [sp, #140]	; 0x8c
 8006066:	9b22      	ldr	r3, [sp, #136]	; 0x88
 8006068:	3301      	adds	r3, #1
 800606a:	2b07      	cmp	r3, #7
 800606c:	9322      	str	r3, [sp, #136]	; 0x88
 800606e:	dc54      	bgt.n	800611a <_vfprintf_r+0xdf2>
 8006070:	3408      	adds	r4, #8
 8006072:	9b1b      	ldr	r3, [sp, #108]	; 0x6c
 8006074:	9a07      	ldr	r2, [sp, #28]
 8006076:	2e00      	cmp	r6, #0
 8006078:	eba2 0303 	sub.w	r3, r2, r3
 800607c:	bfb4      	ite	lt
 800607e:	461e      	movlt	r6, r3
 8006080:	1b9e      	subge	r6, r3, r6
 8006082:	2e00      	cmp	r6, #0
 8006084:	f77f acc9 	ble.w	8005a1a <_vfprintf_r+0x6f2>
 8006088:	f04f 0810 	mov.w	r8, #16
 800608c:	4f2e      	ldr	r7, [pc, #184]	; (8006148 <_vfprintf_r+0xe20>)
 800608e:	2e10      	cmp	r6, #16
 8006090:	6027      	str	r7, [r4, #0]
 8006092:	f77f aee0 	ble.w	8005e56 <_vfprintf_r+0xb2e>
 8006096:	9b23      	ldr	r3, [sp, #140]	; 0x8c
 8006098:	f8c4 8004 	str.w	r8, [r4, #4]
 800609c:	3310      	adds	r3, #16
 800609e:	9323      	str	r3, [sp, #140]	; 0x8c
 80060a0:	9b22      	ldr	r3, [sp, #136]	; 0x88
 80060a2:	3301      	adds	r3, #1
 80060a4:	2b07      	cmp	r3, #7
 80060a6:	9322      	str	r3, [sp, #136]	; 0x88
 80060a8:	dc41      	bgt.n	800612e <_vfprintf_r+0xe06>
 80060aa:	3408      	adds	r4, #8
 80060ac:	3e10      	subs	r6, #16
 80060ae:	e7ee      	b.n	800608e <_vfprintf_r+0xd66>
 80060b0:	aa21      	add	r2, sp, #132	; 0x84
 80060b2:	4629      	mov	r1, r5
 80060b4:	4648      	mov	r0, r9
 80060b6:	f002 fcac 	bl	8008a12 <__sprint_r>
 80060ba:	2800      	cmp	r0, #0
 80060bc:	f040 80ec 	bne.w	8006298 <_vfprintf_r+0xf70>
 80060c0:	ac2e      	add	r4, sp, #184	; 0xb8
 80060c2:	e792      	b.n	8005fea <_vfprintf_r+0xcc2>
 80060c4:	9b23      	ldr	r3, [sp, #140]	; 0x8c
 80060c6:	f8c4 b004 	str.w	fp, [r4, #4]
 80060ca:	3310      	adds	r3, #16
 80060cc:	9323      	str	r3, [sp, #140]	; 0x8c
 80060ce:	9b22      	ldr	r3, [sp, #136]	; 0x88
 80060d0:	3301      	adds	r3, #1
 80060d2:	2b07      	cmp	r3, #7
 80060d4:	9322      	str	r3, [sp, #136]	; 0x88
 80060d6:	dc02      	bgt.n	80060de <_vfprintf_r+0xdb6>
 80060d8:	3408      	adds	r4, #8
 80060da:	3e10      	subs	r6, #16
 80060dc:	e78f      	b.n	8005ffe <_vfprintf_r+0xcd6>
 80060de:	aa21      	add	r2, sp, #132	; 0x84
 80060e0:	4629      	mov	r1, r5
 80060e2:	4648      	mov	r0, r9
 80060e4:	f002 fc95 	bl	8008a12 <__sprint_r>
 80060e8:	2800      	cmp	r0, #0
 80060ea:	f040 80d5 	bne.w	8006298 <_vfprintf_r+0xf70>
 80060ee:	ac2e      	add	r4, sp, #184	; 0xb8
 80060f0:	e7f3      	b.n	80060da <_vfprintf_r+0xdb2>
 80060f2:	aa21      	add	r2, sp, #132	; 0x84
 80060f4:	4629      	mov	r1, r5
 80060f6:	4648      	mov	r0, r9
 80060f8:	f002 fc8b 	bl	8008a12 <__sprint_r>
 80060fc:	2800      	cmp	r0, #0
 80060fe:	f040 80cb 	bne.w	8006298 <_vfprintf_r+0xf70>
 8006102:	ac2e      	add	r4, sp, #184	; 0xb8
 8006104:	e788      	b.n	8006018 <_vfprintf_r+0xcf0>
 8006106:	aa21      	add	r2, sp, #132	; 0x84
 8006108:	4629      	mov	r1, r5
 800610a:	4648      	mov	r0, r9
 800610c:	f002 fc81 	bl	8008a12 <__sprint_r>
 8006110:	2800      	cmp	r0, #0
 8006112:	f040 80c1 	bne.w	8006298 <_vfprintf_r+0xf70>
 8006116:	ac2e      	add	r4, sp, #184	; 0xb8
 8006118:	e793      	b.n	8006042 <_vfprintf_r+0xd1a>
 800611a:	aa21      	add	r2, sp, #132	; 0x84
 800611c:	4629      	mov	r1, r5
 800611e:	4648      	mov	r0, r9
 8006120:	f002 fc77 	bl	8008a12 <__sprint_r>
 8006124:	2800      	cmp	r0, #0
 8006126:	f040 80b7 	bne.w	8006298 <_vfprintf_r+0xf70>
 800612a:	ac2e      	add	r4, sp, #184	; 0xb8
 800612c:	e7a1      	b.n	8006072 <_vfprintf_r+0xd4a>
 800612e:	aa21      	add	r2, sp, #132	; 0x84
 8006130:	4629      	mov	r1, r5
 8006132:	4648      	mov	r0, r9
 8006134:	f002 fc6d 	bl	8008a12 <__sprint_r>
 8006138:	2800      	cmp	r0, #0
 800613a:	f040 80ad 	bne.w	8006298 <_vfprintf_r+0xf70>
 800613e:	ac2e      	add	r4, sp, #184	; 0xb8
 8006140:	e7b4      	b.n	80060ac <_vfprintf_r+0xd84>
 8006142:	bf00      	nop
 8006144:	080090c7 	.word	0x080090c7
 8006148:	08009353 	.word	0x08009353
 800614c:	9b07      	ldr	r3, [sp, #28]
 800614e:	2b01      	cmp	r3, #1
 8006150:	dc02      	bgt.n	8006158 <_vfprintf_r+0xe30>
 8006152:	f01a 0f01 	tst.w	sl, #1
 8006156:	d076      	beq.n	8006246 <_vfprintf_r+0xf1e>
 8006158:	2301      	movs	r3, #1
 800615a:	6063      	str	r3, [r4, #4]
 800615c:	9b23      	ldr	r3, [sp, #140]	; 0x8c
 800615e:	f8c4 8000 	str.w	r8, [r4]
 8006162:	3301      	adds	r3, #1
 8006164:	9323      	str	r3, [sp, #140]	; 0x8c
 8006166:	9b22      	ldr	r3, [sp, #136]	; 0x88
 8006168:	3301      	adds	r3, #1
 800616a:	2b07      	cmp	r3, #7
 800616c:	9322      	str	r3, [sp, #136]	; 0x88
 800616e:	dc36      	bgt.n	80061de <_vfprintf_r+0xeb6>
 8006170:	3408      	adds	r4, #8
 8006172:	9b11      	ldr	r3, [sp, #68]	; 0x44
 8006174:	9a0b      	ldr	r2, [sp, #44]	; 0x2c
 8006176:	6023      	str	r3, [r4, #0]
 8006178:	9b0b      	ldr	r3, [sp, #44]	; 0x2c
 800617a:	6063      	str	r3, [r4, #4]
 800617c:	9b23      	ldr	r3, [sp, #140]	; 0x8c
 800617e:	4413      	add	r3, r2
 8006180:	9323      	str	r3, [sp, #140]	; 0x8c
 8006182:	9b22      	ldr	r3, [sp, #136]	; 0x88
 8006184:	3301      	adds	r3, #1
 8006186:	2b07      	cmp	r3, #7
 8006188:	9322      	str	r3, [sp, #136]	; 0x88
 800618a:	dc31      	bgt.n	80061f0 <_vfprintf_r+0xec8>
 800618c:	3408      	adds	r4, #8
 800618e:	9b13      	ldr	r3, [sp, #76]	; 0x4c
 8006190:	9a12      	ldr	r2, [sp, #72]	; 0x48
 8006192:	980e      	ldr	r0, [sp, #56]	; 0x38
 8006194:	990f      	ldr	r1, [sp, #60]	; 0x3c
 8006196:	f7fa fc6f 	bl	8000a78 <__aeabi_dcmpeq>
 800619a:	9b07      	ldr	r3, [sp, #28]
 800619c:	1e5e      	subs	r6, r3, #1
 800619e:	2800      	cmp	r0, #0
 80061a0:	d12f      	bne.n	8006202 <_vfprintf_r+0xeda>
 80061a2:	f108 0301 	add.w	r3, r8, #1
 80061a6:	e884 0048 	stmia.w	r4, {r3, r6}
 80061aa:	9b23      	ldr	r3, [sp, #140]	; 0x8c
 80061ac:	9a07      	ldr	r2, [sp, #28]
 80061ae:	3b01      	subs	r3, #1
 80061b0:	4413      	add	r3, r2
 80061b2:	9323      	str	r3, [sp, #140]	; 0x8c
 80061b4:	9b22      	ldr	r3, [sp, #136]	; 0x88
 80061b6:	3301      	adds	r3, #1
 80061b8:	2b07      	cmp	r3, #7
 80061ba:	9322      	str	r3, [sp, #136]	; 0x88
 80061bc:	dd4a      	ble.n	8006254 <_vfprintf_r+0xf2c>
 80061be:	aa21      	add	r2, sp, #132	; 0x84
 80061c0:	4629      	mov	r1, r5
 80061c2:	4648      	mov	r0, r9
 80061c4:	f002 fc25 	bl	8008a12 <__sprint_r>
 80061c8:	2800      	cmp	r0, #0
 80061ca:	d165      	bne.n	8006298 <_vfprintf_r+0xf70>
 80061cc:	ac2e      	add	r4, sp, #184	; 0xb8
 80061ce:	ab1d      	add	r3, sp, #116	; 0x74
 80061d0:	6023      	str	r3, [r4, #0]
 80061d2:	9b14      	ldr	r3, [sp, #80]	; 0x50
 80061d4:	9a14      	ldr	r2, [sp, #80]	; 0x50
 80061d6:	6063      	str	r3, [r4, #4]
 80061d8:	9b23      	ldr	r3, [sp, #140]	; 0x8c
 80061da:	4413      	add	r3, r2
 80061dc:	e40d      	b.n	80059fa <_vfprintf_r+0x6d2>
 80061de:	aa21      	add	r2, sp, #132	; 0x84
 80061e0:	4629      	mov	r1, r5
 80061e2:	4648      	mov	r0, r9
 80061e4:	f002 fc15 	bl	8008a12 <__sprint_r>
 80061e8:	2800      	cmp	r0, #0
 80061ea:	d155      	bne.n	8006298 <_vfprintf_r+0xf70>
 80061ec:	ac2e      	add	r4, sp, #184	; 0xb8
 80061ee:	e7c0      	b.n	8006172 <_vfprintf_r+0xe4a>
 80061f0:	aa21      	add	r2, sp, #132	; 0x84
 80061f2:	4629      	mov	r1, r5
 80061f4:	4648      	mov	r0, r9
 80061f6:	f002 fc0c 	bl	8008a12 <__sprint_r>
 80061fa:	2800      	cmp	r0, #0
 80061fc:	d14c      	bne.n	8006298 <_vfprintf_r+0xf70>
 80061fe:	ac2e      	add	r4, sp, #184	; 0xb8
 8006200:	e7c5      	b.n	800618e <_vfprintf_r+0xe66>
 8006202:	2e00      	cmp	r6, #0
 8006204:	dde3      	ble.n	80061ce <_vfprintf_r+0xea6>
 8006206:	f04f 0810 	mov.w	r8, #16
 800620a:	4f5e      	ldr	r7, [pc, #376]	; (8006384 <_vfprintf_r+0x105c>)
 800620c:	2e10      	cmp	r6, #16
 800620e:	6027      	str	r7, [r4, #0]
 8006210:	dc04      	bgt.n	800621c <_vfprintf_r+0xef4>
 8006212:	9b23      	ldr	r3, [sp, #140]	; 0x8c
 8006214:	6066      	str	r6, [r4, #4]
 8006216:	441e      	add	r6, r3
 8006218:	9623      	str	r6, [sp, #140]	; 0x8c
 800621a:	e7cb      	b.n	80061b4 <_vfprintf_r+0xe8c>
 800621c:	9b23      	ldr	r3, [sp, #140]	; 0x8c
 800621e:	f8c4 8004 	str.w	r8, [r4, #4]
 8006222:	3310      	adds	r3, #16
 8006224:	9323      	str	r3, [sp, #140]	; 0x8c
 8006226:	9b22      	ldr	r3, [sp, #136]	; 0x88
 8006228:	3301      	adds	r3, #1
 800622a:	2b07      	cmp	r3, #7
 800622c:	9322      	str	r3, [sp, #136]	; 0x88
 800622e:	dc02      	bgt.n	8006236 <_vfprintf_r+0xf0e>
 8006230:	3408      	adds	r4, #8
 8006232:	3e10      	subs	r6, #16
 8006234:	e7ea      	b.n	800620c <_vfprintf_r+0xee4>
 8006236:	aa21      	add	r2, sp, #132	; 0x84
 8006238:	4629      	mov	r1, r5
 800623a:	4648      	mov	r0, r9
 800623c:	f002 fbe9 	bl	8008a12 <__sprint_r>
 8006240:	bb50      	cbnz	r0, 8006298 <_vfprintf_r+0xf70>
 8006242:	ac2e      	add	r4, sp, #184	; 0xb8
 8006244:	e7f5      	b.n	8006232 <_vfprintf_r+0xf0a>
 8006246:	2301      	movs	r3, #1
 8006248:	6063      	str	r3, [r4, #4]
 800624a:	9b23      	ldr	r3, [sp, #140]	; 0x8c
 800624c:	f8c4 8000 	str.w	r8, [r4]
 8006250:	3301      	adds	r3, #1
 8006252:	e7ae      	b.n	80061b2 <_vfprintf_r+0xe8a>
 8006254:	3408      	adds	r4, #8
 8006256:	e7ba      	b.n	80061ce <_vfprintf_r+0xea6>
 8006258:	3408      	adds	r4, #8
 800625a:	f7ff bbde 	b.w	8005a1a <_vfprintf_r+0x6f2>
 800625e:	9b0d      	ldr	r3, [sp, #52]	; 0x34
 8006260:	9a10      	ldr	r2, [sp, #64]	; 0x40
 8006262:	1a9e      	subs	r6, r3, r2
 8006264:	2e00      	cmp	r6, #0
 8006266:	f77f abdc 	ble.w	8005a22 <_vfprintf_r+0x6fa>
 800626a:	2710      	movs	r7, #16
 800626c:	4b46      	ldr	r3, [pc, #280]	; (8006388 <_vfprintf_r+0x1060>)
 800626e:	2e10      	cmp	r6, #16
 8006270:	6023      	str	r3, [r4, #0]
 8006272:	dc20      	bgt.n	80062b6 <_vfprintf_r+0xf8e>
 8006274:	9b23      	ldr	r3, [sp, #140]	; 0x8c
 8006276:	6066      	str	r6, [r4, #4]
 8006278:	441e      	add	r6, r3
 800627a:	9b22      	ldr	r3, [sp, #136]	; 0x88
 800627c:	9623      	str	r6, [sp, #140]	; 0x8c
 800627e:	3301      	adds	r3, #1
 8006280:	2b07      	cmp	r3, #7
 8006282:	9322      	str	r3, [sp, #136]	; 0x88
 8006284:	f77f abcd 	ble.w	8005a22 <_vfprintf_r+0x6fa>
 8006288:	aa21      	add	r2, sp, #132	; 0x84
 800628a:	4629      	mov	r1, r5
 800628c:	4648      	mov	r0, r9
 800628e:	f002 fbc0 	bl	8008a12 <__sprint_r>
 8006292:	2800      	cmp	r0, #0
 8006294:	f43f abc5 	beq.w	8005a22 <_vfprintf_r+0x6fa>
 8006298:	6e6b      	ldr	r3, [r5, #100]	; 0x64
 800629a:	07d9      	lsls	r1, r3, #31
 800629c:	d405      	bmi.n	80062aa <_vfprintf_r+0xf82>
 800629e:	89ab      	ldrh	r3, [r5, #12]
 80062a0:	059a      	lsls	r2, r3, #22
 80062a2:	d402      	bmi.n	80062aa <_vfprintf_r+0xf82>
 80062a4:	6da8      	ldr	r0, [r5, #88]	; 0x58
 80062a6:	f001 fbcc 	bl	8007a42 <__retarget_lock_release_recursive>
 80062aa:	89ab      	ldrh	r3, [r5, #12]
 80062ac:	065b      	lsls	r3, r3, #25
 80062ae:	f57f a8a8 	bpl.w	8005402 <_vfprintf_r+0xda>
 80062b2:	f7ff b87e 	b.w	80053b2 <_vfprintf_r+0x8a>
 80062b6:	9b23      	ldr	r3, [sp, #140]	; 0x8c
 80062b8:	6067      	str	r7, [r4, #4]
 80062ba:	3310      	adds	r3, #16
 80062bc:	9323      	str	r3, [sp, #140]	; 0x8c
 80062be:	9b22      	ldr	r3, [sp, #136]	; 0x88
 80062c0:	3301      	adds	r3, #1
 80062c2:	2b07      	cmp	r3, #7
 80062c4:	9322      	str	r3, [sp, #136]	; 0x88
 80062c6:	dc02      	bgt.n	80062ce <_vfprintf_r+0xfa6>
 80062c8:	3408      	adds	r4, #8
 80062ca:	3e10      	subs	r6, #16
 80062cc:	e7ce      	b.n	800626c <_vfprintf_r+0xf44>
 80062ce:	aa21      	add	r2, sp, #132	; 0x84
 80062d0:	4629      	mov	r1, r5
 80062d2:	4648      	mov	r0, r9
 80062d4:	f002 fb9d 	bl	8008a12 <__sprint_r>
 80062d8:	2800      	cmp	r0, #0
 80062da:	d1dd      	bne.n	8006298 <_vfprintf_r+0xf70>
 80062dc:	ac2e      	add	r4, sp, #184	; 0xb8
 80062de:	e7f4      	b.n	80062ca <_vfprintf_r+0xfa2>
 80062e0:	9b23      	ldr	r3, [sp, #140]	; 0x8c
 80062e2:	b913      	cbnz	r3, 80062ea <_vfprintf_r+0xfc2>
 80062e4:	2300      	movs	r3, #0
 80062e6:	9322      	str	r3, [sp, #136]	; 0x88
 80062e8:	e7d6      	b.n	8006298 <_vfprintf_r+0xf70>
 80062ea:	aa21      	add	r2, sp, #132	; 0x84
 80062ec:	4629      	mov	r1, r5
 80062ee:	4648      	mov	r0, r9
 80062f0:	f002 fb8f 	bl	8008a12 <__sprint_r>
 80062f4:	2800      	cmp	r0, #0
 80062f6:	d0f5      	beq.n	80062e4 <_vfprintf_r+0xfbc>
 80062f8:	e7ce      	b.n	8006298 <_vfprintf_r+0xf70>
 80062fa:	9a0e      	ldr	r2, [sp, #56]	; 0x38
 80062fc:	9b0f      	ldr	r3, [sp, #60]	; 0x3c
 80062fe:	980e      	ldr	r0, [sp, #56]	; 0x38
 8006300:	990f      	ldr	r1, [sp, #60]	; 0x3c
 8006302:	f7fa fbeb 	bl	8000adc <__aeabi_dcmpun>
 8006306:	2800      	cmp	r0, #0
 8006308:	f43f aa28 	beq.w	800575c <_vfprintf_r+0x434>
 800630c:	4b1f      	ldr	r3, [pc, #124]	; (800638c <_vfprintf_r+0x1064>)
 800630e:	4a20      	ldr	r2, [pc, #128]	; (8006390 <_vfprintf_r+0x1068>)
 8006310:	f7ff ba18 	b.w	8005744 <_vfprintf_r+0x41c>
 8006314:	9b1f      	ldr	r3, [sp, #124]	; 0x7c
 8006316:	1a1b      	subs	r3, r3, r0
 8006318:	9307      	str	r3, [sp, #28]
 800631a:	f7ff ba9c 	b.w	8005856 <_vfprintf_r+0x52e>
 800631e:	ea56 0207 	orrs.w	r2, r6, r7
 8006322:	f8cd a028 	str.w	sl, [sp, #40]	; 0x28
 8006326:	f43f ac1a 	beq.w	8005b5e <_vfprintf_r+0x836>
 800632a:	2b01      	cmp	r3, #1
 800632c:	f43f ac8e 	beq.w	8005c4c <_vfprintf_r+0x924>
 8006330:	2b02      	cmp	r3, #2
 8006332:	f43f acae 	beq.w	8005c92 <_vfprintf_r+0x96a>
 8006336:	ab2e      	add	r3, sp, #184	; 0xb8
 8006338:	08f1      	lsrs	r1, r6, #3
 800633a:	ea41 7147 	orr.w	r1, r1, r7, lsl #29
 800633e:	08f8      	lsrs	r0, r7, #3
 8006340:	f006 0207 	and.w	r2, r6, #7
 8006344:	4607      	mov	r7, r0
 8006346:	460e      	mov	r6, r1
 8006348:	3230      	adds	r2, #48	; 0x30
 800634a:	ea56 0107 	orrs.w	r1, r6, r7
 800634e:	f103 38ff 	add.w	r8, r3, #4294967295
 8006352:	f803 2c01 	strb.w	r2, [r3, #-1]
 8006356:	f47f ac77 	bne.w	8005c48 <_vfprintf_r+0x920>
 800635a:	990a      	ldr	r1, [sp, #40]	; 0x28
 800635c:	07c8      	lsls	r0, r1, #31
 800635e:	d506      	bpl.n	800636e <_vfprintf_r+0x1046>
 8006360:	2a30      	cmp	r2, #48	; 0x30
 8006362:	d004      	beq.n	800636e <_vfprintf_r+0x1046>
 8006364:	2230      	movs	r2, #48	; 0x30
 8006366:	f808 2c01 	strb.w	r2, [r8, #-1]
 800636a:	f1a3 0802 	sub.w	r8, r3, #2
 800636e:	ab2e      	add	r3, sp, #184	; 0xb8
 8006370:	465e      	mov	r6, fp
 8006372:	eba3 0b08 	sub.w	fp, r3, r8
 8006376:	2300      	movs	r3, #0
 8006378:	f8dd a028 	ldr.w	sl, [sp, #40]	; 0x28
 800637c:	930a      	str	r3, [sp, #40]	; 0x28
 800637e:	f7ff babb 	b.w	80058f8 <_vfprintf_r+0x5d0>
 8006382:	bf00      	nop
 8006384:	08009353 	.word	0x08009353
 8006388:	08009343 	.word	0x08009343
 800638c:	080092f9 	.word	0x080092f9
 8006390:	080092fd 	.word	0x080092fd

08006394 <__sbprintf>:
 8006394:	b5f0      	push	{r4, r5, r6, r7, lr}
 8006396:	460c      	mov	r4, r1
 8006398:	461f      	mov	r7, r3
 800639a:	6e63      	ldr	r3, [r4, #100]	; 0x64
 800639c:	f2ad 4d6c 	subw	sp, sp, #1132	; 0x46c
 80063a0:	9319      	str	r3, [sp, #100]	; 0x64
 80063a2:	89e3      	ldrh	r3, [r4, #14]
 80063a4:	8989      	ldrh	r1, [r1, #12]
 80063a6:	f8ad 300e 	strh.w	r3, [sp, #14]
 80063aa:	6a23      	ldr	r3, [r4, #32]
 80063ac:	f021 0102 	bic.w	r1, r1, #2
 80063b0:	9308      	str	r3, [sp, #32]
 80063b2:	6aa3      	ldr	r3, [r4, #40]	; 0x28
 80063b4:	f8ad 100c 	strh.w	r1, [sp, #12]
 80063b8:	a91a      	add	r1, sp, #104	; 0x68
 80063ba:	4615      	mov	r5, r2
 80063bc:	4606      	mov	r6, r0
 80063be:	930a      	str	r3, [sp, #40]	; 0x28
 80063c0:	9100      	str	r1, [sp, #0]
 80063c2:	2300      	movs	r3, #0
 80063c4:	9104      	str	r1, [sp, #16]
 80063c6:	f44f 6180 	mov.w	r1, #1024	; 0x400
 80063ca:	a816      	add	r0, sp, #88	; 0x58
 80063cc:	9102      	str	r1, [sp, #8]
 80063ce:	9105      	str	r1, [sp, #20]
 80063d0:	9306      	str	r3, [sp, #24]
 80063d2:	f001 fb33 	bl	8007a3c <__retarget_lock_init_recursive>
 80063d6:	462a      	mov	r2, r5
 80063d8:	463b      	mov	r3, r7
 80063da:	4669      	mov	r1, sp
 80063dc:	4630      	mov	r0, r6
 80063de:	f7fe ffa3 	bl	8005328 <_vfprintf_r>
 80063e2:	1e05      	subs	r5, r0, #0
 80063e4:	db07      	blt.n	80063f6 <__sbprintf+0x62>
 80063e6:	4669      	mov	r1, sp
 80063e8:	4630      	mov	r0, r6
 80063ea:	f000 ff73 	bl	80072d4 <_fflush_r>
 80063ee:	2800      	cmp	r0, #0
 80063f0:	bf18      	it	ne
 80063f2:	f04f 35ff 	movne.w	r5, #4294967295
 80063f6:	f8bd 300c 	ldrh.w	r3, [sp, #12]
 80063fa:	9816      	ldr	r0, [sp, #88]	; 0x58
 80063fc:	065b      	lsls	r3, r3, #25
 80063fe:	bf42      	ittt	mi
 8006400:	89a3      	ldrhmi	r3, [r4, #12]
 8006402:	f043 0340 	orrmi.w	r3, r3, #64	; 0x40
 8006406:	81a3      	strhmi	r3, [r4, #12]
 8006408:	f001 fb19 	bl	8007a3e <__retarget_lock_close_recursive>
 800640c:	4628      	mov	r0, r5
 800640e:	f20d 4d6c 	addw	sp, sp, #1132	; 0x46c
 8006412:	bdf0      	pop	{r4, r5, r6, r7, pc}

08006414 <__swsetup_r>:
 8006414:	4b32      	ldr	r3, [pc, #200]	; (80064e0 <__swsetup_r+0xcc>)
 8006416:	b570      	push	{r4, r5, r6, lr}
 8006418:	681d      	ldr	r5, [r3, #0]
 800641a:	4606      	mov	r6, r0
 800641c:	460c      	mov	r4, r1
 800641e:	b125      	cbz	r5, 800642a <__swsetup_r+0x16>
 8006420:	69ab      	ldr	r3, [r5, #24]
 8006422:	b913      	cbnz	r3, 800642a <__swsetup_r+0x16>
 8006424:	4628      	mov	r0, r5
 8006426:	f000 ffe9 	bl	80073fc <__sinit>
 800642a:	4b2e      	ldr	r3, [pc, #184]	; (80064e4 <__swsetup_r+0xd0>)
 800642c:	429c      	cmp	r4, r3
 800642e:	d10f      	bne.n	8006450 <__swsetup_r+0x3c>
 8006430:	686c      	ldr	r4, [r5, #4]
 8006432:	f9b4 300c 	ldrsh.w	r3, [r4, #12]
 8006436:	b29a      	uxth	r2, r3
 8006438:	0715      	lsls	r5, r2, #28
 800643a:	d42c      	bmi.n	8006496 <__swsetup_r+0x82>
 800643c:	06d0      	lsls	r0, r2, #27
 800643e:	d411      	bmi.n	8006464 <__swsetup_r+0x50>
 8006440:	2209      	movs	r2, #9
 8006442:	6032      	str	r2, [r6, #0]
 8006444:	f043 0340 	orr.w	r3, r3, #64	; 0x40
 8006448:	81a3      	strh	r3, [r4, #12]
 800644a:	f04f 30ff 	mov.w	r0, #4294967295
 800644e:	bd70      	pop	{r4, r5, r6, pc}
 8006450:	4b25      	ldr	r3, [pc, #148]	; (80064e8 <__swsetup_r+0xd4>)
 8006452:	429c      	cmp	r4, r3
 8006454:	d101      	bne.n	800645a <__swsetup_r+0x46>
 8006456:	68ac      	ldr	r4, [r5, #8]
 8006458:	e7eb      	b.n	8006432 <__swsetup_r+0x1e>
 800645a:	4b24      	ldr	r3, [pc, #144]	; (80064ec <__swsetup_r+0xd8>)
 800645c:	429c      	cmp	r4, r3
 800645e:	bf08      	it	eq
 8006460:	68ec      	ldreq	r4, [r5, #12]
 8006462:	e7e6      	b.n	8006432 <__swsetup_r+0x1e>
 8006464:	0751      	lsls	r1, r2, #29
 8006466:	d512      	bpl.n	800648e <__swsetup_r+0x7a>
 8006468:	6b61      	ldr	r1, [r4, #52]	; 0x34
 800646a:	b141      	cbz	r1, 800647e <__swsetup_r+0x6a>
 800646c:	f104 0344 	add.w	r3, r4, #68	; 0x44
 8006470:	4299      	cmp	r1, r3
 8006472:	d002      	beq.n	800647a <__swsetup_r+0x66>
 8006474:	4630      	mov	r0, r6
 8006476:	f001 f899 	bl	80075ac <_free_r>
 800647a:	2300      	movs	r3, #0
 800647c:	6363      	str	r3, [r4, #52]	; 0x34
 800647e:	89a3      	ldrh	r3, [r4, #12]
 8006480:	f023 0324 	bic.w	r3, r3, #36	; 0x24
 8006484:	81a3      	strh	r3, [r4, #12]
 8006486:	2300      	movs	r3, #0
 8006488:	6063      	str	r3, [r4, #4]
 800648a:	6923      	ldr	r3, [r4, #16]
 800648c:	6023      	str	r3, [r4, #0]
 800648e:	89a3      	ldrh	r3, [r4, #12]
 8006490:	f043 0308 	orr.w	r3, r3, #8
 8006494:	81a3      	strh	r3, [r4, #12]
 8006496:	6923      	ldr	r3, [r4, #16]
 8006498:	b94b      	cbnz	r3, 80064ae <__swsetup_r+0x9a>
 800649a:	89a3      	ldrh	r3, [r4, #12]
 800649c:	f403 7320 	and.w	r3, r3, #640	; 0x280
 80064a0:	f5b3 7f00 	cmp.w	r3, #512	; 0x200
 80064a4:	d003      	beq.n	80064ae <__swsetup_r+0x9a>
 80064a6:	4621      	mov	r1, r4
 80064a8:	4630      	mov	r0, r6
 80064aa:	f001 faf7 	bl	8007a9c <__smakebuf_r>
 80064ae:	89a2      	ldrh	r2, [r4, #12]
 80064b0:	f012 0301 	ands.w	r3, r2, #1
 80064b4:	d00c      	beq.n	80064d0 <__swsetup_r+0xbc>
 80064b6:	2300      	movs	r3, #0
 80064b8:	60a3      	str	r3, [r4, #8]
 80064ba:	6963      	ldr	r3, [r4, #20]
 80064bc:	425b      	negs	r3, r3
 80064be:	61a3      	str	r3, [r4, #24]
 80064c0:	6923      	ldr	r3, [r4, #16]
 80064c2:	b953      	cbnz	r3, 80064da <__swsetup_r+0xc6>
 80064c4:	f9b4 300c 	ldrsh.w	r3, [r4, #12]
 80064c8:	f013 0080 	ands.w	r0, r3, #128	; 0x80
 80064cc:	d1ba      	bne.n	8006444 <__swsetup_r+0x30>
 80064ce:	bd70      	pop	{r4, r5, r6, pc}
 80064d0:	0792      	lsls	r2, r2, #30
 80064d2:	bf58      	it	pl
 80064d4:	6963      	ldrpl	r3, [r4, #20]
 80064d6:	60a3      	str	r3, [r4, #8]
 80064d8:	e7f2      	b.n	80064c0 <__swsetup_r+0xac>
 80064da:	2000      	movs	r0, #0
 80064dc:	e7f7      	b.n	80064ce <__swsetup_r+0xba>
 80064de:	bf00      	nop
 80064e0:	2000005c 	.word	0x2000005c
 80064e4:	08009390 	.word	0x08009390
 80064e8:	080093b0 	.word	0x080093b0
 80064ec:	08009370 	.word	0x08009370

080064f0 <quorem>:
 80064f0:	e92d 4ff7 	stmdb	sp!, {r0, r1, r2, r4, r5, r6, r7, r8, r9, sl, fp, lr}
 80064f4:	6903      	ldr	r3, [r0, #16]
 80064f6:	690c      	ldr	r4, [r1, #16]
 80064f8:	4680      	mov	r8, r0
 80064fa:	429c      	cmp	r4, r3
 80064fc:	f300 8082 	bgt.w	8006604 <quorem+0x114>
 8006500:	3c01      	subs	r4, #1
 8006502:	f101 0714 	add.w	r7, r1, #20
 8006506:	f100 0614 	add.w	r6, r0, #20
 800650a:	f857 5024 	ldr.w	r5, [r7, r4, lsl #2]
 800650e:	f856 0024 	ldr.w	r0, [r6, r4, lsl #2]
 8006512:	3501      	adds	r5, #1
 8006514:	fbb0 f5f5 	udiv	r5, r0, r5
 8006518:	ea4f 0e84 	mov.w	lr, r4, lsl #2
 800651c:	eb06 030e 	add.w	r3, r6, lr
 8006520:	eb07 090e 	add.w	r9, r7, lr
 8006524:	9301      	str	r3, [sp, #4]
 8006526:	b38d      	cbz	r5, 800658c <quorem+0x9c>
 8006528:	f04f 0a00 	mov.w	sl, #0
 800652c:	4638      	mov	r0, r7
 800652e:	46b4      	mov	ip, r6
 8006530:	46d3      	mov	fp, sl
 8006532:	f850 2b04 	ldr.w	r2, [r0], #4
 8006536:	b293      	uxth	r3, r2
 8006538:	fb05 a303 	mla	r3, r5, r3, sl
 800653c:	0c12      	lsrs	r2, r2, #16
 800653e:	ea4f 4a13 	mov.w	sl, r3, lsr #16
 8006542:	fb05 a202 	mla	r2, r5, r2, sl
 8006546:	b29b      	uxth	r3, r3
 8006548:	ebab 0303 	sub.w	r3, fp, r3
 800654c:	f8bc b000 	ldrh.w	fp, [ip]
 8006550:	ea4f 4a12 	mov.w	sl, r2, lsr #16
 8006554:	445b      	add	r3, fp
 8006556:	fa1f fb82 	uxth.w	fp, r2
 800655a:	f8dc 2000 	ldr.w	r2, [ip]
 800655e:	4581      	cmp	r9, r0
 8006560:	ebcb 4212 	rsb	r2, fp, r2, lsr #16
 8006564:	eb02 4223 	add.w	r2, r2, r3, asr #16
 8006568:	b29b      	uxth	r3, r3
 800656a:	ea43 4302 	orr.w	r3, r3, r2, lsl #16
 800656e:	ea4f 4b22 	mov.w	fp, r2, asr #16
 8006572:	f84c 3b04 	str.w	r3, [ip], #4
 8006576:	d2dc      	bcs.n	8006532 <quorem+0x42>
 8006578:	f856 300e 	ldr.w	r3, [r6, lr]
 800657c:	b933      	cbnz	r3, 800658c <quorem+0x9c>
 800657e:	9b01      	ldr	r3, [sp, #4]
 8006580:	3b04      	subs	r3, #4
 8006582:	429e      	cmp	r6, r3
 8006584:	461a      	mov	r2, r3
 8006586:	d331      	bcc.n	80065ec <quorem+0xfc>
 8006588:	f8c8 4010 	str.w	r4, [r8, #16]
 800658c:	4640      	mov	r0, r8
 800658e:	f001 ff28 	bl	80083e2 <__mcmp>
 8006592:	2800      	cmp	r0, #0
 8006594:	db26      	blt.n	80065e4 <quorem+0xf4>
 8006596:	4630      	mov	r0, r6
 8006598:	f04f 0e00 	mov.w	lr, #0
 800659c:	3501      	adds	r5, #1
 800659e:	f857 1b04 	ldr.w	r1, [r7], #4
 80065a2:	f8d0 c000 	ldr.w	ip, [r0]
 80065a6:	b28b      	uxth	r3, r1
 80065a8:	ebae 0303 	sub.w	r3, lr, r3
 80065ac:	fa1f f28c 	uxth.w	r2, ip
 80065b0:	4413      	add	r3, r2
 80065b2:	0c0a      	lsrs	r2, r1, #16
 80065b4:	ebc2 421c 	rsb	r2, r2, ip, lsr #16
 80065b8:	eb02 4223 	add.w	r2, r2, r3, asr #16
 80065bc:	b29b      	uxth	r3, r3
 80065be:	ea43 4302 	orr.w	r3, r3, r2, lsl #16
 80065c2:	45b9      	cmp	r9, r7
 80065c4:	ea4f 4e22 	mov.w	lr, r2, asr #16
 80065c8:	f840 3b04 	str.w	r3, [r0], #4
 80065cc:	d2e7      	bcs.n	800659e <quorem+0xae>
 80065ce:	f856 2024 	ldr.w	r2, [r6, r4, lsl #2]
 80065d2:	eb06 0384 	add.w	r3, r6, r4, lsl #2
 80065d6:	b92a      	cbnz	r2, 80065e4 <quorem+0xf4>
 80065d8:	3b04      	subs	r3, #4
 80065da:	429e      	cmp	r6, r3
 80065dc:	461a      	mov	r2, r3
 80065de:	d30b      	bcc.n	80065f8 <quorem+0x108>
 80065e0:	f8c8 4010 	str.w	r4, [r8, #16]
 80065e4:	4628      	mov	r0, r5
 80065e6:	b003      	add	sp, #12
 80065e8:	e8bd 8ff0 	ldmia.w	sp!, {r4, r5, r6, r7, r8, r9, sl, fp, pc}
 80065ec:	6812      	ldr	r2, [r2, #0]
 80065ee:	3b04      	subs	r3, #4
 80065f0:	2a00      	cmp	r2, #0
 80065f2:	d1c9      	bne.n	8006588 <quorem+0x98>
 80065f4:	3c01      	subs	r4, #1
 80065f6:	e7c4      	b.n	8006582 <quorem+0x92>
 80065f8:	6812      	ldr	r2, [r2, #0]
 80065fa:	3b04      	subs	r3, #4
 80065fc:	2a00      	cmp	r2, #0
 80065fe:	d1ef      	bne.n	80065e0 <quorem+0xf0>
 8006600:	3c01      	subs	r4, #1
 8006602:	e7ea      	b.n	80065da <quorem+0xea>
 8006604:	2000      	movs	r0, #0
 8006606:	e7ee      	b.n	80065e6 <quorem+0xf6>

08006608 <_dtoa_r>:
 8006608:	e92d 4ff0 	stmdb	sp!, {r4, r5, r6, r7, r8, r9, sl, fp, lr}
 800660c:	6a46      	ldr	r6, [r0, #36]	; 0x24
 800660e:	b095      	sub	sp, #84	; 0x54
 8006610:	4604      	mov	r4, r0
 8006612:	9d21      	ldr	r5, [sp, #132]	; 0x84
 8006614:	e9cd 2302 	strd	r2, r3, [sp, #8]
 8006618:	b93e      	cbnz	r6, 800662a <_dtoa_r+0x22>
 800661a:	2010      	movs	r0, #16
 800661c:	f001 fa7e 	bl	8007b1c <malloc>
 8006620:	6260      	str	r0, [r4, #36]	; 0x24
 8006622:	6046      	str	r6, [r0, #4]
 8006624:	6086      	str	r6, [r0, #8]
 8006626:	6006      	str	r6, [r0, #0]
 8006628:	60c6      	str	r6, [r0, #12]
 800662a:	6a63      	ldr	r3, [r4, #36]	; 0x24
 800662c:	6819      	ldr	r1, [r3, #0]
 800662e:	b151      	cbz	r1, 8006646 <_dtoa_r+0x3e>
 8006630:	685a      	ldr	r2, [r3, #4]
 8006632:	2301      	movs	r3, #1
 8006634:	4093      	lsls	r3, r2
 8006636:	604a      	str	r2, [r1, #4]
 8006638:	608b      	str	r3, [r1, #8]
 800663a:	4620      	mov	r0, r4
 800663c:	f001 fcfc 	bl	8008038 <_Bfree>
 8006640:	2200      	movs	r2, #0
 8006642:	6a63      	ldr	r3, [r4, #36]	; 0x24
 8006644:	601a      	str	r2, [r3, #0]
 8006646:	9b03      	ldr	r3, [sp, #12]
 8006648:	2b00      	cmp	r3, #0
 800664a:	bfb7      	itett	lt
 800664c:	2301      	movlt	r3, #1
 800664e:	2300      	movge	r3, #0
 8006650:	602b      	strlt	r3, [r5, #0]
 8006652:	9b03      	ldrlt	r3, [sp, #12]
 8006654:	bfae      	itee	ge
 8006656:	602b      	strge	r3, [r5, #0]
 8006658:	f023 4300 	biclt.w	r3, r3, #2147483648	; 0x80000000
 800665c:	9303      	strlt	r3, [sp, #12]
 800665e:	f8dd 900c 	ldr.w	r9, [sp, #12]
 8006662:	4bab      	ldr	r3, [pc, #684]	; (8006910 <_dtoa_r+0x308>)
 8006664:	ea33 0309 	bics.w	r3, r3, r9
 8006668:	d11b      	bne.n	80066a2 <_dtoa_r+0x9a>
 800666a:	f242 730f 	movw	r3, #9999	; 0x270f
 800666e:	9a20      	ldr	r2, [sp, #128]	; 0x80
 8006670:	6013      	str	r3, [r2, #0]
 8006672:	9b02      	ldr	r3, [sp, #8]
 8006674:	b923      	cbnz	r3, 8006680 <_dtoa_r+0x78>
 8006676:	f3c9 0013 	ubfx	r0, r9, #0, #20
 800667a:	2800      	cmp	r0, #0
 800667c:	f000 8583 	beq.w	8007186 <_dtoa_r+0xb7e>
 8006680:	9b22      	ldr	r3, [sp, #136]	; 0x88
 8006682:	b953      	cbnz	r3, 800669a <_dtoa_r+0x92>
 8006684:	4ba3      	ldr	r3, [pc, #652]	; (8006914 <_dtoa_r+0x30c>)
 8006686:	e021      	b.n	80066cc <_dtoa_r+0xc4>
 8006688:	4ba3      	ldr	r3, [pc, #652]	; (8006918 <_dtoa_r+0x310>)
 800668a:	9306      	str	r3, [sp, #24]
 800668c:	3308      	adds	r3, #8
 800668e:	9a22      	ldr	r2, [sp, #136]	; 0x88
 8006690:	6013      	str	r3, [r2, #0]
 8006692:	9806      	ldr	r0, [sp, #24]
 8006694:	b015      	add	sp, #84	; 0x54
 8006696:	e8bd 8ff0 	ldmia.w	sp!, {r4, r5, r6, r7, r8, r9, sl, fp, pc}
 800669a:	4b9e      	ldr	r3, [pc, #632]	; (8006914 <_dtoa_r+0x30c>)
 800669c:	9306      	str	r3, [sp, #24]
 800669e:	3303      	adds	r3, #3
 80066a0:	e7f5      	b.n	800668e <_dtoa_r+0x86>
 80066a2:	e9dd 6702 	ldrd	r6, r7, [sp, #8]
 80066a6:	2200      	movs	r2, #0
 80066a8:	2300      	movs	r3, #0
 80066aa:	4630      	mov	r0, r6
 80066ac:	4639      	mov	r1, r7
 80066ae:	f7fa f9e3 	bl	8000a78 <__aeabi_dcmpeq>
 80066b2:	4680      	mov	r8, r0
 80066b4:	b160      	cbz	r0, 80066d0 <_dtoa_r+0xc8>
 80066b6:	2301      	movs	r3, #1
 80066b8:	9a20      	ldr	r2, [sp, #128]	; 0x80
 80066ba:	6013      	str	r3, [r2, #0]
 80066bc:	9b22      	ldr	r3, [sp, #136]	; 0x88
 80066be:	2b00      	cmp	r3, #0
 80066c0:	f000 855e 	beq.w	8007180 <_dtoa_r+0xb78>
 80066c4:	4b95      	ldr	r3, [pc, #596]	; (800691c <_dtoa_r+0x314>)
 80066c6:	9a22      	ldr	r2, [sp, #136]	; 0x88
 80066c8:	6013      	str	r3, [r2, #0]
 80066ca:	3b01      	subs	r3, #1
 80066cc:	9306      	str	r3, [sp, #24]
 80066ce:	e7e0      	b.n	8006692 <_dtoa_r+0x8a>
 80066d0:	ab12      	add	r3, sp, #72	; 0x48
 80066d2:	9301      	str	r3, [sp, #4]
 80066d4:	ab13      	add	r3, sp, #76	; 0x4c
 80066d6:	9300      	str	r3, [sp, #0]
 80066d8:	4632      	mov	r2, r6
 80066da:	463b      	mov	r3, r7
 80066dc:	4620      	mov	r0, r4
 80066de:	f001 fef9 	bl	80084d4 <__d2b>
 80066e2:	f3c9 550a 	ubfx	r5, r9, #20, #11
 80066e6:	4682      	mov	sl, r0
 80066e8:	2d00      	cmp	r5, #0
 80066ea:	d07d      	beq.n	80067e8 <_dtoa_r+0x1e0>
 80066ec:	4630      	mov	r0, r6
 80066ee:	f3c7 0313 	ubfx	r3, r7, #0, #20
 80066f2:	f043 517f 	orr.w	r1, r3, #1069547520	; 0x3fc00000
 80066f6:	f441 1140 	orr.w	r1, r1, #3145728	; 0x300000
 80066fa:	f2a5 35ff 	subw	r5, r5, #1023	; 0x3ff
 80066fe:	f8cd 8040 	str.w	r8, [sp, #64]	; 0x40
 8006702:	2200      	movs	r2, #0
 8006704:	4b86      	ldr	r3, [pc, #536]	; (8006920 <_dtoa_r+0x318>)
 8006706:	f7f9 fd9b 	bl	8000240 <__aeabi_dsub>
 800670a:	a37b      	add	r3, pc, #492	; (adr r3, 80068f8 <_dtoa_r+0x2f0>)
 800670c:	e9d3 2300 	ldrd	r2, r3, [r3]
 8006710:	f7f9 ff4a 	bl	80005a8 <__aeabi_dmul>
 8006714:	a37a      	add	r3, pc, #488	; (adr r3, 8006900 <_dtoa_r+0x2f8>)
 8006716:	e9d3 2300 	ldrd	r2, r3, [r3]
 800671a:	f7f9 fd93 	bl	8000244 <__adddf3>
 800671e:	4606      	mov	r6, r0
 8006720:	4628      	mov	r0, r5
 8006722:	460f      	mov	r7, r1
 8006724:	f7f9 feda 	bl	80004dc <__aeabi_i2d>
 8006728:	a377      	add	r3, pc, #476	; (adr r3, 8006908 <_dtoa_r+0x300>)
 800672a:	e9d3 2300 	ldrd	r2, r3, [r3]
 800672e:	f7f9 ff3b 	bl	80005a8 <__aeabi_dmul>
 8006732:	4602      	mov	r2, r0
 8006734:	460b      	mov	r3, r1
 8006736:	4630      	mov	r0, r6
 8006738:	4639      	mov	r1, r7
 800673a:	f7f9 fd83 	bl	8000244 <__adddf3>
 800673e:	4606      	mov	r6, r0
 8006740:	460f      	mov	r7, r1
 8006742:	f7fa f9e1 	bl	8000b08 <__aeabi_d2iz>
 8006746:	2200      	movs	r2, #0
 8006748:	4683      	mov	fp, r0
 800674a:	2300      	movs	r3, #0
 800674c:	4630      	mov	r0, r6
 800674e:	4639      	mov	r1, r7
 8006750:	f7fa f99c 	bl	8000a8c <__aeabi_dcmplt>
 8006754:	b158      	cbz	r0, 800676e <_dtoa_r+0x166>
 8006756:	4658      	mov	r0, fp
 8006758:	f7f9 fec0 	bl	80004dc <__aeabi_i2d>
 800675c:	4602      	mov	r2, r0
 800675e:	460b      	mov	r3, r1
 8006760:	4630      	mov	r0, r6
 8006762:	4639      	mov	r1, r7
 8006764:	f7fa f988 	bl	8000a78 <__aeabi_dcmpeq>
 8006768:	b908      	cbnz	r0, 800676e <_dtoa_r+0x166>
 800676a:	f10b 3bff 	add.w	fp, fp, #4294967295
 800676e:	f1bb 0f16 	cmp.w	fp, #22
 8006772:	d858      	bhi.n	8006826 <_dtoa_r+0x21e>
 8006774:	e9dd 2302 	ldrd	r2, r3, [sp, #8]
 8006778:	496a      	ldr	r1, [pc, #424]	; (8006924 <_dtoa_r+0x31c>)
 800677a:	eb01 01cb 	add.w	r1, r1, fp, lsl #3
 800677e:	e9d1 0100 	ldrd	r0, r1, [r1]
 8006782:	f7fa f9a1 	bl	8000ac8 <__aeabi_dcmpgt>
 8006786:	2800      	cmp	r0, #0
 8006788:	d04f      	beq.n	800682a <_dtoa_r+0x222>
 800678a:	2300      	movs	r3, #0
 800678c:	f10b 3bff 	add.w	fp, fp, #4294967295
 8006790:	930d      	str	r3, [sp, #52]	; 0x34
 8006792:	9b12      	ldr	r3, [sp, #72]	; 0x48
 8006794:	1b5d      	subs	r5, r3, r5
 8006796:	1e6b      	subs	r3, r5, #1
 8006798:	9307      	str	r3, [sp, #28]
 800679a:	bf43      	ittte	mi
 800679c:	2300      	movmi	r3, #0
 800679e:	f1c5 0801 	rsbmi	r8, r5, #1
 80067a2:	9307      	strmi	r3, [sp, #28]
 80067a4:	f04f 0800 	movpl.w	r8, #0
 80067a8:	f1bb 0f00 	cmp.w	fp, #0
 80067ac:	db3f      	blt.n	800682e <_dtoa_r+0x226>
 80067ae:	9b07      	ldr	r3, [sp, #28]
 80067b0:	f8cd b030 	str.w	fp, [sp, #48]	; 0x30
 80067b4:	445b      	add	r3, fp
 80067b6:	9307      	str	r3, [sp, #28]
 80067b8:	2300      	movs	r3, #0
 80067ba:	9308      	str	r3, [sp, #32]
 80067bc:	9b1e      	ldr	r3, [sp, #120]	; 0x78
 80067be:	2b09      	cmp	r3, #9
 80067c0:	f200 80b4 	bhi.w	800692c <_dtoa_r+0x324>
 80067c4:	2b05      	cmp	r3, #5
 80067c6:	bfc4      	itt	gt
 80067c8:	3b04      	subgt	r3, #4
 80067ca:	931e      	strgt	r3, [sp, #120]	; 0x78
 80067cc:	9b1e      	ldr	r3, [sp, #120]	; 0x78
 80067ce:	bfc8      	it	gt
 80067d0:	2600      	movgt	r6, #0
 80067d2:	f1a3 0302 	sub.w	r3, r3, #2
 80067d6:	bfd8      	it	le
 80067d8:	2601      	movle	r6, #1
 80067da:	2b03      	cmp	r3, #3
 80067dc:	f200 80b2 	bhi.w	8006944 <_dtoa_r+0x33c>
 80067e0:	e8df f003 	tbb	[pc, r3]
 80067e4:	782d8684 	.word	0x782d8684
 80067e8:	9b13      	ldr	r3, [sp, #76]	; 0x4c
 80067ea:	9d12      	ldr	r5, [sp, #72]	; 0x48
 80067ec:	441d      	add	r5, r3
 80067ee:	f205 4332 	addw	r3, r5, #1074	; 0x432
 80067f2:	2b20      	cmp	r3, #32
 80067f4:	dd11      	ble.n	800681a <_dtoa_r+0x212>
 80067f6:	9a02      	ldr	r2, [sp, #8]
 80067f8:	f205 4012 	addw	r0, r5, #1042	; 0x412
 80067fc:	f1c3 0340 	rsb	r3, r3, #64	; 0x40
 8006800:	fa22 f000 	lsr.w	r0, r2, r0
 8006804:	fa09 f303 	lsl.w	r3, r9, r3
 8006808:	4318      	orrs	r0, r3
 800680a:	f7f9 fe57 	bl	80004bc <__aeabi_ui2d>
 800680e:	2301      	movs	r3, #1
 8006810:	f1a1 71f8 	sub.w	r1, r1, #32505856	; 0x1f00000
 8006814:	3d01      	subs	r5, #1
 8006816:	9310      	str	r3, [sp, #64]	; 0x40
 8006818:	e773      	b.n	8006702 <_dtoa_r+0xfa>
 800681a:	f1c3 0020 	rsb	r0, r3, #32
 800681e:	9b02      	ldr	r3, [sp, #8]
 8006820:	fa03 f000 	lsl.w	r0, r3, r0
 8006824:	e7f1      	b.n	800680a <_dtoa_r+0x202>
 8006826:	2301      	movs	r3, #1
 8006828:	e7b2      	b.n	8006790 <_dtoa_r+0x188>
 800682a:	900d      	str	r0, [sp, #52]	; 0x34
 800682c:	e7b1      	b.n	8006792 <_dtoa_r+0x18a>
 800682e:	f1cb 0300 	rsb	r3, fp, #0
 8006832:	9308      	str	r3, [sp, #32]
 8006834:	2300      	movs	r3, #0
 8006836:	eba8 080b 	sub.w	r8, r8, fp
 800683a:	930c      	str	r3, [sp, #48]	; 0x30
 800683c:	e7be      	b.n	80067bc <_dtoa_r+0x1b4>
 800683e:	2301      	movs	r3, #1
 8006840:	9309      	str	r3, [sp, #36]	; 0x24
 8006842:	9b1f      	ldr	r3, [sp, #124]	; 0x7c
 8006844:	2b00      	cmp	r3, #0
 8006846:	f340 8080 	ble.w	800694a <_dtoa_r+0x342>
 800684a:	4699      	mov	r9, r3
 800684c:	9304      	str	r3, [sp, #16]
 800684e:	2200      	movs	r2, #0
 8006850:	2104      	movs	r1, #4
 8006852:	6a65      	ldr	r5, [r4, #36]	; 0x24
 8006854:	606a      	str	r2, [r5, #4]
 8006856:	f101 0214 	add.w	r2, r1, #20
 800685a:	429a      	cmp	r2, r3
 800685c:	d97a      	bls.n	8006954 <_dtoa_r+0x34c>
 800685e:	6869      	ldr	r1, [r5, #4]
 8006860:	4620      	mov	r0, r4
 8006862:	f001 fbb5 	bl	8007fd0 <_Balloc>
 8006866:	6a63      	ldr	r3, [r4, #36]	; 0x24
 8006868:	6028      	str	r0, [r5, #0]
 800686a:	681b      	ldr	r3, [r3, #0]
 800686c:	f1b9 0f0e 	cmp.w	r9, #14
 8006870:	9306      	str	r3, [sp, #24]
 8006872:	f200 80f0 	bhi.w	8006a56 <_dtoa_r+0x44e>
 8006876:	2e00      	cmp	r6, #0
 8006878:	f000 80ed 	beq.w	8006a56 <_dtoa_r+0x44e>
 800687c:	e9dd 2302 	ldrd	r2, r3, [sp, #8]
 8006880:	f1bb 0f00 	cmp.w	fp, #0
 8006884:	e9cd 230e 	strd	r2, r3, [sp, #56]	; 0x38
 8006888:	dd79      	ble.n	800697e <_dtoa_r+0x376>
 800688a:	4a26      	ldr	r2, [pc, #152]	; (8006924 <_dtoa_r+0x31c>)
 800688c:	f00b 030f 	and.w	r3, fp, #15
 8006890:	ea4f 162b 	mov.w	r6, fp, asr #4
 8006894:	eb02 03c3 	add.w	r3, r2, r3, lsl #3
 8006898:	06f0      	lsls	r0, r6, #27
 800689a:	e9d3 2300 	ldrd	r2, r3, [r3]
 800689e:	e9cd 230a 	strd	r2, r3, [sp, #40]	; 0x28
 80068a2:	d55c      	bpl.n	800695e <_dtoa_r+0x356>
 80068a4:	e9dd 010e 	ldrd	r0, r1, [sp, #56]	; 0x38
 80068a8:	4b1f      	ldr	r3, [pc, #124]	; (8006928 <_dtoa_r+0x320>)
 80068aa:	2503      	movs	r5, #3
 80068ac:	e9d3 2308 	ldrd	r2, r3, [r3, #32]
 80068b0:	f7f9 ffa4 	bl	80007fc <__aeabi_ddiv>
 80068b4:	e9cd 0102 	strd	r0, r1, [sp, #8]
 80068b8:	f006 060f 	and.w	r6, r6, #15
 80068bc:	4f1a      	ldr	r7, [pc, #104]	; (8006928 <_dtoa_r+0x320>)
 80068be:	2e00      	cmp	r6, #0
 80068c0:	d14f      	bne.n	8006962 <_dtoa_r+0x35a>
 80068c2:	e9dd 230a 	ldrd	r2, r3, [sp, #40]	; 0x28
 80068c6:	e9dd 0102 	ldrd	r0, r1, [sp, #8]
 80068ca:	f7f9 ff97 	bl	80007fc <__aeabi_ddiv>
 80068ce:	e9cd 0102 	strd	r0, r1, [sp, #8]
 80068d2:	e06e      	b.n	80069b2 <_dtoa_r+0x3aa>
 80068d4:	2301      	movs	r3, #1
 80068d6:	9309      	str	r3, [sp, #36]	; 0x24
 80068d8:	9b1f      	ldr	r3, [sp, #124]	; 0x7c
 80068da:	445b      	add	r3, fp
 80068dc:	f103 0901 	add.w	r9, r3, #1
 80068e0:	9304      	str	r3, [sp, #16]
 80068e2:	464b      	mov	r3, r9
 80068e4:	2b01      	cmp	r3, #1
 80068e6:	bfb8      	it	lt
 80068e8:	2301      	movlt	r3, #1
 80068ea:	e7b0      	b.n	800684e <_dtoa_r+0x246>
 80068ec:	2300      	movs	r3, #0
 80068ee:	e7a7      	b.n	8006840 <_dtoa_r+0x238>
 80068f0:	2300      	movs	r3, #0
 80068f2:	e7f0      	b.n	80068d6 <_dtoa_r+0x2ce>
 80068f4:	f3af 8000 	nop.w
 80068f8:	636f4361 	.word	0x636f4361
 80068fc:	3fd287a7 	.word	0x3fd287a7
 8006900:	8b60c8b3 	.word	0x8b60c8b3
 8006904:	3fc68a28 	.word	0x3fc68a28
 8006908:	509f79fb 	.word	0x509f79fb
 800690c:	3fd34413 	.word	0x3fd34413
 8006910:	7ff00000 	.word	0x7ff00000
 8006914:	0800936c 	.word	0x0800936c
 8006918:	08009363 	.word	0x08009363
 800691c:	080090c8 	.word	0x080090c8
 8006920:	3ff80000 	.word	0x3ff80000
 8006924:	08009408 	.word	0x08009408
 8006928:	080093e0 	.word	0x080093e0
 800692c:	2601      	movs	r6, #1
 800692e:	2300      	movs	r3, #0
 8006930:	9609      	str	r6, [sp, #36]	; 0x24
 8006932:	931e      	str	r3, [sp, #120]	; 0x78
 8006934:	f04f 33ff 	mov.w	r3, #4294967295
 8006938:	2200      	movs	r2, #0
 800693a:	9304      	str	r3, [sp, #16]
 800693c:	4699      	mov	r9, r3
 800693e:	2312      	movs	r3, #18
 8006940:	921f      	str	r2, [sp, #124]	; 0x7c
 8006942:	e784      	b.n	800684e <_dtoa_r+0x246>
 8006944:	2301      	movs	r3, #1
 8006946:	9309      	str	r3, [sp, #36]	; 0x24
 8006948:	e7f4      	b.n	8006934 <_dtoa_r+0x32c>
 800694a:	2301      	movs	r3, #1
 800694c:	9304      	str	r3, [sp, #16]
 800694e:	4699      	mov	r9, r3
 8006950:	461a      	mov	r2, r3
 8006952:	e7f5      	b.n	8006940 <_dtoa_r+0x338>
 8006954:	686a      	ldr	r2, [r5, #4]
 8006956:	0049      	lsls	r1, r1, #1
 8006958:	3201      	adds	r2, #1
 800695a:	606a      	str	r2, [r5, #4]
 800695c:	e77b      	b.n	8006856 <_dtoa_r+0x24e>
 800695e:	2502      	movs	r5, #2
 8006960:	e7ac      	b.n	80068bc <_dtoa_r+0x2b4>
 8006962:	07f1      	lsls	r1, r6, #31
 8006964:	d508      	bpl.n	8006978 <_dtoa_r+0x370>
 8006966:	e9dd 010a 	ldrd	r0, r1, [sp, #40]	; 0x28
 800696a:	e9d7 2300 	ldrd	r2, r3, [r7]
 800696e:	f7f9 fe1b 	bl	80005a8 <__aeabi_dmul>
 8006972:	e9cd 010a 	strd	r0, r1, [sp, #40]	; 0x28
 8006976:	3501      	adds	r5, #1
 8006978:	1076      	asrs	r6, r6, #1
 800697a:	3708      	adds	r7, #8
 800697c:	e79f      	b.n	80068be <_dtoa_r+0x2b6>
 800697e:	f000 80a5 	beq.w	8006acc <_dtoa_r+0x4c4>
 8006982:	e9dd 010e 	ldrd	r0, r1, [sp, #56]	; 0x38
 8006986:	f1cb 0600 	rsb	r6, fp, #0
 800698a:	4ba2      	ldr	r3, [pc, #648]	; (8006c14 <_dtoa_r+0x60c>)
 800698c:	f006 020f 	and.w	r2, r6, #15
 8006990:	eb03 03c2 	add.w	r3, r3, r2, lsl #3
 8006994:	e9d3 2300 	ldrd	r2, r3, [r3]
 8006998:	f7f9 fe06 	bl	80005a8 <__aeabi_dmul>
 800699c:	2502      	movs	r5, #2
 800699e:	2300      	movs	r3, #0
 80069a0:	e9cd 0102 	strd	r0, r1, [sp, #8]
 80069a4:	4f9c      	ldr	r7, [pc, #624]	; (8006c18 <_dtoa_r+0x610>)
 80069a6:	1136      	asrs	r6, r6, #4
 80069a8:	2e00      	cmp	r6, #0
 80069aa:	f040 8084 	bne.w	8006ab6 <_dtoa_r+0x4ae>
 80069ae:	2b00      	cmp	r3, #0
 80069b0:	d18d      	bne.n	80068ce <_dtoa_r+0x2c6>
 80069b2:	9b0d      	ldr	r3, [sp, #52]	; 0x34
 80069b4:	2b00      	cmp	r3, #0
 80069b6:	f000 808b 	beq.w	8006ad0 <_dtoa_r+0x4c8>
 80069ba:	e9dd 2302 	ldrd	r2, r3, [sp, #8]
 80069be:	e9cd 230a 	strd	r2, r3, [sp, #40]	; 0x28
 80069c2:	e9dd 010a 	ldrd	r0, r1, [sp, #40]	; 0x28
 80069c6:	2200      	movs	r2, #0
 80069c8:	4b94      	ldr	r3, [pc, #592]	; (8006c1c <_dtoa_r+0x614>)
 80069ca:	f7fa f85f 	bl	8000a8c <__aeabi_dcmplt>
 80069ce:	2800      	cmp	r0, #0
 80069d0:	d07e      	beq.n	8006ad0 <_dtoa_r+0x4c8>
 80069d2:	f1b9 0f00 	cmp.w	r9, #0
 80069d6:	d07b      	beq.n	8006ad0 <_dtoa_r+0x4c8>
 80069d8:	9b04      	ldr	r3, [sp, #16]
 80069da:	2b00      	cmp	r3, #0
 80069dc:	dd37      	ble.n	8006a4e <_dtoa_r+0x446>
 80069de:	e9dd 010a 	ldrd	r0, r1, [sp, #40]	; 0x28
 80069e2:	2200      	movs	r2, #0
 80069e4:	4b8e      	ldr	r3, [pc, #568]	; (8006c20 <_dtoa_r+0x618>)
 80069e6:	f7f9 fddf 	bl	80005a8 <__aeabi_dmul>
 80069ea:	e9cd 0102 	strd	r0, r1, [sp, #8]
 80069ee:	9e04      	ldr	r6, [sp, #16]
 80069f0:	f10b 37ff 	add.w	r7, fp, #4294967295
 80069f4:	3501      	adds	r5, #1
 80069f6:	4628      	mov	r0, r5
 80069f8:	f7f9 fd70 	bl	80004dc <__aeabi_i2d>
 80069fc:	e9dd 2302 	ldrd	r2, r3, [sp, #8]
 8006a00:	f7f9 fdd2 	bl	80005a8 <__aeabi_dmul>
 8006a04:	4b87      	ldr	r3, [pc, #540]	; (8006c24 <_dtoa_r+0x61c>)
 8006a06:	2200      	movs	r2, #0
 8006a08:	f7f9 fc1c 	bl	8000244 <__adddf3>
 8006a0c:	e9cd 010a 	strd	r0, r1, [sp, #40]	; 0x28
 8006a10:	9b0b      	ldr	r3, [sp, #44]	; 0x2c
 8006a12:	f1a3 7550 	sub.w	r5, r3, #54525952	; 0x3400000
 8006a16:	950b      	str	r5, [sp, #44]	; 0x2c
 8006a18:	2e00      	cmp	r6, #0
 8006a1a:	d15c      	bne.n	8006ad6 <_dtoa_r+0x4ce>
 8006a1c:	e9dd 0102 	ldrd	r0, r1, [sp, #8]
 8006a20:	2200      	movs	r2, #0
 8006a22:	4b81      	ldr	r3, [pc, #516]	; (8006c28 <_dtoa_r+0x620>)
 8006a24:	f7f9 fc0c 	bl	8000240 <__aeabi_dsub>
 8006a28:	9a0a      	ldr	r2, [sp, #40]	; 0x28
 8006a2a:	462b      	mov	r3, r5
 8006a2c:	e9cd 0102 	strd	r0, r1, [sp, #8]
 8006a30:	f7fa f84a 	bl	8000ac8 <__aeabi_dcmpgt>
 8006a34:	2800      	cmp	r0, #0
 8006a36:	f040 82f7 	bne.w	8007028 <_dtoa_r+0xa20>
 8006a3a:	e9dd 0102 	ldrd	r0, r1, [sp, #8]
 8006a3e:	9a0a      	ldr	r2, [sp, #40]	; 0x28
 8006a40:	f105 4300 	add.w	r3, r5, #2147483648	; 0x80000000
 8006a44:	f7fa f822 	bl	8000a8c <__aeabi_dcmplt>
 8006a48:	2800      	cmp	r0, #0
 8006a4a:	f040 82eb 	bne.w	8007024 <_dtoa_r+0xa1c>
 8006a4e:	e9dd 230e 	ldrd	r2, r3, [sp, #56]	; 0x38
 8006a52:	e9cd 2302 	strd	r2, r3, [sp, #8]
 8006a56:	9b13      	ldr	r3, [sp, #76]	; 0x4c
 8006a58:	2b00      	cmp	r3, #0
 8006a5a:	f2c0 8150 	blt.w	8006cfe <_dtoa_r+0x6f6>
 8006a5e:	f1bb 0f0e 	cmp.w	fp, #14
 8006a62:	f300 814c 	bgt.w	8006cfe <_dtoa_r+0x6f6>
 8006a66:	4b6b      	ldr	r3, [pc, #428]	; (8006c14 <_dtoa_r+0x60c>)
 8006a68:	eb03 03cb 	add.w	r3, r3, fp, lsl #3
 8006a6c:	e9d3 2300 	ldrd	r2, r3, [r3]
 8006a70:	e9cd 2304 	strd	r2, r3, [sp, #16]
 8006a74:	9b1f      	ldr	r3, [sp, #124]	; 0x7c
 8006a76:	2b00      	cmp	r3, #0
 8006a78:	f280 80da 	bge.w	8006c30 <_dtoa_r+0x628>
 8006a7c:	f1b9 0f00 	cmp.w	r9, #0
 8006a80:	f300 80d6 	bgt.w	8006c30 <_dtoa_r+0x628>
 8006a84:	f040 82cd 	bne.w	8007022 <_dtoa_r+0xa1a>
 8006a88:	e9dd 0104 	ldrd	r0, r1, [sp, #16]
 8006a8c:	2200      	movs	r2, #0
 8006a8e:	4b66      	ldr	r3, [pc, #408]	; (8006c28 <_dtoa_r+0x620>)
 8006a90:	f7f9 fd8a 	bl	80005a8 <__aeabi_dmul>
 8006a94:	e9dd 2302 	ldrd	r2, r3, [sp, #8]
 8006a98:	f7fa f80c 	bl	8000ab4 <__aeabi_dcmpge>
 8006a9c:	464e      	mov	r6, r9
 8006a9e:	464f      	mov	r7, r9
 8006aa0:	2800      	cmp	r0, #0
 8006aa2:	f040 82a4 	bne.w	8006fee <_dtoa_r+0x9e6>
 8006aa6:	9b06      	ldr	r3, [sp, #24]
 8006aa8:	9a06      	ldr	r2, [sp, #24]
 8006aaa:	1c5d      	adds	r5, r3, #1
 8006aac:	2331      	movs	r3, #49	; 0x31
 8006aae:	f10b 0b01 	add.w	fp, fp, #1
 8006ab2:	7013      	strb	r3, [r2, #0]
 8006ab4:	e29f      	b.n	8006ff6 <_dtoa_r+0x9ee>
 8006ab6:	07f2      	lsls	r2, r6, #31
 8006ab8:	d505      	bpl.n	8006ac6 <_dtoa_r+0x4be>
 8006aba:	e9d7 2300 	ldrd	r2, r3, [r7]
 8006abe:	f7f9 fd73 	bl	80005a8 <__aeabi_dmul>
 8006ac2:	2301      	movs	r3, #1
 8006ac4:	3501      	adds	r5, #1
 8006ac6:	1076      	asrs	r6, r6, #1
 8006ac8:	3708      	adds	r7, #8
 8006aca:	e76d      	b.n	80069a8 <_dtoa_r+0x3a0>
 8006acc:	2502      	movs	r5, #2
 8006ace:	e770      	b.n	80069b2 <_dtoa_r+0x3aa>
 8006ad0:	465f      	mov	r7, fp
 8006ad2:	464e      	mov	r6, r9
 8006ad4:	e78f      	b.n	80069f6 <_dtoa_r+0x3ee>
 8006ad6:	9a06      	ldr	r2, [sp, #24]
 8006ad8:	4b4e      	ldr	r3, [pc, #312]	; (8006c14 <_dtoa_r+0x60c>)
 8006ada:	4432      	add	r2, r6
 8006adc:	9211      	str	r2, [sp, #68]	; 0x44
 8006ade:	9a09      	ldr	r2, [sp, #36]	; 0x24
 8006ae0:	1e71      	subs	r1, r6, #1
 8006ae2:	2a00      	cmp	r2, #0
 8006ae4:	d048      	beq.n	8006b78 <_dtoa_r+0x570>
 8006ae6:	eb03 03c1 	add.w	r3, r3, r1, lsl #3
 8006aea:	e9d3 2300 	ldrd	r2, r3, [r3]
 8006aee:	2000      	movs	r0, #0
 8006af0:	494e      	ldr	r1, [pc, #312]	; (8006c2c <_dtoa_r+0x624>)
 8006af2:	f7f9 fe83 	bl	80007fc <__aeabi_ddiv>
 8006af6:	e9dd 230a 	ldrd	r2, r3, [sp, #40]	; 0x28
 8006afa:	f7f9 fba1 	bl	8000240 <__aeabi_dsub>
 8006afe:	e9cd 010a 	strd	r0, r1, [sp, #40]	; 0x28
 8006b02:	9d06      	ldr	r5, [sp, #24]
 8006b04:	e9dd 0102 	ldrd	r0, r1, [sp, #8]
 8006b08:	f7f9 fffe 	bl	8000b08 <__aeabi_d2iz>
 8006b0c:	4606      	mov	r6, r0
 8006b0e:	f7f9 fce5 	bl	80004dc <__aeabi_i2d>
 8006b12:	4602      	mov	r2, r0
 8006b14:	460b      	mov	r3, r1
 8006b16:	e9dd 0102 	ldrd	r0, r1, [sp, #8]
 8006b1a:	f7f9 fb91 	bl	8000240 <__aeabi_dsub>
 8006b1e:	e9dd 230a 	ldrd	r2, r3, [sp, #40]	; 0x28
 8006b22:	3630      	adds	r6, #48	; 0x30
 8006b24:	f805 6b01 	strb.w	r6, [r5], #1
 8006b28:	e9cd 0102 	strd	r0, r1, [sp, #8]
 8006b2c:	f7f9 ffae 	bl	8000a8c <__aeabi_dcmplt>
 8006b30:	2800      	cmp	r0, #0
 8006b32:	d164      	bne.n	8006bfe <_dtoa_r+0x5f6>
 8006b34:	e9dd 2302 	ldrd	r2, r3, [sp, #8]
 8006b38:	2000      	movs	r0, #0
 8006b3a:	4938      	ldr	r1, [pc, #224]	; (8006c1c <_dtoa_r+0x614>)
 8006b3c:	f7f9 fb80 	bl	8000240 <__aeabi_dsub>
 8006b40:	e9dd 230a 	ldrd	r2, r3, [sp, #40]	; 0x28
 8006b44:	f7f9 ffa2 	bl	8000a8c <__aeabi_dcmplt>
 8006b48:	2800      	cmp	r0, #0
 8006b4a:	f040 80b9 	bne.w	8006cc0 <_dtoa_r+0x6b8>
 8006b4e:	9b11      	ldr	r3, [sp, #68]	; 0x44
 8006b50:	429d      	cmp	r5, r3
 8006b52:	f43f af7c 	beq.w	8006a4e <_dtoa_r+0x446>
 8006b56:	e9dd 010a 	ldrd	r0, r1, [sp, #40]	; 0x28
 8006b5a:	2200      	movs	r2, #0
 8006b5c:	4b30      	ldr	r3, [pc, #192]	; (8006c20 <_dtoa_r+0x618>)
 8006b5e:	f7f9 fd23 	bl	80005a8 <__aeabi_dmul>
 8006b62:	2200      	movs	r2, #0
 8006b64:	e9cd 010a 	strd	r0, r1, [sp, #40]	; 0x28
 8006b68:	e9dd 0102 	ldrd	r0, r1, [sp, #8]
 8006b6c:	4b2c      	ldr	r3, [pc, #176]	; (8006c20 <_dtoa_r+0x618>)
 8006b6e:	f7f9 fd1b 	bl	80005a8 <__aeabi_dmul>
 8006b72:	e9cd 0102 	strd	r0, r1, [sp, #8]
 8006b76:	e7c5      	b.n	8006b04 <_dtoa_r+0x4fc>
 8006b78:	eb03 01c1 	add.w	r1, r3, r1, lsl #3
 8006b7c:	e9d1 0100 	ldrd	r0, r1, [r1]
 8006b80:	e9dd 230a 	ldrd	r2, r3, [sp, #40]	; 0x28
 8006b84:	f7f9 fd10 	bl	80005a8 <__aeabi_dmul>
 8006b88:	e9cd 010a 	strd	r0, r1, [sp, #40]	; 0x28
 8006b8c:	9d06      	ldr	r5, [sp, #24]
 8006b8e:	e9dd 0102 	ldrd	r0, r1, [sp, #8]
 8006b92:	f7f9 ffb9 	bl	8000b08 <__aeabi_d2iz>
 8006b96:	4606      	mov	r6, r0
 8006b98:	f7f9 fca0 	bl	80004dc <__aeabi_i2d>
 8006b9c:	4602      	mov	r2, r0
 8006b9e:	460b      	mov	r3, r1
 8006ba0:	e9dd 0102 	ldrd	r0, r1, [sp, #8]
 8006ba4:	f7f9 fb4c 	bl	8000240 <__aeabi_dsub>
 8006ba8:	3630      	adds	r6, #48	; 0x30
 8006baa:	9b11      	ldr	r3, [sp, #68]	; 0x44
 8006bac:	f805 6b01 	strb.w	r6, [r5], #1
 8006bb0:	42ab      	cmp	r3, r5
 8006bb2:	e9cd 0102 	strd	r0, r1, [sp, #8]
 8006bb6:	f04f 0200 	mov.w	r2, #0
 8006bba:	d124      	bne.n	8006c06 <_dtoa_r+0x5fe>
 8006bbc:	4b1b      	ldr	r3, [pc, #108]	; (8006c2c <_dtoa_r+0x624>)
 8006bbe:	e9dd 010a 	ldrd	r0, r1, [sp, #40]	; 0x28
 8006bc2:	f7f9 fb3f 	bl	8000244 <__adddf3>
 8006bc6:	4602      	mov	r2, r0
 8006bc8:	460b      	mov	r3, r1
 8006bca:	e9dd 0102 	ldrd	r0, r1, [sp, #8]
 8006bce:	f7f9 ff7b 	bl	8000ac8 <__aeabi_dcmpgt>
 8006bd2:	2800      	cmp	r0, #0
 8006bd4:	d174      	bne.n	8006cc0 <_dtoa_r+0x6b8>
 8006bd6:	e9dd 230a 	ldrd	r2, r3, [sp, #40]	; 0x28
 8006bda:	2000      	movs	r0, #0
 8006bdc:	4913      	ldr	r1, [pc, #76]	; (8006c2c <_dtoa_r+0x624>)
 8006bde:	f7f9 fb2f 	bl	8000240 <__aeabi_dsub>
 8006be2:	4602      	mov	r2, r0
 8006be4:	460b      	mov	r3, r1
 8006be6:	e9dd 0102 	ldrd	r0, r1, [sp, #8]
 8006bea:	f7f9 ff4f 	bl	8000a8c <__aeabi_dcmplt>
 8006bee:	2800      	cmp	r0, #0
 8006bf0:	f43f af2d 	beq.w	8006a4e <_dtoa_r+0x446>
 8006bf4:	f815 3c01 	ldrb.w	r3, [r5, #-1]
 8006bf8:	1e6a      	subs	r2, r5, #1
 8006bfa:	2b30      	cmp	r3, #48	; 0x30
 8006bfc:	d001      	beq.n	8006c02 <_dtoa_r+0x5fa>
 8006bfe:	46bb      	mov	fp, r7
 8006c00:	e04d      	b.n	8006c9e <_dtoa_r+0x696>
 8006c02:	4615      	mov	r5, r2
 8006c04:	e7f6      	b.n	8006bf4 <_dtoa_r+0x5ec>
 8006c06:	4b06      	ldr	r3, [pc, #24]	; (8006c20 <_dtoa_r+0x618>)
 8006c08:	f7f9 fcce 	bl	80005a8 <__aeabi_dmul>
 8006c0c:	e9cd 0102 	strd	r0, r1, [sp, #8]
 8006c10:	e7bd      	b.n	8006b8e <_dtoa_r+0x586>
 8006c12:	bf00      	nop
 8006c14:	08009408 	.word	0x08009408
 8006c18:	080093e0 	.word	0x080093e0
 8006c1c:	3ff00000 	.word	0x3ff00000
 8006c20:	40240000 	.word	0x40240000
 8006c24:	401c0000 	.word	0x401c0000
 8006c28:	40140000 	.word	0x40140000
 8006c2c:	3fe00000 	.word	0x3fe00000
 8006c30:	9d06      	ldr	r5, [sp, #24]
 8006c32:	e9dd 6702 	ldrd	r6, r7, [sp, #8]
 8006c36:	e9dd 2304 	ldrd	r2, r3, [sp, #16]
 8006c3a:	4630      	mov	r0, r6
 8006c3c:	4639      	mov	r1, r7
 8006c3e:	f7f9 fddd 	bl	80007fc <__aeabi_ddiv>
 8006c42:	f7f9 ff61 	bl	8000b08 <__aeabi_d2iz>
 8006c46:	4680      	mov	r8, r0
 8006c48:	f7f9 fc48 	bl	80004dc <__aeabi_i2d>
 8006c4c:	e9dd 2304 	ldrd	r2, r3, [sp, #16]
 8006c50:	f7f9 fcaa 	bl	80005a8 <__aeabi_dmul>
 8006c54:	4602      	mov	r2, r0
 8006c56:	460b      	mov	r3, r1
 8006c58:	4630      	mov	r0, r6
 8006c5a:	4639      	mov	r1, r7
 8006c5c:	f7f9 faf0 	bl	8000240 <__aeabi_dsub>
 8006c60:	f108 0630 	add.w	r6, r8, #48	; 0x30
 8006c64:	f805 6b01 	strb.w	r6, [r5], #1
 8006c68:	9e06      	ldr	r6, [sp, #24]
 8006c6a:	4602      	mov	r2, r0
 8006c6c:	1bae      	subs	r6, r5, r6
 8006c6e:	45b1      	cmp	r9, r6
 8006c70:	460b      	mov	r3, r1
 8006c72:	d137      	bne.n	8006ce4 <_dtoa_r+0x6dc>
 8006c74:	f7f9 fae6 	bl	8000244 <__adddf3>
 8006c78:	4606      	mov	r6, r0
 8006c7a:	460f      	mov	r7, r1
 8006c7c:	4602      	mov	r2, r0
 8006c7e:	460b      	mov	r3, r1
 8006c80:	e9dd 0104 	ldrd	r0, r1, [sp, #16]
 8006c84:	f7f9 ff02 	bl	8000a8c <__aeabi_dcmplt>
 8006c88:	b9c8      	cbnz	r0, 8006cbe <_dtoa_r+0x6b6>
 8006c8a:	e9dd 0104 	ldrd	r0, r1, [sp, #16]
 8006c8e:	4632      	mov	r2, r6
 8006c90:	463b      	mov	r3, r7
 8006c92:	f7f9 fef1 	bl	8000a78 <__aeabi_dcmpeq>
 8006c96:	b110      	cbz	r0, 8006c9e <_dtoa_r+0x696>
 8006c98:	f018 0f01 	tst.w	r8, #1
 8006c9c:	d10f      	bne.n	8006cbe <_dtoa_r+0x6b6>
 8006c9e:	4651      	mov	r1, sl
 8006ca0:	4620      	mov	r0, r4
 8006ca2:	f001 f9c9 	bl	8008038 <_Bfree>
 8006ca6:	2300      	movs	r3, #0
 8006ca8:	9a20      	ldr	r2, [sp, #128]	; 0x80
 8006caa:	702b      	strb	r3, [r5, #0]
 8006cac:	f10b 0301 	add.w	r3, fp, #1
 8006cb0:	6013      	str	r3, [r2, #0]
 8006cb2:	9b22      	ldr	r3, [sp, #136]	; 0x88
 8006cb4:	2b00      	cmp	r3, #0
 8006cb6:	f43f acec 	beq.w	8006692 <_dtoa_r+0x8a>
 8006cba:	601d      	str	r5, [r3, #0]
 8006cbc:	e4e9      	b.n	8006692 <_dtoa_r+0x8a>
 8006cbe:	465f      	mov	r7, fp
 8006cc0:	f815 2c01 	ldrb.w	r2, [r5, #-1]
 8006cc4:	1e6b      	subs	r3, r5, #1
 8006cc6:	2a39      	cmp	r2, #57	; 0x39
 8006cc8:	d106      	bne.n	8006cd8 <_dtoa_r+0x6d0>
 8006cca:	9a06      	ldr	r2, [sp, #24]
 8006ccc:	429a      	cmp	r2, r3
 8006cce:	d107      	bne.n	8006ce0 <_dtoa_r+0x6d8>
 8006cd0:	2330      	movs	r3, #48	; 0x30
 8006cd2:	7013      	strb	r3, [r2, #0]
 8006cd4:	4613      	mov	r3, r2
 8006cd6:	3701      	adds	r7, #1
 8006cd8:	781a      	ldrb	r2, [r3, #0]
 8006cda:	3201      	adds	r2, #1
 8006cdc:	701a      	strb	r2, [r3, #0]
 8006cde:	e78e      	b.n	8006bfe <_dtoa_r+0x5f6>
 8006ce0:	461d      	mov	r5, r3
 8006ce2:	e7ed      	b.n	8006cc0 <_dtoa_r+0x6b8>
 8006ce4:	2200      	movs	r2, #0
 8006ce6:	4bb5      	ldr	r3, [pc, #724]	; (8006fbc <_dtoa_r+0x9b4>)
 8006ce8:	f7f9 fc5e 	bl	80005a8 <__aeabi_dmul>
 8006cec:	2200      	movs	r2, #0
 8006cee:	2300      	movs	r3, #0
 8006cf0:	4606      	mov	r6, r0
 8006cf2:	460f      	mov	r7, r1
 8006cf4:	f7f9 fec0 	bl	8000a78 <__aeabi_dcmpeq>
 8006cf8:	2800      	cmp	r0, #0
 8006cfa:	d09c      	beq.n	8006c36 <_dtoa_r+0x62e>
 8006cfc:	e7cf      	b.n	8006c9e <_dtoa_r+0x696>
 8006cfe:	9a09      	ldr	r2, [sp, #36]	; 0x24
 8006d00:	2a00      	cmp	r2, #0
 8006d02:	f000 8129 	beq.w	8006f58 <_dtoa_r+0x950>
 8006d06:	9a1e      	ldr	r2, [sp, #120]	; 0x78
 8006d08:	2a01      	cmp	r2, #1
 8006d0a:	f300 810e 	bgt.w	8006f2a <_dtoa_r+0x922>
 8006d0e:	9a10      	ldr	r2, [sp, #64]	; 0x40
 8006d10:	2a00      	cmp	r2, #0
 8006d12:	f000 8106 	beq.w	8006f22 <_dtoa_r+0x91a>
 8006d16:	f203 4333 	addw	r3, r3, #1075	; 0x433
 8006d1a:	4645      	mov	r5, r8
 8006d1c:	9e08      	ldr	r6, [sp, #32]
 8006d1e:	9a07      	ldr	r2, [sp, #28]
 8006d20:	2101      	movs	r1, #1
 8006d22:	441a      	add	r2, r3
 8006d24:	4620      	mov	r0, r4
 8006d26:	4498      	add	r8, r3
 8006d28:	9207      	str	r2, [sp, #28]
 8006d2a:	f001 fa25 	bl	8008178 <__i2b>
 8006d2e:	4607      	mov	r7, r0
 8006d30:	2d00      	cmp	r5, #0
 8006d32:	dd0b      	ble.n	8006d4c <_dtoa_r+0x744>
 8006d34:	9b07      	ldr	r3, [sp, #28]
 8006d36:	2b00      	cmp	r3, #0
 8006d38:	dd08      	ble.n	8006d4c <_dtoa_r+0x744>
 8006d3a:	42ab      	cmp	r3, r5
 8006d3c:	bfa8      	it	ge
 8006d3e:	462b      	movge	r3, r5
 8006d40:	9a07      	ldr	r2, [sp, #28]
 8006d42:	eba8 0803 	sub.w	r8, r8, r3
 8006d46:	1aed      	subs	r5, r5, r3
 8006d48:	1ad3      	subs	r3, r2, r3
 8006d4a:	9307      	str	r3, [sp, #28]
 8006d4c:	9b08      	ldr	r3, [sp, #32]
 8006d4e:	b1fb      	cbz	r3, 8006d90 <_dtoa_r+0x788>
 8006d50:	9b09      	ldr	r3, [sp, #36]	; 0x24
 8006d52:	2b00      	cmp	r3, #0
 8006d54:	f000 8104 	beq.w	8006f60 <_dtoa_r+0x958>
 8006d58:	2e00      	cmp	r6, #0
 8006d5a:	dd11      	ble.n	8006d80 <_dtoa_r+0x778>
 8006d5c:	4639      	mov	r1, r7
 8006d5e:	4632      	mov	r2, r6
 8006d60:	4620      	mov	r0, r4
 8006d62:	f001 fa9f 	bl	80082a4 <__pow5mult>
 8006d66:	4652      	mov	r2, sl
 8006d68:	4601      	mov	r1, r0
 8006d6a:	4607      	mov	r7, r0
 8006d6c:	4620      	mov	r0, r4
 8006d6e:	f001 fa0c 	bl	800818a <__multiply>
 8006d72:	4651      	mov	r1, sl
 8006d74:	900a      	str	r0, [sp, #40]	; 0x28
 8006d76:	4620      	mov	r0, r4
 8006d78:	f001 f95e 	bl	8008038 <_Bfree>
 8006d7c:	9b0a      	ldr	r3, [sp, #40]	; 0x28
 8006d7e:	469a      	mov	sl, r3
 8006d80:	9b08      	ldr	r3, [sp, #32]
 8006d82:	1b9a      	subs	r2, r3, r6
 8006d84:	d004      	beq.n	8006d90 <_dtoa_r+0x788>
 8006d86:	4651      	mov	r1, sl
 8006d88:	4620      	mov	r0, r4
 8006d8a:	f001 fa8b 	bl	80082a4 <__pow5mult>
 8006d8e:	4682      	mov	sl, r0
 8006d90:	2101      	movs	r1, #1
 8006d92:	4620      	mov	r0, r4
 8006d94:	f001 f9f0 	bl	8008178 <__i2b>
 8006d98:	9b0c      	ldr	r3, [sp, #48]	; 0x30
 8006d9a:	4606      	mov	r6, r0
 8006d9c:	2b00      	cmp	r3, #0
 8006d9e:	f340 80e1 	ble.w	8006f64 <_dtoa_r+0x95c>
 8006da2:	461a      	mov	r2, r3
 8006da4:	4601      	mov	r1, r0
 8006da6:	4620      	mov	r0, r4
 8006da8:	f001 fa7c 	bl	80082a4 <__pow5mult>
 8006dac:	9b1e      	ldr	r3, [sp, #120]	; 0x78
 8006dae:	4606      	mov	r6, r0
 8006db0:	2b01      	cmp	r3, #1
 8006db2:	f340 80da 	ble.w	8006f6a <_dtoa_r+0x962>
 8006db6:	2300      	movs	r3, #0
 8006db8:	9308      	str	r3, [sp, #32]
 8006dba:	6933      	ldr	r3, [r6, #16]
 8006dbc:	eb06 0383 	add.w	r3, r6, r3, lsl #2
 8006dc0:	6918      	ldr	r0, [r3, #16]
 8006dc2:	f001 f98b 	bl	80080dc <__hi0bits>
 8006dc6:	f1c0 0020 	rsb	r0, r0, #32
 8006dca:	9b07      	ldr	r3, [sp, #28]
 8006dcc:	4418      	add	r0, r3
 8006dce:	f010 001f 	ands.w	r0, r0, #31
 8006dd2:	f000 80f0 	beq.w	8006fb6 <_dtoa_r+0x9ae>
 8006dd6:	f1c0 0320 	rsb	r3, r0, #32
 8006dda:	2b04      	cmp	r3, #4
 8006ddc:	f340 80e2 	ble.w	8006fa4 <_dtoa_r+0x99c>
 8006de0:	9b07      	ldr	r3, [sp, #28]
 8006de2:	f1c0 001c 	rsb	r0, r0, #28
 8006de6:	4480      	add	r8, r0
 8006de8:	4405      	add	r5, r0
 8006dea:	4403      	add	r3, r0
 8006dec:	9307      	str	r3, [sp, #28]
 8006dee:	f1b8 0f00 	cmp.w	r8, #0
 8006df2:	dd05      	ble.n	8006e00 <_dtoa_r+0x7f8>
 8006df4:	4651      	mov	r1, sl
 8006df6:	4642      	mov	r2, r8
 8006df8:	4620      	mov	r0, r4
 8006dfa:	f001 faa1 	bl	8008340 <__lshift>
 8006dfe:	4682      	mov	sl, r0
 8006e00:	9b07      	ldr	r3, [sp, #28]
 8006e02:	2b00      	cmp	r3, #0
 8006e04:	dd05      	ble.n	8006e12 <_dtoa_r+0x80a>
 8006e06:	4631      	mov	r1, r6
 8006e08:	461a      	mov	r2, r3
 8006e0a:	4620      	mov	r0, r4
 8006e0c:	f001 fa98 	bl	8008340 <__lshift>
 8006e10:	4606      	mov	r6, r0
 8006e12:	9b0d      	ldr	r3, [sp, #52]	; 0x34
 8006e14:	2b00      	cmp	r3, #0
 8006e16:	f000 80d3 	beq.w	8006fc0 <_dtoa_r+0x9b8>
 8006e1a:	4631      	mov	r1, r6
 8006e1c:	4650      	mov	r0, sl
 8006e1e:	f001 fae0 	bl	80083e2 <__mcmp>
 8006e22:	2800      	cmp	r0, #0
 8006e24:	f280 80cc 	bge.w	8006fc0 <_dtoa_r+0x9b8>
 8006e28:	2300      	movs	r3, #0
 8006e2a:	4651      	mov	r1, sl
 8006e2c:	220a      	movs	r2, #10
 8006e2e:	4620      	mov	r0, r4
 8006e30:	f001 f919 	bl	8008066 <__multadd>
 8006e34:	9b09      	ldr	r3, [sp, #36]	; 0x24
 8006e36:	f10b 3bff 	add.w	fp, fp, #4294967295
 8006e3a:	4682      	mov	sl, r0
 8006e3c:	2b00      	cmp	r3, #0
 8006e3e:	f000 81a9 	beq.w	8007194 <_dtoa_r+0xb8c>
 8006e42:	2300      	movs	r3, #0
 8006e44:	4639      	mov	r1, r7
 8006e46:	220a      	movs	r2, #10
 8006e48:	4620      	mov	r0, r4
 8006e4a:	f001 f90c 	bl	8008066 <__multadd>
 8006e4e:	9b04      	ldr	r3, [sp, #16]
 8006e50:	4607      	mov	r7, r0
 8006e52:	2b00      	cmp	r3, #0
 8006e54:	dc03      	bgt.n	8006e5e <_dtoa_r+0x856>
 8006e56:	9b1e      	ldr	r3, [sp, #120]	; 0x78
 8006e58:	2b02      	cmp	r3, #2
 8006e5a:	f300 80b9 	bgt.w	8006fd0 <_dtoa_r+0x9c8>
 8006e5e:	2d00      	cmp	r5, #0
 8006e60:	dd05      	ble.n	8006e6e <_dtoa_r+0x866>
 8006e62:	4639      	mov	r1, r7
 8006e64:	462a      	mov	r2, r5
 8006e66:	4620      	mov	r0, r4
 8006e68:	f001 fa6a 	bl	8008340 <__lshift>
 8006e6c:	4607      	mov	r7, r0
 8006e6e:	9b08      	ldr	r3, [sp, #32]
 8006e70:	2b00      	cmp	r3, #0
 8006e72:	f000 8110 	beq.w	8007096 <_dtoa_r+0xa8e>
 8006e76:	6879      	ldr	r1, [r7, #4]
 8006e78:	4620      	mov	r0, r4
 8006e7a:	f001 f8a9 	bl	8007fd0 <_Balloc>
 8006e7e:	4605      	mov	r5, r0
 8006e80:	693a      	ldr	r2, [r7, #16]
 8006e82:	f107 010c 	add.w	r1, r7, #12
 8006e86:	3202      	adds	r2, #2
 8006e88:	0092      	lsls	r2, r2, #2
 8006e8a:	300c      	adds	r0, #12
 8006e8c:	f7fd f885 	bl	8003f9a <memcpy>
 8006e90:	2201      	movs	r2, #1
 8006e92:	4629      	mov	r1, r5
 8006e94:	4620      	mov	r0, r4
 8006e96:	f001 fa53 	bl	8008340 <__lshift>
 8006e9a:	9707      	str	r7, [sp, #28]
 8006e9c:	4607      	mov	r7, r0
 8006e9e:	9b02      	ldr	r3, [sp, #8]
 8006ea0:	f8dd 8018 	ldr.w	r8, [sp, #24]
 8006ea4:	f003 0301 	and.w	r3, r3, #1
 8006ea8:	9308      	str	r3, [sp, #32]
 8006eaa:	4631      	mov	r1, r6
 8006eac:	4650      	mov	r0, sl
 8006eae:	f7ff fb1f 	bl	80064f0 <quorem>
 8006eb2:	9907      	ldr	r1, [sp, #28]
 8006eb4:	4605      	mov	r5, r0
 8006eb6:	f100 0930 	add.w	r9, r0, #48	; 0x30
 8006eba:	4650      	mov	r0, sl
 8006ebc:	f001 fa91 	bl	80083e2 <__mcmp>
 8006ec0:	463a      	mov	r2, r7
 8006ec2:	9002      	str	r0, [sp, #8]
 8006ec4:	4631      	mov	r1, r6
 8006ec6:	4620      	mov	r0, r4
 8006ec8:	f001 faa5 	bl	8008416 <__mdiff>
 8006ecc:	68c3      	ldr	r3, [r0, #12]
 8006ece:	4602      	mov	r2, r0
 8006ed0:	2b00      	cmp	r3, #0
 8006ed2:	f040 80e2 	bne.w	800709a <_dtoa_r+0xa92>
 8006ed6:	4601      	mov	r1, r0
 8006ed8:	9009      	str	r0, [sp, #36]	; 0x24
 8006eda:	4650      	mov	r0, sl
 8006edc:	f001 fa81 	bl	80083e2 <__mcmp>
 8006ee0:	4603      	mov	r3, r0
 8006ee2:	9a09      	ldr	r2, [sp, #36]	; 0x24
 8006ee4:	4611      	mov	r1, r2
 8006ee6:	4620      	mov	r0, r4
 8006ee8:	9309      	str	r3, [sp, #36]	; 0x24
 8006eea:	f001 f8a5 	bl	8008038 <_Bfree>
 8006eee:	9b09      	ldr	r3, [sp, #36]	; 0x24
 8006ef0:	2b00      	cmp	r3, #0
 8006ef2:	f040 80d4 	bne.w	800709e <_dtoa_r+0xa96>
 8006ef6:	9a1e      	ldr	r2, [sp, #120]	; 0x78
 8006ef8:	2a00      	cmp	r2, #0
 8006efa:	f040 80d0 	bne.w	800709e <_dtoa_r+0xa96>
 8006efe:	9a08      	ldr	r2, [sp, #32]
 8006f00:	2a00      	cmp	r2, #0
 8006f02:	f040 80cc 	bne.w	800709e <_dtoa_r+0xa96>
 8006f06:	f1b9 0f39 	cmp.w	r9, #57	; 0x39
 8006f0a:	f000 80e8 	beq.w	80070de <_dtoa_r+0xad6>
 8006f0e:	9b02      	ldr	r3, [sp, #8]
 8006f10:	2b00      	cmp	r3, #0
 8006f12:	dd01      	ble.n	8006f18 <_dtoa_r+0x910>
 8006f14:	f105 0931 	add.w	r9, r5, #49	; 0x31
 8006f18:	f108 0501 	add.w	r5, r8, #1
 8006f1c:	f888 9000 	strb.w	r9, [r8]
 8006f20:	e06b      	b.n	8006ffa <_dtoa_r+0x9f2>
 8006f22:	9b12      	ldr	r3, [sp, #72]	; 0x48
 8006f24:	f1c3 0336 	rsb	r3, r3, #54	; 0x36
 8006f28:	e6f7      	b.n	8006d1a <_dtoa_r+0x712>
 8006f2a:	9b08      	ldr	r3, [sp, #32]
 8006f2c:	f109 36ff 	add.w	r6, r9, #4294967295
 8006f30:	42b3      	cmp	r3, r6
 8006f32:	bfb7      	itett	lt
 8006f34:	9b08      	ldrlt	r3, [sp, #32]
 8006f36:	1b9e      	subge	r6, r3, r6
 8006f38:	1af2      	sublt	r2, r6, r3
 8006f3a:	9b0c      	ldrlt	r3, [sp, #48]	; 0x30
 8006f3c:	bfbf      	itttt	lt
 8006f3e:	9608      	strlt	r6, [sp, #32]
 8006f40:	189b      	addlt	r3, r3, r2
 8006f42:	930c      	strlt	r3, [sp, #48]	; 0x30
 8006f44:	2600      	movlt	r6, #0
 8006f46:	f1b9 0f00 	cmp.w	r9, #0
 8006f4a:	bfb9      	ittee	lt
 8006f4c:	eba8 0509 	sublt.w	r5, r8, r9
 8006f50:	2300      	movlt	r3, #0
 8006f52:	4645      	movge	r5, r8
 8006f54:	464b      	movge	r3, r9
 8006f56:	e6e2      	b.n	8006d1e <_dtoa_r+0x716>
 8006f58:	9e08      	ldr	r6, [sp, #32]
 8006f5a:	4645      	mov	r5, r8
 8006f5c:	9f09      	ldr	r7, [sp, #36]	; 0x24
 8006f5e:	e6e7      	b.n	8006d30 <_dtoa_r+0x728>
 8006f60:	9a08      	ldr	r2, [sp, #32]
 8006f62:	e710      	b.n	8006d86 <_dtoa_r+0x77e>
 8006f64:	9b1e      	ldr	r3, [sp, #120]	; 0x78
 8006f66:	2b01      	cmp	r3, #1
 8006f68:	dc18      	bgt.n	8006f9c <_dtoa_r+0x994>
 8006f6a:	9b02      	ldr	r3, [sp, #8]
 8006f6c:	b9b3      	cbnz	r3, 8006f9c <_dtoa_r+0x994>
 8006f6e:	9b03      	ldr	r3, [sp, #12]
 8006f70:	f3c3 0313 	ubfx	r3, r3, #0, #20
 8006f74:	b9a3      	cbnz	r3, 8006fa0 <_dtoa_r+0x998>
 8006f76:	9b03      	ldr	r3, [sp, #12]
 8006f78:	f023 4300 	bic.w	r3, r3, #2147483648	; 0x80000000
 8006f7c:	0d1b      	lsrs	r3, r3, #20
 8006f7e:	051b      	lsls	r3, r3, #20
 8006f80:	b12b      	cbz	r3, 8006f8e <_dtoa_r+0x986>
 8006f82:	9b07      	ldr	r3, [sp, #28]
 8006f84:	f108 0801 	add.w	r8, r8, #1
 8006f88:	3301      	adds	r3, #1
 8006f8a:	9307      	str	r3, [sp, #28]
 8006f8c:	2301      	movs	r3, #1
 8006f8e:	9308      	str	r3, [sp, #32]
 8006f90:	9b0c      	ldr	r3, [sp, #48]	; 0x30
 8006f92:	2b00      	cmp	r3, #0
 8006f94:	f47f af11 	bne.w	8006dba <_dtoa_r+0x7b2>
 8006f98:	2001      	movs	r0, #1
 8006f9a:	e716      	b.n	8006dca <_dtoa_r+0x7c2>
 8006f9c:	2300      	movs	r3, #0
 8006f9e:	e7f6      	b.n	8006f8e <_dtoa_r+0x986>
 8006fa0:	9b02      	ldr	r3, [sp, #8]
 8006fa2:	e7f4      	b.n	8006f8e <_dtoa_r+0x986>
 8006fa4:	f43f af23 	beq.w	8006dee <_dtoa_r+0x7e6>
 8006fa8:	9a07      	ldr	r2, [sp, #28]
 8006faa:	331c      	adds	r3, #28
 8006fac:	441a      	add	r2, r3
 8006fae:	4498      	add	r8, r3
 8006fb0:	441d      	add	r5, r3
 8006fb2:	4613      	mov	r3, r2
 8006fb4:	e71a      	b.n	8006dec <_dtoa_r+0x7e4>
 8006fb6:	4603      	mov	r3, r0
 8006fb8:	e7f6      	b.n	8006fa8 <_dtoa_r+0x9a0>
 8006fba:	bf00      	nop
 8006fbc:	40240000 	.word	0x40240000
 8006fc0:	f1b9 0f00 	cmp.w	r9, #0
 8006fc4:	dc33      	bgt.n	800702e <_dtoa_r+0xa26>
 8006fc6:	9b1e      	ldr	r3, [sp, #120]	; 0x78
 8006fc8:	2b02      	cmp	r3, #2
 8006fca:	dd30      	ble.n	800702e <_dtoa_r+0xa26>
 8006fcc:	f8cd 9010 	str.w	r9, [sp, #16]
 8006fd0:	9b04      	ldr	r3, [sp, #16]
 8006fd2:	b963      	cbnz	r3, 8006fee <_dtoa_r+0x9e6>
 8006fd4:	4631      	mov	r1, r6
 8006fd6:	2205      	movs	r2, #5
 8006fd8:	4620      	mov	r0, r4
 8006fda:	f001 f844 	bl	8008066 <__multadd>
 8006fde:	4601      	mov	r1, r0
 8006fe0:	4606      	mov	r6, r0
 8006fe2:	4650      	mov	r0, sl
 8006fe4:	f001 f9fd 	bl	80083e2 <__mcmp>
 8006fe8:	2800      	cmp	r0, #0
 8006fea:	f73f ad5c 	bgt.w	8006aa6 <_dtoa_r+0x49e>
 8006fee:	9b1f      	ldr	r3, [sp, #124]	; 0x7c
 8006ff0:	9d06      	ldr	r5, [sp, #24]
 8006ff2:	ea6f 0b03 	mvn.w	fp, r3
 8006ff6:	2300      	movs	r3, #0
 8006ff8:	9307      	str	r3, [sp, #28]
 8006ffa:	4631      	mov	r1, r6
 8006ffc:	4620      	mov	r0, r4
 8006ffe:	f001 f81b 	bl	8008038 <_Bfree>
 8007002:	2f00      	cmp	r7, #0
 8007004:	f43f ae4b 	beq.w	8006c9e <_dtoa_r+0x696>
 8007008:	9b07      	ldr	r3, [sp, #28]
 800700a:	b12b      	cbz	r3, 8007018 <_dtoa_r+0xa10>
 800700c:	42bb      	cmp	r3, r7
 800700e:	d003      	beq.n	8007018 <_dtoa_r+0xa10>
 8007010:	4619      	mov	r1, r3
 8007012:	4620      	mov	r0, r4
 8007014:	f001 f810 	bl	8008038 <_Bfree>
 8007018:	4639      	mov	r1, r7
 800701a:	4620      	mov	r0, r4
 800701c:	f001 f80c 	bl	8008038 <_Bfree>
 8007020:	e63d      	b.n	8006c9e <_dtoa_r+0x696>
 8007022:	2600      	movs	r6, #0
 8007024:	4637      	mov	r7, r6
 8007026:	e7e2      	b.n	8006fee <_dtoa_r+0x9e6>
 8007028:	46bb      	mov	fp, r7
 800702a:	4637      	mov	r7, r6
 800702c:	e53b      	b.n	8006aa6 <_dtoa_r+0x49e>
 800702e:	9b09      	ldr	r3, [sp, #36]	; 0x24
 8007030:	f8cd 9010 	str.w	r9, [sp, #16]
 8007034:	2b00      	cmp	r3, #0
 8007036:	f47f af12 	bne.w	8006e5e <_dtoa_r+0x856>
 800703a:	9d06      	ldr	r5, [sp, #24]
 800703c:	4631      	mov	r1, r6
 800703e:	4650      	mov	r0, sl
 8007040:	f7ff fa56 	bl	80064f0 <quorem>
 8007044:	9b06      	ldr	r3, [sp, #24]
 8007046:	f100 0930 	add.w	r9, r0, #48	; 0x30
 800704a:	f805 9b01 	strb.w	r9, [r5], #1
 800704e:	9a04      	ldr	r2, [sp, #16]
 8007050:	1aeb      	subs	r3, r5, r3
 8007052:	429a      	cmp	r2, r3
 8007054:	f300 8081 	bgt.w	800715a <_dtoa_r+0xb52>
 8007058:	9b06      	ldr	r3, [sp, #24]
 800705a:	2a01      	cmp	r2, #1
 800705c:	bfac      	ite	ge
 800705e:	189b      	addge	r3, r3, r2
 8007060:	3301      	addlt	r3, #1
 8007062:	4698      	mov	r8, r3
 8007064:	2300      	movs	r3, #0
 8007066:	9307      	str	r3, [sp, #28]
 8007068:	4651      	mov	r1, sl
 800706a:	2201      	movs	r2, #1
 800706c:	4620      	mov	r0, r4
 800706e:	f001 f967 	bl	8008340 <__lshift>
 8007072:	4631      	mov	r1, r6
 8007074:	4682      	mov	sl, r0
 8007076:	f001 f9b4 	bl	80083e2 <__mcmp>
 800707a:	2800      	cmp	r0, #0
 800707c:	dc34      	bgt.n	80070e8 <_dtoa_r+0xae0>
 800707e:	d102      	bne.n	8007086 <_dtoa_r+0xa7e>
 8007080:	f019 0f01 	tst.w	r9, #1
 8007084:	d130      	bne.n	80070e8 <_dtoa_r+0xae0>
 8007086:	4645      	mov	r5, r8
 8007088:	f815 3c01 	ldrb.w	r3, [r5, #-1]
 800708c:	1e6a      	subs	r2, r5, #1
 800708e:	2b30      	cmp	r3, #48	; 0x30
 8007090:	d1b3      	bne.n	8006ffa <_dtoa_r+0x9f2>
 8007092:	4615      	mov	r5, r2
 8007094:	e7f8      	b.n	8007088 <_dtoa_r+0xa80>
 8007096:	4638      	mov	r0, r7
 8007098:	e6ff      	b.n	8006e9a <_dtoa_r+0x892>
 800709a:	2301      	movs	r3, #1
 800709c:	e722      	b.n	8006ee4 <_dtoa_r+0x8dc>
 800709e:	9a02      	ldr	r2, [sp, #8]
 80070a0:	2a00      	cmp	r2, #0
 80070a2:	db04      	blt.n	80070ae <_dtoa_r+0xaa6>
 80070a4:	d128      	bne.n	80070f8 <_dtoa_r+0xaf0>
 80070a6:	9a1e      	ldr	r2, [sp, #120]	; 0x78
 80070a8:	bb32      	cbnz	r2, 80070f8 <_dtoa_r+0xaf0>
 80070aa:	9a08      	ldr	r2, [sp, #32]
 80070ac:	bb22      	cbnz	r2, 80070f8 <_dtoa_r+0xaf0>
 80070ae:	2b00      	cmp	r3, #0
 80070b0:	f77f af32 	ble.w	8006f18 <_dtoa_r+0x910>
 80070b4:	4651      	mov	r1, sl
 80070b6:	2201      	movs	r2, #1
 80070b8:	4620      	mov	r0, r4
 80070ba:	f001 f941 	bl	8008340 <__lshift>
 80070be:	4631      	mov	r1, r6
 80070c0:	4682      	mov	sl, r0
 80070c2:	f001 f98e 	bl	80083e2 <__mcmp>
 80070c6:	2800      	cmp	r0, #0
 80070c8:	dc05      	bgt.n	80070d6 <_dtoa_r+0xace>
 80070ca:	f47f af25 	bne.w	8006f18 <_dtoa_r+0x910>
 80070ce:	f019 0f01 	tst.w	r9, #1
 80070d2:	f43f af21 	beq.w	8006f18 <_dtoa_r+0x910>
 80070d6:	f1b9 0f39 	cmp.w	r9, #57	; 0x39
 80070da:	f47f af1b 	bne.w	8006f14 <_dtoa_r+0x90c>
 80070de:	2339      	movs	r3, #57	; 0x39
 80070e0:	f108 0801 	add.w	r8, r8, #1
 80070e4:	f808 3c01 	strb.w	r3, [r8, #-1]
 80070e8:	4645      	mov	r5, r8
 80070ea:	f815 3c01 	ldrb.w	r3, [r5, #-1]
 80070ee:	1e6a      	subs	r2, r5, #1
 80070f0:	2b39      	cmp	r3, #57	; 0x39
 80070f2:	d03a      	beq.n	800716a <_dtoa_r+0xb62>
 80070f4:	3301      	adds	r3, #1
 80070f6:	e03f      	b.n	8007178 <_dtoa_r+0xb70>
 80070f8:	2b00      	cmp	r3, #0
 80070fa:	f108 0501 	add.w	r5, r8, #1
 80070fe:	dd05      	ble.n	800710c <_dtoa_r+0xb04>
 8007100:	f1b9 0f39 	cmp.w	r9, #57	; 0x39
 8007104:	d0eb      	beq.n	80070de <_dtoa_r+0xad6>
 8007106:	f109 0901 	add.w	r9, r9, #1
 800710a:	e707      	b.n	8006f1c <_dtoa_r+0x914>
 800710c:	9b06      	ldr	r3, [sp, #24]
 800710e:	9a04      	ldr	r2, [sp, #16]
 8007110:	1aeb      	subs	r3, r5, r3
 8007112:	4293      	cmp	r3, r2
 8007114:	46a8      	mov	r8, r5
 8007116:	f805 9c01 	strb.w	r9, [r5, #-1]
 800711a:	d0a5      	beq.n	8007068 <_dtoa_r+0xa60>
 800711c:	4651      	mov	r1, sl
 800711e:	2300      	movs	r3, #0
 8007120:	220a      	movs	r2, #10
 8007122:	4620      	mov	r0, r4
 8007124:	f000 ff9f 	bl	8008066 <__multadd>
 8007128:	9b07      	ldr	r3, [sp, #28]
 800712a:	4682      	mov	sl, r0
 800712c:	42bb      	cmp	r3, r7
 800712e:	f04f 020a 	mov.w	r2, #10
 8007132:	f04f 0300 	mov.w	r3, #0
 8007136:	9907      	ldr	r1, [sp, #28]
 8007138:	4620      	mov	r0, r4
 800713a:	d104      	bne.n	8007146 <_dtoa_r+0xb3e>
 800713c:	f000 ff93 	bl	8008066 <__multadd>
 8007140:	9007      	str	r0, [sp, #28]
 8007142:	4607      	mov	r7, r0
 8007144:	e6b1      	b.n	8006eaa <_dtoa_r+0x8a2>
 8007146:	f000 ff8e 	bl	8008066 <__multadd>
 800714a:	2300      	movs	r3, #0
 800714c:	9007      	str	r0, [sp, #28]
 800714e:	220a      	movs	r2, #10
 8007150:	4639      	mov	r1, r7
 8007152:	4620      	mov	r0, r4
 8007154:	f000 ff87 	bl	8008066 <__multadd>
 8007158:	e7f3      	b.n	8007142 <_dtoa_r+0xb3a>
 800715a:	4651      	mov	r1, sl
 800715c:	2300      	movs	r3, #0
 800715e:	220a      	movs	r2, #10
 8007160:	4620      	mov	r0, r4
 8007162:	f000 ff80 	bl	8008066 <__multadd>
 8007166:	4682      	mov	sl, r0
 8007168:	e768      	b.n	800703c <_dtoa_r+0xa34>
 800716a:	9b06      	ldr	r3, [sp, #24]
 800716c:	4293      	cmp	r3, r2
 800716e:	d105      	bne.n	800717c <_dtoa_r+0xb74>
 8007170:	2331      	movs	r3, #49	; 0x31
 8007172:	9a06      	ldr	r2, [sp, #24]
 8007174:	f10b 0b01 	add.w	fp, fp, #1
 8007178:	7013      	strb	r3, [r2, #0]
 800717a:	e73e      	b.n	8006ffa <_dtoa_r+0x9f2>
 800717c:	4615      	mov	r5, r2
 800717e:	e7b4      	b.n	80070ea <_dtoa_r+0xae2>
 8007180:	4b09      	ldr	r3, [pc, #36]	; (80071a8 <_dtoa_r+0xba0>)
 8007182:	f7ff baa3 	b.w	80066cc <_dtoa_r+0xc4>
 8007186:	9b22      	ldr	r3, [sp, #136]	; 0x88
 8007188:	2b00      	cmp	r3, #0
 800718a:	f47f aa7d 	bne.w	8006688 <_dtoa_r+0x80>
 800718e:	4b07      	ldr	r3, [pc, #28]	; (80071ac <_dtoa_r+0xba4>)
 8007190:	f7ff ba9c 	b.w	80066cc <_dtoa_r+0xc4>
 8007194:	9b04      	ldr	r3, [sp, #16]
 8007196:	2b00      	cmp	r3, #0
 8007198:	f73f af4f 	bgt.w	800703a <_dtoa_r+0xa32>
 800719c:	9b1e      	ldr	r3, [sp, #120]	; 0x78
 800719e:	2b02      	cmp	r3, #2
 80071a0:	f77f af4b 	ble.w	800703a <_dtoa_r+0xa32>
 80071a4:	e714      	b.n	8006fd0 <_dtoa_r+0x9c8>
 80071a6:	bf00      	nop
 80071a8:	080090c7 	.word	0x080090c7
 80071ac:	08009363 	.word	0x08009363

080071b0 <__sflush_r>:
 80071b0:	f9b1 200c 	ldrsh.w	r2, [r1, #12]
 80071b4:	e92d 41f0 	stmdb	sp!, {r4, r5, r6, r7, r8, lr}
 80071b8:	b293      	uxth	r3, r2
 80071ba:	4605      	mov	r5, r0
 80071bc:	0718      	lsls	r0, r3, #28
 80071be:	460c      	mov	r4, r1
 80071c0:	d461      	bmi.n	8007286 <__sflush_r+0xd6>
 80071c2:	684b      	ldr	r3, [r1, #4]
 80071c4:	f442 6200 	orr.w	r2, r2, #2048	; 0x800
 80071c8:	2b00      	cmp	r3, #0
 80071ca:	818a      	strh	r2, [r1, #12]
 80071cc:	dc05      	bgt.n	80071da <__sflush_r+0x2a>
 80071ce:	6c0b      	ldr	r3, [r1, #64]	; 0x40
 80071d0:	2b00      	cmp	r3, #0
 80071d2:	dc02      	bgt.n	80071da <__sflush_r+0x2a>
 80071d4:	2000      	movs	r0, #0
 80071d6:	e8bd 81f0 	ldmia.w	sp!, {r4, r5, r6, r7, r8, pc}
 80071da:	6ae6      	ldr	r6, [r4, #44]	; 0x2c
 80071dc:	2e00      	cmp	r6, #0
 80071de:	d0f9      	beq.n	80071d4 <__sflush_r+0x24>
 80071e0:	2300      	movs	r3, #0
 80071e2:	f412 5280 	ands.w	r2, r2, #4096	; 0x1000
 80071e6:	682f      	ldr	r7, [r5, #0]
 80071e8:	602b      	str	r3, [r5, #0]
 80071ea:	d037      	beq.n	800725c <__sflush_r+0xac>
 80071ec:	6d60      	ldr	r0, [r4, #84]	; 0x54
 80071ee:	89a3      	ldrh	r3, [r4, #12]
 80071f0:	075a      	lsls	r2, r3, #29
 80071f2:	d505      	bpl.n	8007200 <__sflush_r+0x50>
 80071f4:	6863      	ldr	r3, [r4, #4]
 80071f6:	1ac0      	subs	r0, r0, r3
 80071f8:	6b63      	ldr	r3, [r4, #52]	; 0x34
 80071fa:	b10b      	cbz	r3, 8007200 <__sflush_r+0x50>
 80071fc:	6c23      	ldr	r3, [r4, #64]	; 0x40
 80071fe:	1ac0      	subs	r0, r0, r3
 8007200:	2300      	movs	r3, #0
 8007202:	4602      	mov	r2, r0
 8007204:	6ae6      	ldr	r6, [r4, #44]	; 0x2c
 8007206:	6a21      	ldr	r1, [r4, #32]
 8007208:	4628      	mov	r0, r5
 800720a:	47b0      	blx	r6
 800720c:	1c43      	adds	r3, r0, #1
 800720e:	89a3      	ldrh	r3, [r4, #12]
 8007210:	d106      	bne.n	8007220 <__sflush_r+0x70>
 8007212:	6829      	ldr	r1, [r5, #0]
 8007214:	291d      	cmp	r1, #29
 8007216:	d84f      	bhi.n	80072b8 <__sflush_r+0x108>
 8007218:	4a2d      	ldr	r2, [pc, #180]	; (80072d0 <__sflush_r+0x120>)
 800721a:	40ca      	lsrs	r2, r1
 800721c:	07d6      	lsls	r6, r2, #31
 800721e:	d54b      	bpl.n	80072b8 <__sflush_r+0x108>
 8007220:	2200      	movs	r2, #0
 8007222:	f423 6300 	bic.w	r3, r3, #2048	; 0x800
 8007226:	b21b      	sxth	r3, r3
 8007228:	6062      	str	r2, [r4, #4]
 800722a:	6922      	ldr	r2, [r4, #16]
 800722c:	04d9      	lsls	r1, r3, #19
 800722e:	81a3      	strh	r3, [r4, #12]
 8007230:	6022      	str	r2, [r4, #0]
 8007232:	d504      	bpl.n	800723e <__sflush_r+0x8e>
 8007234:	1c42      	adds	r2, r0, #1
 8007236:	d101      	bne.n	800723c <__sflush_r+0x8c>
 8007238:	682b      	ldr	r3, [r5, #0]
 800723a:	b903      	cbnz	r3, 800723e <__sflush_r+0x8e>
 800723c:	6560      	str	r0, [r4, #84]	; 0x54
 800723e:	6b61      	ldr	r1, [r4, #52]	; 0x34
 8007240:	602f      	str	r7, [r5, #0]
 8007242:	2900      	cmp	r1, #0
 8007244:	d0c6      	beq.n	80071d4 <__sflush_r+0x24>
 8007246:	f104 0344 	add.w	r3, r4, #68	; 0x44
 800724a:	4299      	cmp	r1, r3
 800724c:	d002      	beq.n	8007254 <__sflush_r+0xa4>
 800724e:	4628      	mov	r0, r5
 8007250:	f000 f9ac 	bl	80075ac <_free_r>
 8007254:	2000      	movs	r0, #0
 8007256:	6360      	str	r0, [r4, #52]	; 0x34
 8007258:	e8bd 81f0 	ldmia.w	sp!, {r4, r5, r6, r7, r8, pc}
 800725c:	6a21      	ldr	r1, [r4, #32]
 800725e:	2301      	movs	r3, #1
 8007260:	4628      	mov	r0, r5
 8007262:	47b0      	blx	r6
 8007264:	1c41      	adds	r1, r0, #1
 8007266:	d1c2      	bne.n	80071ee <__sflush_r+0x3e>
 8007268:	682b      	ldr	r3, [r5, #0]
 800726a:	2b00      	cmp	r3, #0
 800726c:	d0bf      	beq.n	80071ee <__sflush_r+0x3e>
 800726e:	2b1d      	cmp	r3, #29
 8007270:	d001      	beq.n	8007276 <__sflush_r+0xc6>
 8007272:	2b16      	cmp	r3, #22
 8007274:	d101      	bne.n	800727a <__sflush_r+0xca>
 8007276:	602f      	str	r7, [r5, #0]
 8007278:	e7ac      	b.n	80071d4 <__sflush_r+0x24>
 800727a:	89a3      	ldrh	r3, [r4, #12]
 800727c:	f043 0340 	orr.w	r3, r3, #64	; 0x40
 8007280:	81a3      	strh	r3, [r4, #12]
 8007282:	e8bd 81f0 	ldmia.w	sp!, {r4, r5, r6, r7, r8, pc}
 8007286:	690f      	ldr	r7, [r1, #16]
 8007288:	2f00      	cmp	r7, #0
 800728a:	d0a3      	beq.n	80071d4 <__sflush_r+0x24>
 800728c:	079b      	lsls	r3, r3, #30
 800728e:	bf18      	it	ne
 8007290:	2300      	movne	r3, #0
 8007292:	680e      	ldr	r6, [r1, #0]
 8007294:	bf08      	it	eq
 8007296:	694b      	ldreq	r3, [r1, #20]
 8007298:	eba6 0807 	sub.w	r8, r6, r7
 800729c:	600f      	str	r7, [r1, #0]
 800729e:	608b      	str	r3, [r1, #8]
 80072a0:	f1b8 0f00 	cmp.w	r8, #0
 80072a4:	dd96      	ble.n	80071d4 <__sflush_r+0x24>
 80072a6:	4643      	mov	r3, r8
 80072a8:	463a      	mov	r2, r7
 80072aa:	6a21      	ldr	r1, [r4, #32]
 80072ac:	4628      	mov	r0, r5
 80072ae:	6aa6      	ldr	r6, [r4, #40]	; 0x28
 80072b0:	47b0      	blx	r6
 80072b2:	2800      	cmp	r0, #0
 80072b4:	dc07      	bgt.n	80072c6 <__sflush_r+0x116>
 80072b6:	89a3      	ldrh	r3, [r4, #12]
 80072b8:	f043 0340 	orr.w	r3, r3, #64	; 0x40
 80072bc:	81a3      	strh	r3, [r4, #12]
 80072be:	f04f 30ff 	mov.w	r0, #4294967295
 80072c2:	e8bd 81f0 	ldmia.w	sp!, {r4, r5, r6, r7, r8, pc}
 80072c6:	4407      	add	r7, r0
 80072c8:	eba8 0800 	sub.w	r8, r8, r0
 80072cc:	e7e8      	b.n	80072a0 <__sflush_r+0xf0>
 80072ce:	bf00      	nop
 80072d0:	20400001 	.word	0x20400001

080072d4 <_fflush_r>:
 80072d4:	b538      	push	{r3, r4, r5, lr}
 80072d6:	690b      	ldr	r3, [r1, #16]
 80072d8:	4605      	mov	r5, r0
 80072da:	460c      	mov	r4, r1
 80072dc:	b913      	cbnz	r3, 80072e4 <_fflush_r+0x10>
 80072de:	2500      	movs	r5, #0
 80072e0:	4628      	mov	r0, r5
 80072e2:	bd38      	pop	{r3, r4, r5, pc}
 80072e4:	b118      	cbz	r0, 80072ee <_fflush_r+0x1a>
 80072e6:	6983      	ldr	r3, [r0, #24]
 80072e8:	b90b      	cbnz	r3, 80072ee <_fflush_r+0x1a>
 80072ea:	f000 f887 	bl	80073fc <__sinit>
 80072ee:	4b14      	ldr	r3, [pc, #80]	; (8007340 <_fflush_r+0x6c>)
 80072f0:	429c      	cmp	r4, r3
 80072f2:	d11b      	bne.n	800732c <_fflush_r+0x58>
 80072f4:	686c      	ldr	r4, [r5, #4]
 80072f6:	f9b4 300c 	ldrsh.w	r3, [r4, #12]
 80072fa:	2b00      	cmp	r3, #0
 80072fc:	d0ef      	beq.n	80072de <_fflush_r+0xa>
 80072fe:	6e62      	ldr	r2, [r4, #100]	; 0x64
 8007300:	07d0      	lsls	r0, r2, #31
 8007302:	d404      	bmi.n	800730e <_fflush_r+0x3a>
 8007304:	0599      	lsls	r1, r3, #22
 8007306:	d402      	bmi.n	800730e <_fflush_r+0x3a>
 8007308:	6da0      	ldr	r0, [r4, #88]	; 0x58
 800730a:	f000 fb99 	bl	8007a40 <__retarget_lock_acquire_recursive>
 800730e:	4628      	mov	r0, r5
 8007310:	4621      	mov	r1, r4
 8007312:	f7ff ff4d 	bl	80071b0 <__sflush_r>
 8007316:	6e63      	ldr	r3, [r4, #100]	; 0x64
 8007318:	4605      	mov	r5, r0
 800731a:	07da      	lsls	r2, r3, #31
 800731c:	d4e0      	bmi.n	80072e0 <_fflush_r+0xc>
 800731e:	89a3      	ldrh	r3, [r4, #12]
 8007320:	059b      	lsls	r3, r3, #22
 8007322:	d4dd      	bmi.n	80072e0 <_fflush_r+0xc>
 8007324:	6da0      	ldr	r0, [r4, #88]	; 0x58
 8007326:	f000 fb8c 	bl	8007a42 <__retarget_lock_release_recursive>
 800732a:	e7d9      	b.n	80072e0 <_fflush_r+0xc>
 800732c:	4b05      	ldr	r3, [pc, #20]	; (8007344 <_fflush_r+0x70>)
 800732e:	429c      	cmp	r4, r3
 8007330:	d101      	bne.n	8007336 <_fflush_r+0x62>
 8007332:	68ac      	ldr	r4, [r5, #8]
 8007334:	e7df      	b.n	80072f6 <_fflush_r+0x22>
 8007336:	4b04      	ldr	r3, [pc, #16]	; (8007348 <_fflush_r+0x74>)
 8007338:	429c      	cmp	r4, r3
 800733a:	bf08      	it	eq
 800733c:	68ec      	ldreq	r4, [r5, #12]
 800733e:	e7da      	b.n	80072f6 <_fflush_r+0x22>
 8007340:	08009390 	.word	0x08009390
 8007344:	080093b0 	.word	0x080093b0
 8007348:	08009370 	.word	0x08009370

0800734c <_cleanup_r>:
 800734c:	4901      	ldr	r1, [pc, #4]	; (8007354 <_cleanup_r+0x8>)
 800734e:	f000 bb37 	b.w	80079c0 <_fwalk_reent>
 8007352:	bf00      	nop
 8007354:	08008b39 	.word	0x08008b39

08007358 <std.isra.0>:
 8007358:	2300      	movs	r3, #0
 800735a:	b510      	push	{r4, lr}
 800735c:	4604      	mov	r4, r0
 800735e:	6003      	str	r3, [r0, #0]
 8007360:	6043      	str	r3, [r0, #4]
 8007362:	6083      	str	r3, [r0, #8]
 8007364:	8181      	strh	r1, [r0, #12]
 8007366:	6643      	str	r3, [r0, #100]	; 0x64
 8007368:	81c2      	strh	r2, [r0, #14]
 800736a:	6103      	str	r3, [r0, #16]
 800736c:	6143      	str	r3, [r0, #20]
 800736e:	6183      	str	r3, [r0, #24]
 8007370:	4619      	mov	r1, r3
 8007372:	2208      	movs	r2, #8
 8007374:	305c      	adds	r0, #92	; 0x5c
 8007376:	f7fc fe1b 	bl	8003fb0 <memset>
 800737a:	4b05      	ldr	r3, [pc, #20]	; (8007390 <std.isra.0+0x38>)
 800737c:	6224      	str	r4, [r4, #32]
 800737e:	6263      	str	r3, [r4, #36]	; 0x24
 8007380:	4b04      	ldr	r3, [pc, #16]	; (8007394 <std.isra.0+0x3c>)
 8007382:	62a3      	str	r3, [r4, #40]	; 0x28
 8007384:	4b04      	ldr	r3, [pc, #16]	; (8007398 <std.isra.0+0x40>)
 8007386:	62e3      	str	r3, [r4, #44]	; 0x2c
 8007388:	4b04      	ldr	r3, [pc, #16]	; (800739c <std.isra.0+0x44>)
 800738a:	6323      	str	r3, [r4, #48]	; 0x30
 800738c:	bd10      	pop	{r4, pc}
 800738e:	bf00      	nop
 8007390:	08008899 	.word	0x08008899
 8007394:	080088bb 	.word	0x080088bb
 8007398:	080088f3 	.word	0x080088f3
 800739c:	08008917 	.word	0x08008917

080073a0 <__sfmoreglue>:
 80073a0:	b570      	push	{r4, r5, r6, lr}
 80073a2:	2568      	movs	r5, #104	; 0x68
 80073a4:	1e4a      	subs	r2, r1, #1
 80073a6:	4355      	muls	r5, r2
 80073a8:	460e      	mov	r6, r1
 80073aa:	f105 0174 	add.w	r1, r5, #116	; 0x74
 80073ae:	f000 fbbd 	bl	8007b2c <_malloc_r>
 80073b2:	4604      	mov	r4, r0
 80073b4:	b140      	cbz	r0, 80073c8 <__sfmoreglue+0x28>
 80073b6:	2100      	movs	r1, #0
 80073b8:	e880 0042 	stmia.w	r0, {r1, r6}
 80073bc:	300c      	adds	r0, #12
 80073be:	60a0      	str	r0, [r4, #8]
 80073c0:	f105 0268 	add.w	r2, r5, #104	; 0x68
 80073c4:	f7fc fdf4 	bl	8003fb0 <memset>
 80073c8:	4620      	mov	r0, r4
 80073ca:	bd70      	pop	{r4, r5, r6, pc}

080073cc <__sfp_lock_acquire>:
 80073cc:	4801      	ldr	r0, [pc, #4]	; (80073d4 <__sfp_lock_acquire+0x8>)
 80073ce:	f000 bb37 	b.w	8007a40 <__retarget_lock_acquire_recursive>
 80073d2:	bf00      	nop
 80073d4:	20002330 	.word	0x20002330

080073d8 <__sfp_lock_release>:
 80073d8:	4801      	ldr	r0, [pc, #4]	; (80073e0 <__sfp_lock_release+0x8>)
 80073da:	f000 bb32 	b.w	8007a42 <__retarget_lock_release_recursive>
 80073de:	bf00      	nop
 80073e0:	20002330 	.word	0x20002330

080073e4 <__sinit_lock_acquire>:
 80073e4:	4801      	ldr	r0, [pc, #4]	; (80073ec <__sinit_lock_acquire+0x8>)
 80073e6:	f000 bb2b 	b.w	8007a40 <__retarget_lock_acquire_recursive>
 80073ea:	bf00      	nop
 80073ec:	2000232b 	.word	0x2000232b

080073f0 <__sinit_lock_release>:
 80073f0:	4801      	ldr	r0, [pc, #4]	; (80073f8 <__sinit_lock_release+0x8>)
 80073f2:	f000 bb26 	b.w	8007a42 <__retarget_lock_release_recursive>
 80073f6:	bf00      	nop
 80073f8:	2000232b 	.word	0x2000232b

080073fc <__sinit>:
 80073fc:	b510      	push	{r4, lr}
 80073fe:	4604      	mov	r4, r0
 8007400:	f7ff fff0 	bl	80073e4 <__sinit_lock_acquire>
 8007404:	69a3      	ldr	r3, [r4, #24]
 8007406:	b11b      	cbz	r3, 8007410 <__sinit+0x14>
 8007408:	e8bd 4010 	ldmia.w	sp!, {r4, lr}
 800740c:	f7ff bff0 	b.w	80073f0 <__sinit_lock_release>
 8007410:	f8c4 30d8 	str.w	r3, [r4, #216]	; 0xd8
 8007414:	f8c4 30dc 	str.w	r3, [r4, #220]	; 0xdc
 8007418:	f8c4 30e0 	str.w	r3, [r4, #224]	; 0xe0
 800741c:	4b13      	ldr	r3, [pc, #76]	; (800746c <__sinit+0x70>)
 800741e:	4a14      	ldr	r2, [pc, #80]	; (8007470 <__sinit+0x74>)
 8007420:	681b      	ldr	r3, [r3, #0]
 8007422:	62a2      	str	r2, [r4, #40]	; 0x28
 8007424:	429c      	cmp	r4, r3
 8007426:	bf08      	it	eq
 8007428:	2301      	moveq	r3, #1
 800742a:	4620      	mov	r0, r4
 800742c:	bf08      	it	eq
 800742e:	61a3      	streq	r3, [r4, #24]
 8007430:	f000 f820 	bl	8007474 <__sfp>
 8007434:	6060      	str	r0, [r4, #4]
 8007436:	4620      	mov	r0, r4
 8007438:	f000 f81c 	bl	8007474 <__sfp>
 800743c:	60a0      	str	r0, [r4, #8]
 800743e:	4620      	mov	r0, r4
 8007440:	f000 f818 	bl	8007474 <__sfp>
 8007444:	2200      	movs	r2, #0
 8007446:	60e0      	str	r0, [r4, #12]
 8007448:	2104      	movs	r1, #4
 800744a:	6860      	ldr	r0, [r4, #4]
 800744c:	f7ff ff84 	bl	8007358 <std.isra.0>
 8007450:	2201      	movs	r2, #1
 8007452:	2109      	movs	r1, #9
 8007454:	68a0      	ldr	r0, [r4, #8]
 8007456:	f7ff ff7f 	bl	8007358 <std.isra.0>
 800745a:	2202      	movs	r2, #2
 800745c:	2112      	movs	r1, #18
 800745e:	68e0      	ldr	r0, [r4, #12]
 8007460:	f7ff ff7a 	bl	8007358 <std.isra.0>
 8007464:	2301      	movs	r3, #1
 8007466:	61a3      	str	r3, [r4, #24]
 8007468:	e7ce      	b.n	8007408 <__sinit+0xc>
 800746a:	bf00      	nop
 800746c:	080093d0 	.word	0x080093d0
 8007470:	0800734d 	.word	0x0800734d

08007474 <__sfp>:
 8007474:	b5f8      	push	{r3, r4, r5, r6, r7, lr}
 8007476:	4607      	mov	r7, r0
 8007478:	f7ff ffa8 	bl	80073cc <__sfp_lock_acquire>
 800747c:	4b1f      	ldr	r3, [pc, #124]	; (80074fc <__sfp+0x88>)
 800747e:	681e      	ldr	r6, [r3, #0]
 8007480:	69b3      	ldr	r3, [r6, #24]
 8007482:	b913      	cbnz	r3, 800748a <__sfp+0x16>
 8007484:	4630      	mov	r0, r6
 8007486:	f7ff ffb9 	bl	80073fc <__sinit>
 800748a:	36d8      	adds	r6, #216	; 0xd8
 800748c:	68b4      	ldr	r4, [r6, #8]
 800748e:	6873      	ldr	r3, [r6, #4]
 8007490:	3b01      	subs	r3, #1
 8007492:	d503      	bpl.n	800749c <__sfp+0x28>
 8007494:	6833      	ldr	r3, [r6, #0]
 8007496:	b133      	cbz	r3, 80074a6 <__sfp+0x32>
 8007498:	6836      	ldr	r6, [r6, #0]
 800749a:	e7f7      	b.n	800748c <__sfp+0x18>
 800749c:	f9b4 500c 	ldrsh.w	r5, [r4, #12]
 80074a0:	b17d      	cbz	r5, 80074c2 <__sfp+0x4e>
 80074a2:	3468      	adds	r4, #104	; 0x68
 80074a4:	e7f4      	b.n	8007490 <__sfp+0x1c>
 80074a6:	2104      	movs	r1, #4
 80074a8:	4638      	mov	r0, r7
 80074aa:	f7ff ff79 	bl	80073a0 <__sfmoreglue>
 80074ae:	4604      	mov	r4, r0
 80074b0:	6030      	str	r0, [r6, #0]
 80074b2:	2800      	cmp	r0, #0
 80074b4:	d1f0      	bne.n	8007498 <__sfp+0x24>
 80074b6:	f7ff ff8f 	bl	80073d8 <__sfp_lock_release>
 80074ba:	230c      	movs	r3, #12
 80074bc:	603b      	str	r3, [r7, #0]
 80074be:	4620      	mov	r0, r4
 80074c0:	bdf8      	pop	{r3, r4, r5, r6, r7, pc}
 80074c2:	f64f 73ff 	movw	r3, #65535	; 0xffff
 80074c6:	81e3      	strh	r3, [r4, #14]
 80074c8:	2301      	movs	r3, #1
 80074ca:	f104 0058 	add.w	r0, r4, #88	; 0x58
 80074ce:	81a3      	strh	r3, [r4, #12]
 80074d0:	6665      	str	r5, [r4, #100]	; 0x64
 80074d2:	f000 fab3 	bl	8007a3c <__retarget_lock_init_recursive>
 80074d6:	f7ff ff7f 	bl	80073d8 <__sfp_lock_release>
 80074da:	6025      	str	r5, [r4, #0]
 80074dc:	60a5      	str	r5, [r4, #8]
 80074de:	6065      	str	r5, [r4, #4]
 80074e0:	6125      	str	r5, [r4, #16]
 80074e2:	6165      	str	r5, [r4, #20]
 80074e4:	61a5      	str	r5, [r4, #24]
 80074e6:	2208      	movs	r2, #8
 80074e8:	4629      	mov	r1, r5
 80074ea:	f104 005c 	add.w	r0, r4, #92	; 0x5c
 80074ee:	f7fc fd5f 	bl	8003fb0 <memset>
 80074f2:	6365      	str	r5, [r4, #52]	; 0x34
 80074f4:	63a5      	str	r5, [r4, #56]	; 0x38
 80074f6:	64a5      	str	r5, [r4, #72]	; 0x48
 80074f8:	64e5      	str	r5, [r4, #76]	; 0x4c
 80074fa:	e7e0      	b.n	80074be <__sfp+0x4a>
 80074fc:	080093d0 	.word	0x080093d0

08007500 <_malloc_trim_r>:
 8007500:	e92d 43f8 	stmdb	sp!, {r3, r4, r5, r6, r7, r8, r9, lr}
 8007504:	4689      	mov	r9, r1
 8007506:	4f25      	ldr	r7, [pc, #148]	; (800759c <_malloc_trim_r+0x9c>)
 8007508:	4606      	mov	r6, r0
 800750a:	f000 fd55 	bl	8007fb8 <__malloc_lock>
 800750e:	68bb      	ldr	r3, [r7, #8]
 8007510:	f8df 8094 	ldr.w	r8, [pc, #148]	; 80075a8 <_malloc_trim_r+0xa8>
 8007514:	685d      	ldr	r5, [r3, #4]
 8007516:	f1a8 0411 	sub.w	r4, r8, #17
 800751a:	f025 0503 	bic.w	r5, r5, #3
 800751e:	eba4 0409 	sub.w	r4, r4, r9
 8007522:	442c      	add	r4, r5
 8007524:	fbb4 f4f8 	udiv	r4, r4, r8
 8007528:	3c01      	subs	r4, #1
 800752a:	fb08 f404 	mul.w	r4, r8, r4
 800752e:	4544      	cmp	r4, r8
 8007530:	da05      	bge.n	800753e <_malloc_trim_r+0x3e>
 8007532:	4630      	mov	r0, r6
 8007534:	f000 fd46 	bl	8007fc4 <__malloc_unlock>
 8007538:	2000      	movs	r0, #0
 800753a:	e8bd 83f8 	ldmia.w	sp!, {r3, r4, r5, r6, r7, r8, r9, pc}
 800753e:	2100      	movs	r1, #0
 8007540:	4630      	mov	r0, r6
 8007542:	f001 f999 	bl	8008878 <_sbrk_r>
 8007546:	68bb      	ldr	r3, [r7, #8]
 8007548:	442b      	add	r3, r5
 800754a:	4298      	cmp	r0, r3
 800754c:	d1f1      	bne.n	8007532 <_malloc_trim_r+0x32>
 800754e:	4261      	negs	r1, r4
 8007550:	4630      	mov	r0, r6
 8007552:	f001 f991 	bl	8008878 <_sbrk_r>
 8007556:	3001      	adds	r0, #1
 8007558:	d110      	bne.n	800757c <_malloc_trim_r+0x7c>
 800755a:	2100      	movs	r1, #0
 800755c:	4630      	mov	r0, r6
 800755e:	f001 f98b 	bl	8008878 <_sbrk_r>
 8007562:	68ba      	ldr	r2, [r7, #8]
 8007564:	1a83      	subs	r3, r0, r2
 8007566:	2b0f      	cmp	r3, #15
 8007568:	dde3      	ble.n	8007532 <_malloc_trim_r+0x32>
 800756a:	490d      	ldr	r1, [pc, #52]	; (80075a0 <_malloc_trim_r+0xa0>)
 800756c:	f043 0301 	orr.w	r3, r3, #1
 8007570:	6809      	ldr	r1, [r1, #0]
 8007572:	6053      	str	r3, [r2, #4]
 8007574:	1a40      	subs	r0, r0, r1
 8007576:	490b      	ldr	r1, [pc, #44]	; (80075a4 <_malloc_trim_r+0xa4>)
 8007578:	6008      	str	r0, [r1, #0]
 800757a:	e7da      	b.n	8007532 <_malloc_trim_r+0x32>
 800757c:	68bb      	ldr	r3, [r7, #8]
 800757e:	4a09      	ldr	r2, [pc, #36]	; (80075a4 <_malloc_trim_r+0xa4>)
 8007580:	1b2d      	subs	r5, r5, r4
 8007582:	f045 0501 	orr.w	r5, r5, #1
 8007586:	605d      	str	r5, [r3, #4]
 8007588:	6813      	ldr	r3, [r2, #0]
 800758a:	4630      	mov	r0, r6
 800758c:	1b1c      	subs	r4, r3, r4
 800758e:	6014      	str	r4, [r2, #0]
 8007590:	f000 fd18 	bl	8007fc4 <__malloc_unlock>
 8007594:	2001      	movs	r0, #1
 8007596:	e8bd 83f8 	ldmia.w	sp!, {r3, r4, r5, r6, r7, r8, r9, pc}
 800759a:	bf00      	nop
 800759c:	200002bc 	.word	0x200002bc
 80075a0:	200006c4 	.word	0x200006c4
 80075a4:	20001a60 	.word	0x20001a60
 80075a8:	00000080 	.word	0x00000080

080075ac <_free_r>:
 80075ac:	e92d 41f0 	stmdb	sp!, {r4, r5, r6, r7, r8, lr}
 80075b0:	4604      	mov	r4, r0
 80075b2:	4688      	mov	r8, r1
 80075b4:	2900      	cmp	r1, #0
 80075b6:	f000 80ab 	beq.w	8007710 <_free_r+0x164>
 80075ba:	f000 fcfd 	bl	8007fb8 <__malloc_lock>
 80075be:	f858 2c04 	ldr.w	r2, [r8, #-4]
 80075c2:	4d54      	ldr	r5, [pc, #336]	; (8007714 <_free_r+0x168>)
 80075c4:	f022 0001 	bic.w	r0, r2, #1
 80075c8:	f1a8 0308 	sub.w	r3, r8, #8
 80075cc:	181f      	adds	r7, r3, r0
 80075ce:	68a9      	ldr	r1, [r5, #8]
 80075d0:	687e      	ldr	r6, [r7, #4]
 80075d2:	428f      	cmp	r7, r1
 80075d4:	f026 0603 	bic.w	r6, r6, #3
 80075d8:	f002 0201 	and.w	r2, r2, #1
 80075dc:	d11b      	bne.n	8007616 <_free_r+0x6a>
 80075de:	4430      	add	r0, r6
 80075e0:	b93a      	cbnz	r2, 80075f2 <_free_r+0x46>
 80075e2:	f858 2c08 	ldr.w	r2, [r8, #-8]
 80075e6:	1a9b      	subs	r3, r3, r2
 80075e8:	6899      	ldr	r1, [r3, #8]
 80075ea:	4410      	add	r0, r2
 80075ec:	68da      	ldr	r2, [r3, #12]
 80075ee:	60ca      	str	r2, [r1, #12]
 80075f0:	6091      	str	r1, [r2, #8]
 80075f2:	f040 0201 	orr.w	r2, r0, #1
 80075f6:	605a      	str	r2, [r3, #4]
 80075f8:	60ab      	str	r3, [r5, #8]
 80075fa:	4b47      	ldr	r3, [pc, #284]	; (8007718 <_free_r+0x16c>)
 80075fc:	681b      	ldr	r3, [r3, #0]
 80075fe:	4298      	cmp	r0, r3
 8007600:	d304      	bcc.n	800760c <_free_r+0x60>
 8007602:	4b46      	ldr	r3, [pc, #280]	; (800771c <_free_r+0x170>)
 8007604:	4620      	mov	r0, r4
 8007606:	6819      	ldr	r1, [r3, #0]
 8007608:	f7ff ff7a 	bl	8007500 <_malloc_trim_r>
 800760c:	4620      	mov	r0, r4
 800760e:	e8bd 41f0 	ldmia.w	sp!, {r4, r5, r6, r7, r8, lr}
 8007612:	f000 bcd7 	b.w	8007fc4 <__malloc_unlock>
 8007616:	607e      	str	r6, [r7, #4]
 8007618:	2a00      	cmp	r2, #0
 800761a:	d139      	bne.n	8007690 <_free_r+0xe4>
 800761c:	f858 1c08 	ldr.w	r1, [r8, #-8]
 8007620:	f105 0e08 	add.w	lr, r5, #8
 8007624:	1a5b      	subs	r3, r3, r1
 8007626:	4408      	add	r0, r1
 8007628:	6899      	ldr	r1, [r3, #8]
 800762a:	4571      	cmp	r1, lr
 800762c:	d032      	beq.n	8007694 <_free_r+0xe8>
 800762e:	f8d3 e00c 	ldr.w	lr, [r3, #12]
 8007632:	f8c1 e00c 	str.w	lr, [r1, #12]
 8007636:	f8ce 1008 	str.w	r1, [lr, #8]
 800763a:	19b9      	adds	r1, r7, r6
 800763c:	6849      	ldr	r1, [r1, #4]
 800763e:	07c9      	lsls	r1, r1, #31
 8007640:	d40a      	bmi.n	8007658 <_free_r+0xac>
 8007642:	4430      	add	r0, r6
 8007644:	68b9      	ldr	r1, [r7, #8]
 8007646:	bb3a      	cbnz	r2, 8007698 <_free_r+0xec>
 8007648:	4e35      	ldr	r6, [pc, #212]	; (8007720 <_free_r+0x174>)
 800764a:	42b1      	cmp	r1, r6
 800764c:	d124      	bne.n	8007698 <_free_r+0xec>
 800764e:	2201      	movs	r2, #1
 8007650:	616b      	str	r3, [r5, #20]
 8007652:	612b      	str	r3, [r5, #16]
 8007654:	60d9      	str	r1, [r3, #12]
 8007656:	6099      	str	r1, [r3, #8]
 8007658:	f040 0101 	orr.w	r1, r0, #1
 800765c:	6059      	str	r1, [r3, #4]
 800765e:	5018      	str	r0, [r3, r0]
 8007660:	2a00      	cmp	r2, #0
 8007662:	d1d3      	bne.n	800760c <_free_r+0x60>
 8007664:	f5b0 7f00 	cmp.w	r0, #512	; 0x200
 8007668:	d21a      	bcs.n	80076a0 <_free_r+0xf4>
 800766a:	2201      	movs	r2, #1
 800766c:	08c0      	lsrs	r0, r0, #3
 800766e:	1081      	asrs	r1, r0, #2
 8007670:	408a      	lsls	r2, r1
 8007672:	6869      	ldr	r1, [r5, #4]
 8007674:	3001      	adds	r0, #1
 8007676:	430a      	orrs	r2, r1
 8007678:	606a      	str	r2, [r5, #4]
 800767a:	f855 1030 	ldr.w	r1, [r5, r0, lsl #3]
 800767e:	eb05 02c0 	add.w	r2, r5, r0, lsl #3
 8007682:	3a08      	subs	r2, #8
 8007684:	60da      	str	r2, [r3, #12]
 8007686:	6099      	str	r1, [r3, #8]
 8007688:	f845 3030 	str.w	r3, [r5, r0, lsl #3]
 800768c:	60cb      	str	r3, [r1, #12]
 800768e:	e7bd      	b.n	800760c <_free_r+0x60>
 8007690:	2200      	movs	r2, #0
 8007692:	e7d2      	b.n	800763a <_free_r+0x8e>
 8007694:	2201      	movs	r2, #1
 8007696:	e7d0      	b.n	800763a <_free_r+0x8e>
 8007698:	68fe      	ldr	r6, [r7, #12]
 800769a:	60ce      	str	r6, [r1, #12]
 800769c:	60b1      	str	r1, [r6, #8]
 800769e:	e7db      	b.n	8007658 <_free_r+0xac>
 80076a0:	0a42      	lsrs	r2, r0, #9
 80076a2:	2a04      	cmp	r2, #4
 80076a4:	d813      	bhi.n	80076ce <_free_r+0x122>
 80076a6:	0982      	lsrs	r2, r0, #6
 80076a8:	3238      	adds	r2, #56	; 0x38
 80076aa:	1c51      	adds	r1, r2, #1
 80076ac:	f855 1031 	ldr.w	r1, [r5, r1, lsl #3]
 80076b0:	eb05 06c2 	add.w	r6, r5, r2, lsl #3
 80076b4:	428e      	cmp	r6, r1
 80076b6:	d124      	bne.n	8007702 <_free_r+0x156>
 80076b8:	2001      	movs	r0, #1
 80076ba:	1092      	asrs	r2, r2, #2
 80076bc:	fa00 f202 	lsl.w	r2, r0, r2
 80076c0:	6868      	ldr	r0, [r5, #4]
 80076c2:	4302      	orrs	r2, r0
 80076c4:	606a      	str	r2, [r5, #4]
 80076c6:	60de      	str	r6, [r3, #12]
 80076c8:	6099      	str	r1, [r3, #8]
 80076ca:	60b3      	str	r3, [r6, #8]
 80076cc:	e7de      	b.n	800768c <_free_r+0xe0>
 80076ce:	2a14      	cmp	r2, #20
 80076d0:	d801      	bhi.n	80076d6 <_free_r+0x12a>
 80076d2:	325b      	adds	r2, #91	; 0x5b
 80076d4:	e7e9      	b.n	80076aa <_free_r+0xfe>
 80076d6:	2a54      	cmp	r2, #84	; 0x54
 80076d8:	d802      	bhi.n	80076e0 <_free_r+0x134>
 80076da:	0b02      	lsrs	r2, r0, #12
 80076dc:	326e      	adds	r2, #110	; 0x6e
 80076de:	e7e4      	b.n	80076aa <_free_r+0xfe>
 80076e0:	f5b2 7faa 	cmp.w	r2, #340	; 0x154
 80076e4:	d802      	bhi.n	80076ec <_free_r+0x140>
 80076e6:	0bc2      	lsrs	r2, r0, #15
 80076e8:	3277      	adds	r2, #119	; 0x77
 80076ea:	e7de      	b.n	80076aa <_free_r+0xfe>
 80076ec:	f240 5154 	movw	r1, #1364	; 0x554
 80076f0:	428a      	cmp	r2, r1
 80076f2:	bf9a      	itte	ls
 80076f4:	0c82      	lsrls	r2, r0, #18
 80076f6:	327c      	addls	r2, #124	; 0x7c
 80076f8:	227e      	movhi	r2, #126	; 0x7e
 80076fa:	e7d6      	b.n	80076aa <_free_r+0xfe>
 80076fc:	6889      	ldr	r1, [r1, #8]
 80076fe:	428e      	cmp	r6, r1
 8007700:	d004      	beq.n	800770c <_free_r+0x160>
 8007702:	684a      	ldr	r2, [r1, #4]
 8007704:	f022 0203 	bic.w	r2, r2, #3
 8007708:	4290      	cmp	r0, r2
 800770a:	d3f7      	bcc.n	80076fc <_free_r+0x150>
 800770c:	68ce      	ldr	r6, [r1, #12]
 800770e:	e7da      	b.n	80076c6 <_free_r+0x11a>
 8007710:	e8bd 81f0 	ldmia.w	sp!, {r4, r5, r6, r7, r8, pc}
 8007714:	200002bc 	.word	0x200002bc
 8007718:	200006c8 	.word	0x200006c8
 800771c:	20001a90 	.word	0x20001a90
 8007720:	200002c4 	.word	0x200002c4

08007724 <__sfvwrite_r>:
 8007724:	6893      	ldr	r3, [r2, #8]
 8007726:	e92d 4ff7 	stmdb	sp!, {r0, r1, r2, r4, r5, r6, r7, r8, r9, sl, fp, lr}
 800772a:	4607      	mov	r7, r0
 800772c:	460c      	mov	r4, r1
 800772e:	4690      	mov	r8, r2
 8007730:	b91b      	cbnz	r3, 800773a <__sfvwrite_r+0x16>
 8007732:	2000      	movs	r0, #0
 8007734:	b003      	add	sp, #12
 8007736:	e8bd 8ff0 	ldmia.w	sp!, {r4, r5, r6, r7, r8, r9, sl, fp, pc}
 800773a:	898b      	ldrh	r3, [r1, #12]
 800773c:	0718      	lsls	r0, r3, #28
 800773e:	d526      	bpl.n	800778e <__sfvwrite_r+0x6a>
 8007740:	690b      	ldr	r3, [r1, #16]
 8007742:	b323      	cbz	r3, 800778e <__sfvwrite_r+0x6a>
 8007744:	89a3      	ldrh	r3, [r4, #12]
 8007746:	f8d8 6000 	ldr.w	r6, [r8]
 800774a:	f013 0902 	ands.w	r9, r3, #2
 800774e:	d02d      	beq.n	80077ac <__sfvwrite_r+0x88>
 8007750:	f04f 0a00 	mov.w	sl, #0
 8007754:	46d1      	mov	r9, sl
 8007756:	f8df b264 	ldr.w	fp, [pc, #612]	; 80079bc <__sfvwrite_r+0x298>
 800775a:	f1b9 0f00 	cmp.w	r9, #0
 800775e:	d01f      	beq.n	80077a0 <__sfvwrite_r+0x7c>
 8007760:	45d9      	cmp	r9, fp
 8007762:	464b      	mov	r3, r9
 8007764:	4652      	mov	r2, sl
 8007766:	bf28      	it	cs
 8007768:	465b      	movcs	r3, fp
 800776a:	6a21      	ldr	r1, [r4, #32]
 800776c:	4638      	mov	r0, r7
 800776e:	6aa5      	ldr	r5, [r4, #40]	; 0x28
 8007770:	47a8      	blx	r5
 8007772:	2800      	cmp	r0, #0
 8007774:	f340 8089 	ble.w	800788a <__sfvwrite_r+0x166>
 8007778:	f8d8 3008 	ldr.w	r3, [r8, #8]
 800777c:	4482      	add	sl, r0
 800777e:	eba9 0900 	sub.w	r9, r9, r0
 8007782:	1a18      	subs	r0, r3, r0
 8007784:	f8c8 0008 	str.w	r0, [r8, #8]
 8007788:	2800      	cmp	r0, #0
 800778a:	d1e6      	bne.n	800775a <__sfvwrite_r+0x36>
 800778c:	e7d1      	b.n	8007732 <__sfvwrite_r+0xe>
 800778e:	4621      	mov	r1, r4
 8007790:	4638      	mov	r0, r7
 8007792:	f7fe fe3f 	bl	8006414 <__swsetup_r>
 8007796:	2800      	cmp	r0, #0
 8007798:	d0d4      	beq.n	8007744 <__sfvwrite_r+0x20>
 800779a:	f04f 30ff 	mov.w	r0, #4294967295
 800779e:	e7c9      	b.n	8007734 <__sfvwrite_r+0x10>
 80077a0:	f8d6 a000 	ldr.w	sl, [r6]
 80077a4:	f8d6 9004 	ldr.w	r9, [r6, #4]
 80077a8:	3608      	adds	r6, #8
 80077aa:	e7d6      	b.n	800775a <__sfvwrite_r+0x36>
 80077ac:	f013 0301 	ands.w	r3, r3, #1
 80077b0:	d043      	beq.n	800783a <__sfvwrite_r+0x116>
 80077b2:	4648      	mov	r0, r9
 80077b4:	46ca      	mov	sl, r9
 80077b6:	46cb      	mov	fp, r9
 80077b8:	f1bb 0f00 	cmp.w	fp, #0
 80077bc:	f000 80d9 	beq.w	8007972 <__sfvwrite_r+0x24e>
 80077c0:	b950      	cbnz	r0, 80077d8 <__sfvwrite_r+0xb4>
 80077c2:	465a      	mov	r2, fp
 80077c4:	210a      	movs	r1, #10
 80077c6:	4650      	mov	r0, sl
 80077c8:	f000 fbce 	bl	8007f68 <memchr>
 80077cc:	2800      	cmp	r0, #0
 80077ce:	f000 80d5 	beq.w	800797c <__sfvwrite_r+0x258>
 80077d2:	3001      	adds	r0, #1
 80077d4:	eba0 090a 	sub.w	r9, r0, sl
 80077d8:	6820      	ldr	r0, [r4, #0]
 80077da:	6921      	ldr	r1, [r4, #16]
 80077dc:	45d9      	cmp	r9, fp
 80077de:	464b      	mov	r3, r9
 80077e0:	bf28      	it	cs
 80077e2:	465b      	movcs	r3, fp
 80077e4:	4288      	cmp	r0, r1
 80077e6:	6962      	ldr	r2, [r4, #20]
 80077e8:	f240 80cb 	bls.w	8007982 <__sfvwrite_r+0x25e>
 80077ec:	68a5      	ldr	r5, [r4, #8]
 80077ee:	4415      	add	r5, r2
 80077f0:	42ab      	cmp	r3, r5
 80077f2:	f340 80c6 	ble.w	8007982 <__sfvwrite_r+0x25e>
 80077f6:	4651      	mov	r1, sl
 80077f8:	462a      	mov	r2, r5
 80077fa:	f000 fbc3 	bl	8007f84 <memmove>
 80077fe:	6823      	ldr	r3, [r4, #0]
 8007800:	4621      	mov	r1, r4
 8007802:	442b      	add	r3, r5
 8007804:	6023      	str	r3, [r4, #0]
 8007806:	4638      	mov	r0, r7
 8007808:	f7ff fd64 	bl	80072d4 <_fflush_r>
 800780c:	2800      	cmp	r0, #0
 800780e:	d13c      	bne.n	800788a <__sfvwrite_r+0x166>
 8007810:	ebb9 0905 	subs.w	r9, r9, r5
 8007814:	f040 80cf 	bne.w	80079b6 <__sfvwrite_r+0x292>
 8007818:	4621      	mov	r1, r4
 800781a:	4638      	mov	r0, r7
 800781c:	f7ff fd5a 	bl	80072d4 <_fflush_r>
 8007820:	2800      	cmp	r0, #0
 8007822:	d132      	bne.n	800788a <__sfvwrite_r+0x166>
 8007824:	f8d8 3008 	ldr.w	r3, [r8, #8]
 8007828:	44aa      	add	sl, r5
 800782a:	ebab 0b05 	sub.w	fp, fp, r5
 800782e:	1b5d      	subs	r5, r3, r5
 8007830:	f8c8 5008 	str.w	r5, [r8, #8]
 8007834:	2d00      	cmp	r5, #0
 8007836:	d1bf      	bne.n	80077b8 <__sfvwrite_r+0x94>
 8007838:	e77b      	b.n	8007732 <__sfvwrite_r+0xe>
 800783a:	4699      	mov	r9, r3
 800783c:	469a      	mov	sl, r3
 800783e:	f1ba 0f00 	cmp.w	sl, #0
 8007842:	d027      	beq.n	8007894 <__sfvwrite_r+0x170>
 8007844:	89a2      	ldrh	r2, [r4, #12]
 8007846:	68a5      	ldr	r5, [r4, #8]
 8007848:	0591      	lsls	r1, r2, #22
 800784a:	d565      	bpl.n	8007918 <__sfvwrite_r+0x1f4>
 800784c:	45aa      	cmp	sl, r5
 800784e:	d33b      	bcc.n	80078c8 <__sfvwrite_r+0x1a4>
 8007850:	f412 6f90 	tst.w	r2, #1152	; 0x480
 8007854:	d036      	beq.n	80078c4 <__sfvwrite_r+0x1a0>
 8007856:	2002      	movs	r0, #2
 8007858:	6921      	ldr	r1, [r4, #16]
 800785a:	6823      	ldr	r3, [r4, #0]
 800785c:	1a5b      	subs	r3, r3, r1
 800785e:	9301      	str	r3, [sp, #4]
 8007860:	6963      	ldr	r3, [r4, #20]
 8007862:	eb03 0343 	add.w	r3, r3, r3, lsl #1
 8007866:	fb93 fbf0 	sdiv	fp, r3, r0
 800786a:	9b01      	ldr	r3, [sp, #4]
 800786c:	1c58      	adds	r0, r3, #1
 800786e:	4450      	add	r0, sl
 8007870:	4583      	cmp	fp, r0
 8007872:	bf38      	it	cc
 8007874:	4683      	movcc	fp, r0
 8007876:	0553      	lsls	r3, r2, #21
 8007878:	d53e      	bpl.n	80078f8 <__sfvwrite_r+0x1d4>
 800787a:	4659      	mov	r1, fp
 800787c:	4638      	mov	r0, r7
 800787e:	f000 f955 	bl	8007b2c <_malloc_r>
 8007882:	4605      	mov	r5, r0
 8007884:	b950      	cbnz	r0, 800789c <__sfvwrite_r+0x178>
 8007886:	230c      	movs	r3, #12
 8007888:	603b      	str	r3, [r7, #0]
 800788a:	89a3      	ldrh	r3, [r4, #12]
 800788c:	f043 0340 	orr.w	r3, r3, #64	; 0x40
 8007890:	81a3      	strh	r3, [r4, #12]
 8007892:	e782      	b.n	800779a <__sfvwrite_r+0x76>
 8007894:	e896 0600 	ldmia.w	r6, {r9, sl}
 8007898:	3608      	adds	r6, #8
 800789a:	e7d0      	b.n	800783e <__sfvwrite_r+0x11a>
 800789c:	9a01      	ldr	r2, [sp, #4]
 800789e:	6921      	ldr	r1, [r4, #16]
 80078a0:	f7fc fb7b 	bl	8003f9a <memcpy>
 80078a4:	89a2      	ldrh	r2, [r4, #12]
 80078a6:	f422 6290 	bic.w	r2, r2, #1152	; 0x480
 80078aa:	f042 0280 	orr.w	r2, r2, #128	; 0x80
 80078ae:	81a2      	strh	r2, [r4, #12]
 80078b0:	9b01      	ldr	r3, [sp, #4]
 80078b2:	6125      	str	r5, [r4, #16]
 80078b4:	441d      	add	r5, r3
 80078b6:	6025      	str	r5, [r4, #0]
 80078b8:	4655      	mov	r5, sl
 80078ba:	ebab 0303 	sub.w	r3, fp, r3
 80078be:	f8c4 b014 	str.w	fp, [r4, #20]
 80078c2:	60a3      	str	r3, [r4, #8]
 80078c4:	45aa      	cmp	sl, r5
 80078c6:	d200      	bcs.n	80078ca <__sfvwrite_r+0x1a6>
 80078c8:	4655      	mov	r5, sl
 80078ca:	462a      	mov	r2, r5
 80078cc:	4649      	mov	r1, r9
 80078ce:	6820      	ldr	r0, [r4, #0]
 80078d0:	f000 fb58 	bl	8007f84 <memmove>
 80078d4:	68a3      	ldr	r3, [r4, #8]
 80078d6:	1b5b      	subs	r3, r3, r5
 80078d8:	60a3      	str	r3, [r4, #8]
 80078da:	6823      	ldr	r3, [r4, #0]
 80078dc:	441d      	add	r5, r3
 80078de:	6025      	str	r5, [r4, #0]
 80078e0:	4655      	mov	r5, sl
 80078e2:	f8d8 3008 	ldr.w	r3, [r8, #8]
 80078e6:	44a9      	add	r9, r5
 80078e8:	ebaa 0a05 	sub.w	sl, sl, r5
 80078ec:	1b5d      	subs	r5, r3, r5
 80078ee:	f8c8 5008 	str.w	r5, [r8, #8]
 80078f2:	2d00      	cmp	r5, #0
 80078f4:	d1a3      	bne.n	800783e <__sfvwrite_r+0x11a>
 80078f6:	e71c      	b.n	8007732 <__sfvwrite_r+0xe>
 80078f8:	465a      	mov	r2, fp
 80078fa:	4638      	mov	r0, r7
 80078fc:	f000 fe3a 	bl	8008574 <_realloc_r>
 8007900:	4605      	mov	r5, r0
 8007902:	2800      	cmp	r0, #0
 8007904:	d1d4      	bne.n	80078b0 <__sfvwrite_r+0x18c>
 8007906:	6921      	ldr	r1, [r4, #16]
 8007908:	4638      	mov	r0, r7
 800790a:	f7ff fe4f 	bl	80075ac <_free_r>
 800790e:	89a3      	ldrh	r3, [r4, #12]
 8007910:	f023 0380 	bic.w	r3, r3, #128	; 0x80
 8007914:	81a3      	strh	r3, [r4, #12]
 8007916:	e7b6      	b.n	8007886 <__sfvwrite_r+0x162>
 8007918:	6820      	ldr	r0, [r4, #0]
 800791a:	6923      	ldr	r3, [r4, #16]
 800791c:	4298      	cmp	r0, r3
 800791e:	d802      	bhi.n	8007926 <__sfvwrite_r+0x202>
 8007920:	6962      	ldr	r2, [r4, #20]
 8007922:	4592      	cmp	sl, r2
 8007924:	d215      	bcs.n	8007952 <__sfvwrite_r+0x22e>
 8007926:	4555      	cmp	r5, sl
 8007928:	bf28      	it	cs
 800792a:	4655      	movcs	r5, sl
 800792c:	4649      	mov	r1, r9
 800792e:	462a      	mov	r2, r5
 8007930:	f000 fb28 	bl	8007f84 <memmove>
 8007934:	68a3      	ldr	r3, [r4, #8]
 8007936:	6822      	ldr	r2, [r4, #0]
 8007938:	1b5b      	subs	r3, r3, r5
 800793a:	442a      	add	r2, r5
 800793c:	60a3      	str	r3, [r4, #8]
 800793e:	6022      	str	r2, [r4, #0]
 8007940:	2b00      	cmp	r3, #0
 8007942:	d1ce      	bne.n	80078e2 <__sfvwrite_r+0x1be>
 8007944:	4621      	mov	r1, r4
 8007946:	4638      	mov	r0, r7
 8007948:	f7ff fcc4 	bl	80072d4 <_fflush_r>
 800794c:	2800      	cmp	r0, #0
 800794e:	d0c8      	beq.n	80078e2 <__sfvwrite_r+0x1be>
 8007950:	e79b      	b.n	800788a <__sfvwrite_r+0x166>
 8007952:	f06f 4300 	mvn.w	r3, #2147483648	; 0x80000000
 8007956:	4553      	cmp	r3, sl
 8007958:	bf28      	it	cs
 800795a:	4653      	movcs	r3, sl
 800795c:	fb93 f3f2 	sdiv	r3, r3, r2
 8007960:	6aa5      	ldr	r5, [r4, #40]	; 0x28
 8007962:	4353      	muls	r3, r2
 8007964:	6a21      	ldr	r1, [r4, #32]
 8007966:	464a      	mov	r2, r9
 8007968:	4638      	mov	r0, r7
 800796a:	47a8      	blx	r5
 800796c:	1e05      	subs	r5, r0, #0
 800796e:	dcb8      	bgt.n	80078e2 <__sfvwrite_r+0x1be>
 8007970:	e78b      	b.n	800788a <__sfvwrite_r+0x166>
 8007972:	e896 0c00 	ldmia.w	r6, {sl, fp}
 8007976:	2000      	movs	r0, #0
 8007978:	3608      	adds	r6, #8
 800797a:	e71d      	b.n	80077b8 <__sfvwrite_r+0x94>
 800797c:	f10b 0901 	add.w	r9, fp, #1
 8007980:	e72a      	b.n	80077d8 <__sfvwrite_r+0xb4>
 8007982:	4293      	cmp	r3, r2
 8007984:	db09      	blt.n	800799a <__sfvwrite_r+0x276>
 8007986:	6aa5      	ldr	r5, [r4, #40]	; 0x28
 8007988:	4613      	mov	r3, r2
 800798a:	6a21      	ldr	r1, [r4, #32]
 800798c:	4652      	mov	r2, sl
 800798e:	4638      	mov	r0, r7
 8007990:	47a8      	blx	r5
 8007992:	1e05      	subs	r5, r0, #0
 8007994:	f73f af3c 	bgt.w	8007810 <__sfvwrite_r+0xec>
 8007998:	e777      	b.n	800788a <__sfvwrite_r+0x166>
 800799a:	461a      	mov	r2, r3
 800799c:	4651      	mov	r1, sl
 800799e:	9301      	str	r3, [sp, #4]
 80079a0:	f000 faf0 	bl	8007f84 <memmove>
 80079a4:	9b01      	ldr	r3, [sp, #4]
 80079a6:	68a2      	ldr	r2, [r4, #8]
 80079a8:	461d      	mov	r5, r3
 80079aa:	1ad2      	subs	r2, r2, r3
 80079ac:	60a2      	str	r2, [r4, #8]
 80079ae:	6822      	ldr	r2, [r4, #0]
 80079b0:	441a      	add	r2, r3
 80079b2:	6022      	str	r2, [r4, #0]
 80079b4:	e72c      	b.n	8007810 <__sfvwrite_r+0xec>
 80079b6:	2001      	movs	r0, #1
 80079b8:	e734      	b.n	8007824 <__sfvwrite_r+0x100>
 80079ba:	bf00      	nop
 80079bc:	7ffffc00 	.word	0x7ffffc00

080079c0 <_fwalk_reent>:
 80079c0:	e92d 43f8 	stmdb	sp!, {r3, r4, r5, r6, r7, r8, r9, lr}
 80079c4:	4680      	mov	r8, r0
 80079c6:	4689      	mov	r9, r1
 80079c8:	2600      	movs	r6, #0
 80079ca:	f100 04d8 	add.w	r4, r0, #216	; 0xd8
 80079ce:	b914      	cbnz	r4, 80079d6 <_fwalk_reent+0x16>
 80079d0:	4630      	mov	r0, r6
 80079d2:	e8bd 83f8 	ldmia.w	sp!, {r3, r4, r5, r6, r7, r8, r9, pc}
 80079d6:	68a5      	ldr	r5, [r4, #8]
 80079d8:	6867      	ldr	r7, [r4, #4]
 80079da:	3f01      	subs	r7, #1
 80079dc:	d501      	bpl.n	80079e2 <_fwalk_reent+0x22>
 80079de:	6824      	ldr	r4, [r4, #0]
 80079e0:	e7f5      	b.n	80079ce <_fwalk_reent+0xe>
 80079e2:	89ab      	ldrh	r3, [r5, #12]
 80079e4:	2b01      	cmp	r3, #1
 80079e6:	d907      	bls.n	80079f8 <_fwalk_reent+0x38>
 80079e8:	f9b5 300e 	ldrsh.w	r3, [r5, #14]
 80079ec:	3301      	adds	r3, #1
 80079ee:	d003      	beq.n	80079f8 <_fwalk_reent+0x38>
 80079f0:	4629      	mov	r1, r5
 80079f2:	4640      	mov	r0, r8
 80079f4:	47c8      	blx	r9
 80079f6:	4306      	orrs	r6, r0
 80079f8:	3568      	adds	r5, #104	; 0x68
 80079fa:	e7ee      	b.n	80079da <_fwalk_reent+0x1a>

080079fc <__locale_mb_cur_max>:
 80079fc:	4b04      	ldr	r3, [pc, #16]	; (8007a10 <__locale_mb_cur_max+0x14>)
 80079fe:	4a05      	ldr	r2, [pc, #20]	; (8007a14 <__locale_mb_cur_max+0x18>)
 8007a00:	681b      	ldr	r3, [r3, #0]
 8007a02:	6a1b      	ldr	r3, [r3, #32]
 8007a04:	2b00      	cmp	r3, #0
 8007a06:	bf08      	it	eq
 8007a08:	4613      	moveq	r3, r2
 8007a0a:	f893 0128 	ldrb.w	r0, [r3, #296]	; 0x128
 8007a0e:	4770      	bx	lr
 8007a10:	2000005c 	.word	0x2000005c
 8007a14:	20000150 	.word	0x20000150

08007a18 <__locale_ctype_ptr_l>:
 8007a18:	f8d0 00ec 	ldr.w	r0, [r0, #236]	; 0xec
 8007a1c:	4770      	bx	lr
	...

08007a20 <_localeconv_r>:
 8007a20:	4b04      	ldr	r3, [pc, #16]	; (8007a34 <_localeconv_r+0x14>)
 8007a22:	681b      	ldr	r3, [r3, #0]
 8007a24:	6a18      	ldr	r0, [r3, #32]
 8007a26:	4b04      	ldr	r3, [pc, #16]	; (8007a38 <_localeconv_r+0x18>)
 8007a28:	2800      	cmp	r0, #0
 8007a2a:	bf08      	it	eq
 8007a2c:	4618      	moveq	r0, r3
 8007a2e:	30f0      	adds	r0, #240	; 0xf0
 8007a30:	4770      	bx	lr
 8007a32:	bf00      	nop
 8007a34:	2000005c 	.word	0x2000005c
 8007a38:	20000150 	.word	0x20000150

08007a3c <__retarget_lock_init_recursive>:
 8007a3c:	4770      	bx	lr

08007a3e <__retarget_lock_close_recursive>:
 8007a3e:	4770      	bx	lr

08007a40 <__retarget_lock_acquire_recursive>:
 8007a40:	4770      	bx	lr

08007a42 <__retarget_lock_release_recursive>:
 8007a42:	4770      	bx	lr

08007a44 <__swhatbuf_r>:
 8007a44:	b570      	push	{r4, r5, r6, lr}
 8007a46:	460e      	mov	r6, r1
 8007a48:	f9b1 100e 	ldrsh.w	r1, [r1, #14]
 8007a4c:	b090      	sub	sp, #64	; 0x40
 8007a4e:	2900      	cmp	r1, #0
 8007a50:	4614      	mov	r4, r2
 8007a52:	461d      	mov	r5, r3
 8007a54:	da09      	bge.n	8007a6a <__swhatbuf_r+0x26>
 8007a56:	2200      	movs	r2, #0
 8007a58:	89b3      	ldrh	r3, [r6, #12]
 8007a5a:	602a      	str	r2, [r5, #0]
 8007a5c:	f013 0080 	ands.w	r0, r3, #128	; 0x80
 8007a60:	d116      	bne.n	8007a90 <__swhatbuf_r+0x4c>
 8007a62:	f44f 6380 	mov.w	r3, #1024	; 0x400
 8007a66:	6023      	str	r3, [r4, #0]
 8007a68:	e015      	b.n	8007a96 <__swhatbuf_r+0x52>
 8007a6a:	aa01      	add	r2, sp, #4
 8007a6c:	f001 f93a 	bl	8008ce4 <_fstat_r>
 8007a70:	2800      	cmp	r0, #0
 8007a72:	dbf0      	blt.n	8007a56 <__swhatbuf_r+0x12>
 8007a74:	9a02      	ldr	r2, [sp, #8]
 8007a76:	f44f 6000 	mov.w	r0, #2048	; 0x800
 8007a7a:	f402 4270 	and.w	r2, r2, #61440	; 0xf000
 8007a7e:	f5a2 5300 	sub.w	r3, r2, #8192	; 0x2000
 8007a82:	425a      	negs	r2, r3
 8007a84:	415a      	adcs	r2, r3
 8007a86:	f44f 6380 	mov.w	r3, #1024	; 0x400
 8007a8a:	602a      	str	r2, [r5, #0]
 8007a8c:	6023      	str	r3, [r4, #0]
 8007a8e:	e002      	b.n	8007a96 <__swhatbuf_r+0x52>
 8007a90:	2340      	movs	r3, #64	; 0x40
 8007a92:	4610      	mov	r0, r2
 8007a94:	6023      	str	r3, [r4, #0]
 8007a96:	b010      	add	sp, #64	; 0x40
 8007a98:	bd70      	pop	{r4, r5, r6, pc}
	...

08007a9c <__smakebuf_r>:
 8007a9c:	898b      	ldrh	r3, [r1, #12]
 8007a9e:	b573      	push	{r0, r1, r4, r5, r6, lr}
 8007aa0:	079d      	lsls	r5, r3, #30
 8007aa2:	4606      	mov	r6, r0
 8007aa4:	460c      	mov	r4, r1
 8007aa6:	d507      	bpl.n	8007ab8 <__smakebuf_r+0x1c>
 8007aa8:	f104 0347 	add.w	r3, r4, #71	; 0x47
 8007aac:	6023      	str	r3, [r4, #0]
 8007aae:	6123      	str	r3, [r4, #16]
 8007ab0:	2301      	movs	r3, #1
 8007ab2:	6163      	str	r3, [r4, #20]
 8007ab4:	b002      	add	sp, #8
 8007ab6:	bd70      	pop	{r4, r5, r6, pc}
 8007ab8:	ab01      	add	r3, sp, #4
 8007aba:	466a      	mov	r2, sp
 8007abc:	f7ff ffc2 	bl	8007a44 <__swhatbuf_r>
 8007ac0:	9900      	ldr	r1, [sp, #0]
 8007ac2:	4605      	mov	r5, r0
 8007ac4:	4630      	mov	r0, r6
 8007ac6:	f000 f831 	bl	8007b2c <_malloc_r>
 8007aca:	b948      	cbnz	r0, 8007ae0 <__smakebuf_r+0x44>
 8007acc:	f9b4 300c 	ldrsh.w	r3, [r4, #12]
 8007ad0:	059a      	lsls	r2, r3, #22
 8007ad2:	d4ef      	bmi.n	8007ab4 <__smakebuf_r+0x18>
 8007ad4:	f023 0303 	bic.w	r3, r3, #3
 8007ad8:	f043 0302 	orr.w	r3, r3, #2
 8007adc:	81a3      	strh	r3, [r4, #12]
 8007ade:	e7e3      	b.n	8007aa8 <__smakebuf_r+0xc>
 8007ae0:	4b0d      	ldr	r3, [pc, #52]	; (8007b18 <__smakebuf_r+0x7c>)
 8007ae2:	62b3      	str	r3, [r6, #40]	; 0x28
 8007ae4:	89a3      	ldrh	r3, [r4, #12]
 8007ae6:	6020      	str	r0, [r4, #0]
 8007ae8:	f043 0380 	orr.w	r3, r3, #128	; 0x80
 8007aec:	81a3      	strh	r3, [r4, #12]
 8007aee:	9b00      	ldr	r3, [sp, #0]
 8007af0:	6120      	str	r0, [r4, #16]
 8007af2:	6163      	str	r3, [r4, #20]
 8007af4:	9b01      	ldr	r3, [sp, #4]
 8007af6:	b15b      	cbz	r3, 8007b10 <__smakebuf_r+0x74>
 8007af8:	f9b4 100e 	ldrsh.w	r1, [r4, #14]
 8007afc:	4630      	mov	r0, r6
 8007afe:	f001 f903 	bl	8008d08 <_isatty_r>
 8007b02:	b128      	cbz	r0, 8007b10 <__smakebuf_r+0x74>
 8007b04:	89a3      	ldrh	r3, [r4, #12]
 8007b06:	f023 0303 	bic.w	r3, r3, #3
 8007b0a:	f043 0301 	orr.w	r3, r3, #1
 8007b0e:	81a3      	strh	r3, [r4, #12]
 8007b10:	89a3      	ldrh	r3, [r4, #12]
 8007b12:	431d      	orrs	r5, r3
 8007b14:	81a5      	strh	r5, [r4, #12]
 8007b16:	e7cd      	b.n	8007ab4 <__smakebuf_r+0x18>
 8007b18:	0800734d 	.word	0x0800734d

08007b1c <malloc>:
 8007b1c:	4b02      	ldr	r3, [pc, #8]	; (8007b28 <malloc+0xc>)
 8007b1e:	4601      	mov	r1, r0
 8007b20:	6818      	ldr	r0, [r3, #0]
 8007b22:	f000 b803 	b.w	8007b2c <_malloc_r>
 8007b26:	bf00      	nop
 8007b28:	2000005c 	.word	0x2000005c

08007b2c <_malloc_r>:
 8007b2c:	e92d 4ff7 	stmdb	sp!, {r0, r1, r2, r4, r5, r6, r7, r8, r9, sl, fp, lr}
 8007b30:	f101 040b 	add.w	r4, r1, #11
 8007b34:	2c16      	cmp	r4, #22
 8007b36:	4681      	mov	r9, r0
 8007b38:	d907      	bls.n	8007b4a <_malloc_r+0x1e>
 8007b3a:	f034 0407 	bics.w	r4, r4, #7
 8007b3e:	d505      	bpl.n	8007b4c <_malloc_r+0x20>
 8007b40:	230c      	movs	r3, #12
 8007b42:	f8c9 3000 	str.w	r3, [r9]
 8007b46:	2600      	movs	r6, #0
 8007b48:	e131      	b.n	8007dae <_malloc_r+0x282>
 8007b4a:	2410      	movs	r4, #16
 8007b4c:	428c      	cmp	r4, r1
 8007b4e:	d3f7      	bcc.n	8007b40 <_malloc_r+0x14>
 8007b50:	4648      	mov	r0, r9
 8007b52:	f000 fa31 	bl	8007fb8 <__malloc_lock>
 8007b56:	f5b4 7ffc 	cmp.w	r4, #504	; 0x1f8
 8007b5a:	4d9b      	ldr	r5, [pc, #620]	; (8007dc8 <_malloc_r+0x29c>)
 8007b5c:	d236      	bcs.n	8007bcc <_malloc_r+0xa0>
 8007b5e:	f104 0208 	add.w	r2, r4, #8
 8007b62:	442a      	add	r2, r5
 8007b64:	6856      	ldr	r6, [r2, #4]
 8007b66:	f1a2 0108 	sub.w	r1, r2, #8
 8007b6a:	428e      	cmp	r6, r1
 8007b6c:	ea4f 03d4 	mov.w	r3, r4, lsr #3
 8007b70:	d102      	bne.n	8007b78 <_malloc_r+0x4c>
 8007b72:	68d6      	ldr	r6, [r2, #12]
 8007b74:	42b2      	cmp	r2, r6
 8007b76:	d010      	beq.n	8007b9a <_malloc_r+0x6e>
 8007b78:	6873      	ldr	r3, [r6, #4]
 8007b7a:	68f2      	ldr	r2, [r6, #12]
 8007b7c:	68b1      	ldr	r1, [r6, #8]
 8007b7e:	f023 0303 	bic.w	r3, r3, #3
 8007b82:	60ca      	str	r2, [r1, #12]
 8007b84:	4433      	add	r3, r6
 8007b86:	6091      	str	r1, [r2, #8]
 8007b88:	685a      	ldr	r2, [r3, #4]
 8007b8a:	f042 0201 	orr.w	r2, r2, #1
 8007b8e:	605a      	str	r2, [r3, #4]
 8007b90:	4648      	mov	r0, r9
 8007b92:	f000 fa17 	bl	8007fc4 <__malloc_unlock>
 8007b96:	3608      	adds	r6, #8
 8007b98:	e109      	b.n	8007dae <_malloc_r+0x282>
 8007b9a:	3302      	adds	r3, #2
 8007b9c:	4a8b      	ldr	r2, [pc, #556]	; (8007dcc <_malloc_r+0x2a0>)
 8007b9e:	692e      	ldr	r6, [r5, #16]
 8007ba0:	4611      	mov	r1, r2
 8007ba2:	4296      	cmp	r6, r2
 8007ba4:	d06d      	beq.n	8007c82 <_malloc_r+0x156>
 8007ba6:	6870      	ldr	r0, [r6, #4]
 8007ba8:	f020 0003 	bic.w	r0, r0, #3
 8007bac:	1b07      	subs	r7, r0, r4
 8007bae:	2f0f      	cmp	r7, #15
 8007bb0:	dd47      	ble.n	8007c42 <_malloc_r+0x116>
 8007bb2:	1933      	adds	r3, r6, r4
 8007bb4:	f044 0401 	orr.w	r4, r4, #1
 8007bb8:	6074      	str	r4, [r6, #4]
 8007bba:	616b      	str	r3, [r5, #20]
 8007bbc:	612b      	str	r3, [r5, #16]
 8007bbe:	60da      	str	r2, [r3, #12]
 8007bc0:	609a      	str	r2, [r3, #8]
 8007bc2:	f047 0201 	orr.w	r2, r7, #1
 8007bc6:	605a      	str	r2, [r3, #4]
 8007bc8:	5037      	str	r7, [r6, r0]
 8007bca:	e7e1      	b.n	8007b90 <_malloc_r+0x64>
 8007bcc:	0a63      	lsrs	r3, r4, #9
 8007bce:	d02a      	beq.n	8007c26 <_malloc_r+0xfa>
 8007bd0:	2b04      	cmp	r3, #4
 8007bd2:	d812      	bhi.n	8007bfa <_malloc_r+0xce>
 8007bd4:	09a3      	lsrs	r3, r4, #6
 8007bd6:	3338      	adds	r3, #56	; 0x38
 8007bd8:	1c5a      	adds	r2, r3, #1
 8007bda:	eb05 02c2 	add.w	r2, r5, r2, lsl #3
 8007bde:	6856      	ldr	r6, [r2, #4]
 8007be0:	f1a2 0008 	sub.w	r0, r2, #8
 8007be4:	4286      	cmp	r6, r0
 8007be6:	d006      	beq.n	8007bf6 <_malloc_r+0xca>
 8007be8:	6872      	ldr	r2, [r6, #4]
 8007bea:	f022 0203 	bic.w	r2, r2, #3
 8007bee:	1b11      	subs	r1, r2, r4
 8007bf0:	290f      	cmp	r1, #15
 8007bf2:	dd1c      	ble.n	8007c2e <_malloc_r+0x102>
 8007bf4:	3b01      	subs	r3, #1
 8007bf6:	3301      	adds	r3, #1
 8007bf8:	e7d0      	b.n	8007b9c <_malloc_r+0x70>
 8007bfa:	2b14      	cmp	r3, #20
 8007bfc:	d801      	bhi.n	8007c02 <_malloc_r+0xd6>
 8007bfe:	335b      	adds	r3, #91	; 0x5b
 8007c00:	e7ea      	b.n	8007bd8 <_malloc_r+0xac>
 8007c02:	2b54      	cmp	r3, #84	; 0x54
 8007c04:	d802      	bhi.n	8007c0c <_malloc_r+0xe0>
 8007c06:	0b23      	lsrs	r3, r4, #12
 8007c08:	336e      	adds	r3, #110	; 0x6e
 8007c0a:	e7e5      	b.n	8007bd8 <_malloc_r+0xac>
 8007c0c:	f5b3 7faa 	cmp.w	r3, #340	; 0x154
 8007c10:	d802      	bhi.n	8007c18 <_malloc_r+0xec>
 8007c12:	0be3      	lsrs	r3, r4, #15
 8007c14:	3377      	adds	r3, #119	; 0x77
 8007c16:	e7df      	b.n	8007bd8 <_malloc_r+0xac>
 8007c18:	f240 5254 	movw	r2, #1364	; 0x554
 8007c1c:	4293      	cmp	r3, r2
 8007c1e:	d804      	bhi.n	8007c2a <_malloc_r+0xfe>
 8007c20:	0ca3      	lsrs	r3, r4, #18
 8007c22:	337c      	adds	r3, #124	; 0x7c
 8007c24:	e7d8      	b.n	8007bd8 <_malloc_r+0xac>
 8007c26:	233f      	movs	r3, #63	; 0x3f
 8007c28:	e7d6      	b.n	8007bd8 <_malloc_r+0xac>
 8007c2a:	237e      	movs	r3, #126	; 0x7e
 8007c2c:	e7d4      	b.n	8007bd8 <_malloc_r+0xac>
 8007c2e:	2900      	cmp	r1, #0
 8007c30:	68f1      	ldr	r1, [r6, #12]
 8007c32:	db04      	blt.n	8007c3e <_malloc_r+0x112>
 8007c34:	68b3      	ldr	r3, [r6, #8]
 8007c36:	60d9      	str	r1, [r3, #12]
 8007c38:	608b      	str	r3, [r1, #8]
 8007c3a:	18b3      	adds	r3, r6, r2
 8007c3c:	e7a4      	b.n	8007b88 <_malloc_r+0x5c>
 8007c3e:	460e      	mov	r6, r1
 8007c40:	e7d0      	b.n	8007be4 <_malloc_r+0xb8>
 8007c42:	2f00      	cmp	r7, #0
 8007c44:	616a      	str	r2, [r5, #20]
 8007c46:	612a      	str	r2, [r5, #16]
 8007c48:	db05      	blt.n	8007c56 <_malloc_r+0x12a>
 8007c4a:	4430      	add	r0, r6
 8007c4c:	6843      	ldr	r3, [r0, #4]
 8007c4e:	f043 0301 	orr.w	r3, r3, #1
 8007c52:	6043      	str	r3, [r0, #4]
 8007c54:	e79c      	b.n	8007b90 <_malloc_r+0x64>
 8007c56:	f5b0 7f00 	cmp.w	r0, #512	; 0x200
 8007c5a:	d244      	bcs.n	8007ce6 <_malloc_r+0x1ba>
 8007c5c:	2201      	movs	r2, #1
 8007c5e:	08c0      	lsrs	r0, r0, #3
 8007c60:	1087      	asrs	r7, r0, #2
 8007c62:	fa02 f707 	lsl.w	r7, r2, r7
 8007c66:	686a      	ldr	r2, [r5, #4]
 8007c68:	3001      	adds	r0, #1
 8007c6a:	433a      	orrs	r2, r7
 8007c6c:	606a      	str	r2, [r5, #4]
 8007c6e:	f855 7030 	ldr.w	r7, [r5, r0, lsl #3]
 8007c72:	eb05 02c0 	add.w	r2, r5, r0, lsl #3
 8007c76:	3a08      	subs	r2, #8
 8007c78:	60f2      	str	r2, [r6, #12]
 8007c7a:	60b7      	str	r7, [r6, #8]
 8007c7c:	f845 6030 	str.w	r6, [r5, r0, lsl #3]
 8007c80:	60fe      	str	r6, [r7, #12]
 8007c82:	2001      	movs	r0, #1
 8007c84:	109a      	asrs	r2, r3, #2
 8007c86:	fa00 f202 	lsl.w	r2, r0, r2
 8007c8a:	6868      	ldr	r0, [r5, #4]
 8007c8c:	4282      	cmp	r2, r0
 8007c8e:	f200 809f 	bhi.w	8007dd0 <_malloc_r+0x2a4>
 8007c92:	4202      	tst	r2, r0
 8007c94:	d106      	bne.n	8007ca4 <_malloc_r+0x178>
 8007c96:	f023 0303 	bic.w	r3, r3, #3
 8007c9a:	0052      	lsls	r2, r2, #1
 8007c9c:	4202      	tst	r2, r0
 8007c9e:	f103 0304 	add.w	r3, r3, #4
 8007ca2:	d0fa      	beq.n	8007c9a <_malloc_r+0x16e>
 8007ca4:	eb05 0cc3 	add.w	ip, r5, r3, lsl #3
 8007ca8:	46e0      	mov	r8, ip
 8007caa:	469e      	mov	lr, r3
 8007cac:	f8d8 600c 	ldr.w	r6, [r8, #12]
 8007cb0:	4546      	cmp	r6, r8
 8007cb2:	d153      	bne.n	8007d5c <_malloc_r+0x230>
 8007cb4:	f10e 0e01 	add.w	lr, lr, #1
 8007cb8:	f01e 0f03 	tst.w	lr, #3
 8007cbc:	f108 0808 	add.w	r8, r8, #8
 8007cc0:	d1f4      	bne.n	8007cac <_malloc_r+0x180>
 8007cc2:	0798      	lsls	r0, r3, #30
 8007cc4:	d179      	bne.n	8007dba <_malloc_r+0x28e>
 8007cc6:	686b      	ldr	r3, [r5, #4]
 8007cc8:	ea23 0302 	bic.w	r3, r3, r2
 8007ccc:	606b      	str	r3, [r5, #4]
 8007cce:	6868      	ldr	r0, [r5, #4]
 8007cd0:	0052      	lsls	r2, r2, #1
 8007cd2:	4282      	cmp	r2, r0
 8007cd4:	d87c      	bhi.n	8007dd0 <_malloc_r+0x2a4>
 8007cd6:	2a00      	cmp	r2, #0
 8007cd8:	d07a      	beq.n	8007dd0 <_malloc_r+0x2a4>
 8007cda:	4673      	mov	r3, lr
 8007cdc:	4202      	tst	r2, r0
 8007cde:	d1e1      	bne.n	8007ca4 <_malloc_r+0x178>
 8007ce0:	3304      	adds	r3, #4
 8007ce2:	0052      	lsls	r2, r2, #1
 8007ce4:	e7fa      	b.n	8007cdc <_malloc_r+0x1b0>
 8007ce6:	0a42      	lsrs	r2, r0, #9
 8007ce8:	2a04      	cmp	r2, #4
 8007cea:	d815      	bhi.n	8007d18 <_malloc_r+0x1ec>
 8007cec:	0982      	lsrs	r2, r0, #6
 8007cee:	3238      	adds	r2, #56	; 0x38
 8007cf0:	1c57      	adds	r7, r2, #1
 8007cf2:	f855 7037 	ldr.w	r7, [r5, r7, lsl #3]
 8007cf6:	eb05 0ec2 	add.w	lr, r5, r2, lsl #3
 8007cfa:	45be      	cmp	lr, r7
 8007cfc:	d126      	bne.n	8007d4c <_malloc_r+0x220>
 8007cfe:	2001      	movs	r0, #1
 8007d00:	1092      	asrs	r2, r2, #2
 8007d02:	fa00 f202 	lsl.w	r2, r0, r2
 8007d06:	6868      	ldr	r0, [r5, #4]
 8007d08:	4310      	orrs	r0, r2
 8007d0a:	6068      	str	r0, [r5, #4]
 8007d0c:	f8c6 e00c 	str.w	lr, [r6, #12]
 8007d10:	60b7      	str	r7, [r6, #8]
 8007d12:	f8ce 6008 	str.w	r6, [lr, #8]
 8007d16:	e7b3      	b.n	8007c80 <_malloc_r+0x154>
 8007d18:	2a14      	cmp	r2, #20
 8007d1a:	d801      	bhi.n	8007d20 <_malloc_r+0x1f4>
 8007d1c:	325b      	adds	r2, #91	; 0x5b
 8007d1e:	e7e7      	b.n	8007cf0 <_malloc_r+0x1c4>
 8007d20:	2a54      	cmp	r2, #84	; 0x54
 8007d22:	d802      	bhi.n	8007d2a <_malloc_r+0x1fe>
 8007d24:	0b02      	lsrs	r2, r0, #12
 8007d26:	326e      	adds	r2, #110	; 0x6e
 8007d28:	e7e2      	b.n	8007cf0 <_malloc_r+0x1c4>
 8007d2a:	f5b2 7faa 	cmp.w	r2, #340	; 0x154
 8007d2e:	d802      	bhi.n	8007d36 <_malloc_r+0x20a>
 8007d30:	0bc2      	lsrs	r2, r0, #15
 8007d32:	3277      	adds	r2, #119	; 0x77
 8007d34:	e7dc      	b.n	8007cf0 <_malloc_r+0x1c4>
 8007d36:	f240 5754 	movw	r7, #1364	; 0x554
 8007d3a:	42ba      	cmp	r2, r7
 8007d3c:	bf9a      	itte	ls
 8007d3e:	0c82      	lsrls	r2, r0, #18
 8007d40:	327c      	addls	r2, #124	; 0x7c
 8007d42:	227e      	movhi	r2, #126	; 0x7e
 8007d44:	e7d4      	b.n	8007cf0 <_malloc_r+0x1c4>
 8007d46:	68bf      	ldr	r7, [r7, #8]
 8007d48:	45be      	cmp	lr, r7
 8007d4a:	d004      	beq.n	8007d56 <_malloc_r+0x22a>
 8007d4c:	687a      	ldr	r2, [r7, #4]
 8007d4e:	f022 0203 	bic.w	r2, r2, #3
 8007d52:	4290      	cmp	r0, r2
 8007d54:	d3f7      	bcc.n	8007d46 <_malloc_r+0x21a>
 8007d56:	f8d7 e00c 	ldr.w	lr, [r7, #12]
 8007d5a:	e7d7      	b.n	8007d0c <_malloc_r+0x1e0>
 8007d5c:	6870      	ldr	r0, [r6, #4]
 8007d5e:	68f7      	ldr	r7, [r6, #12]
 8007d60:	f020 0003 	bic.w	r0, r0, #3
 8007d64:	eba0 0a04 	sub.w	sl, r0, r4
 8007d68:	f1ba 0f0f 	cmp.w	sl, #15
 8007d6c:	dd10      	ble.n	8007d90 <_malloc_r+0x264>
 8007d6e:	68b2      	ldr	r2, [r6, #8]
 8007d70:	1933      	adds	r3, r6, r4
 8007d72:	f044 0401 	orr.w	r4, r4, #1
 8007d76:	6074      	str	r4, [r6, #4]
 8007d78:	60d7      	str	r7, [r2, #12]
 8007d7a:	60ba      	str	r2, [r7, #8]
 8007d7c:	f04a 0201 	orr.w	r2, sl, #1
 8007d80:	616b      	str	r3, [r5, #20]
 8007d82:	612b      	str	r3, [r5, #16]
 8007d84:	60d9      	str	r1, [r3, #12]
 8007d86:	6099      	str	r1, [r3, #8]
 8007d88:	605a      	str	r2, [r3, #4]
 8007d8a:	f846 a000 	str.w	sl, [r6, r0]
 8007d8e:	e6ff      	b.n	8007b90 <_malloc_r+0x64>
 8007d90:	f1ba 0f00 	cmp.w	sl, #0
 8007d94:	db0f      	blt.n	8007db6 <_malloc_r+0x28a>
 8007d96:	4430      	add	r0, r6
 8007d98:	6843      	ldr	r3, [r0, #4]
 8007d9a:	f043 0301 	orr.w	r3, r3, #1
 8007d9e:	6043      	str	r3, [r0, #4]
 8007da0:	f856 3f08 	ldr.w	r3, [r6, #8]!
 8007da4:	4648      	mov	r0, r9
 8007da6:	60df      	str	r7, [r3, #12]
 8007da8:	60bb      	str	r3, [r7, #8]
 8007daa:	f000 f90b 	bl	8007fc4 <__malloc_unlock>
 8007dae:	4630      	mov	r0, r6
 8007db0:	b003      	add	sp, #12
 8007db2:	e8bd 8ff0 	ldmia.w	sp!, {r4, r5, r6, r7, r8, r9, sl, fp, pc}
 8007db6:	463e      	mov	r6, r7
 8007db8:	e77a      	b.n	8007cb0 <_malloc_r+0x184>
 8007dba:	f85c 0908 	ldr.w	r0, [ip], #-8
 8007dbe:	3b01      	subs	r3, #1
 8007dc0:	4584      	cmp	ip, r0
 8007dc2:	f43f af7e 	beq.w	8007cc2 <_malloc_r+0x196>
 8007dc6:	e782      	b.n	8007cce <_malloc_r+0x1a2>
 8007dc8:	200002bc 	.word	0x200002bc
 8007dcc:	200002c4 	.word	0x200002c4
 8007dd0:	f8d5 b008 	ldr.w	fp, [r5, #8]
 8007dd4:	f8db 6004 	ldr.w	r6, [fp, #4]
 8007dd8:	f026 0603 	bic.w	r6, r6, #3
 8007ddc:	42b4      	cmp	r4, r6
 8007dde:	d803      	bhi.n	8007de8 <_malloc_r+0x2bc>
 8007de0:	1b33      	subs	r3, r6, r4
 8007de2:	2b0f      	cmp	r3, #15
 8007de4:	f300 8095 	bgt.w	8007f12 <_malloc_r+0x3e6>
 8007de8:	4a4f      	ldr	r2, [pc, #316]	; (8007f28 <_malloc_r+0x3fc>)
 8007dea:	eb0b 0306 	add.w	r3, fp, r6
 8007dee:	6817      	ldr	r7, [r2, #0]
 8007df0:	4a4e      	ldr	r2, [pc, #312]	; (8007f2c <_malloc_r+0x400>)
 8007df2:	3710      	adds	r7, #16
 8007df4:	6811      	ldr	r1, [r2, #0]
 8007df6:	4427      	add	r7, r4
 8007df8:	3101      	adds	r1, #1
 8007dfa:	d005      	beq.n	8007e08 <_malloc_r+0x2dc>
 8007dfc:	494c      	ldr	r1, [pc, #304]	; (8007f30 <_malloc_r+0x404>)
 8007dfe:	3901      	subs	r1, #1
 8007e00:	440f      	add	r7, r1
 8007e02:	3101      	adds	r1, #1
 8007e04:	4249      	negs	r1, r1
 8007e06:	400f      	ands	r7, r1
 8007e08:	4639      	mov	r1, r7
 8007e0a:	4648      	mov	r0, r9
 8007e0c:	9201      	str	r2, [sp, #4]
 8007e0e:	9300      	str	r3, [sp, #0]
 8007e10:	f000 fd32 	bl	8008878 <_sbrk_r>
 8007e14:	f1b0 3fff 	cmp.w	r0, #4294967295
 8007e18:	4680      	mov	r8, r0
 8007e1a:	d055      	beq.n	8007ec8 <_malloc_r+0x39c>
 8007e1c:	9b00      	ldr	r3, [sp, #0]
 8007e1e:	9a01      	ldr	r2, [sp, #4]
 8007e20:	4283      	cmp	r3, r0
 8007e22:	d901      	bls.n	8007e28 <_malloc_r+0x2fc>
 8007e24:	45ab      	cmp	fp, r5
 8007e26:	d14f      	bne.n	8007ec8 <_malloc_r+0x39c>
 8007e28:	4842      	ldr	r0, [pc, #264]	; (8007f34 <_malloc_r+0x408>)
 8007e2a:	4543      	cmp	r3, r8
 8007e2c:	6801      	ldr	r1, [r0, #0]
 8007e2e:	4682      	mov	sl, r0
 8007e30:	eb07 0e01 	add.w	lr, r7, r1
 8007e34:	f8c0 e000 	str.w	lr, [r0]
 8007e38:	493f      	ldr	r1, [pc, #252]	; (8007f38 <_malloc_r+0x40c>)
 8007e3a:	d113      	bne.n	8007e64 <_malloc_r+0x338>
 8007e3c:	420b      	tst	r3, r1
 8007e3e:	d111      	bne.n	8007e64 <_malloc_r+0x338>
 8007e40:	68ab      	ldr	r3, [r5, #8]
 8007e42:	443e      	add	r6, r7
 8007e44:	f046 0601 	orr.w	r6, r6, #1
 8007e48:	605e      	str	r6, [r3, #4]
 8007e4a:	4a3c      	ldr	r2, [pc, #240]	; (8007f3c <_malloc_r+0x410>)
 8007e4c:	f8da 3000 	ldr.w	r3, [sl]
 8007e50:	6811      	ldr	r1, [r2, #0]
 8007e52:	428b      	cmp	r3, r1
 8007e54:	bf88      	it	hi
 8007e56:	6013      	strhi	r3, [r2, #0]
 8007e58:	4a39      	ldr	r2, [pc, #228]	; (8007f40 <_malloc_r+0x414>)
 8007e5a:	6811      	ldr	r1, [r2, #0]
 8007e5c:	428b      	cmp	r3, r1
 8007e5e:	bf88      	it	hi
 8007e60:	6013      	strhi	r3, [r2, #0]
 8007e62:	e031      	b.n	8007ec8 <_malloc_r+0x39c>
 8007e64:	6810      	ldr	r0, [r2, #0]
 8007e66:	3001      	adds	r0, #1
 8007e68:	bf1b      	ittet	ne
 8007e6a:	eba8 0303 	subne.w	r3, r8, r3
 8007e6e:	4473      	addne	r3, lr
 8007e70:	f8c2 8000 	streq.w	r8, [r2]
 8007e74:	f8ca 3000 	strne.w	r3, [sl]
 8007e78:	f018 0007 	ands.w	r0, r8, #7
 8007e7c:	bf1c      	itt	ne
 8007e7e:	f1c0 0008 	rsbne	r0, r0, #8
 8007e82:	4480      	addne	r8, r0
 8007e84:	4b2a      	ldr	r3, [pc, #168]	; (8007f30 <_malloc_r+0x404>)
 8007e86:	4447      	add	r7, r8
 8007e88:	4418      	add	r0, r3
 8007e8a:	400f      	ands	r7, r1
 8007e8c:	1bc7      	subs	r7, r0, r7
 8007e8e:	4639      	mov	r1, r7
 8007e90:	4648      	mov	r0, r9
 8007e92:	f000 fcf1 	bl	8008878 <_sbrk_r>
 8007e96:	1c43      	adds	r3, r0, #1
 8007e98:	bf04      	itt	eq
 8007e9a:	4640      	moveq	r0, r8
 8007e9c:	2700      	moveq	r7, #0
 8007e9e:	f8da 3000 	ldr.w	r3, [sl]
 8007ea2:	eba0 0008 	sub.w	r0, r0, r8
 8007ea6:	443b      	add	r3, r7
 8007ea8:	4407      	add	r7, r0
 8007eaa:	f047 0701 	orr.w	r7, r7, #1
 8007eae:	45ab      	cmp	fp, r5
 8007eb0:	f8c5 8008 	str.w	r8, [r5, #8]
 8007eb4:	f8ca 3000 	str.w	r3, [sl]
 8007eb8:	f8c8 7004 	str.w	r7, [r8, #4]
 8007ebc:	d0c5      	beq.n	8007e4a <_malloc_r+0x31e>
 8007ebe:	2e0f      	cmp	r6, #15
 8007ec0:	d810      	bhi.n	8007ee4 <_malloc_r+0x3b8>
 8007ec2:	2301      	movs	r3, #1
 8007ec4:	f8c8 3004 	str.w	r3, [r8, #4]
 8007ec8:	68ab      	ldr	r3, [r5, #8]
 8007eca:	685a      	ldr	r2, [r3, #4]
 8007ecc:	f022 0203 	bic.w	r2, r2, #3
 8007ed0:	4294      	cmp	r4, r2
 8007ed2:	eba2 0304 	sub.w	r3, r2, r4
 8007ed6:	d801      	bhi.n	8007edc <_malloc_r+0x3b0>
 8007ed8:	2b0f      	cmp	r3, #15
 8007eda:	dc1a      	bgt.n	8007f12 <_malloc_r+0x3e6>
 8007edc:	4648      	mov	r0, r9
 8007ede:	f000 f871 	bl	8007fc4 <__malloc_unlock>
 8007ee2:	e630      	b.n	8007b46 <_malloc_r+0x1a>
 8007ee4:	2205      	movs	r2, #5
 8007ee6:	f8db 3004 	ldr.w	r3, [fp, #4]
 8007eea:	3e0c      	subs	r6, #12
 8007eec:	f026 0607 	bic.w	r6, r6, #7
 8007ef0:	f003 0301 	and.w	r3, r3, #1
 8007ef4:	4333      	orrs	r3, r6
 8007ef6:	f8cb 3004 	str.w	r3, [fp, #4]
 8007efa:	2e0f      	cmp	r6, #15
 8007efc:	eb0b 0306 	add.w	r3, fp, r6
 8007f00:	605a      	str	r2, [r3, #4]
 8007f02:	609a      	str	r2, [r3, #8]
 8007f04:	d9a1      	bls.n	8007e4a <_malloc_r+0x31e>
 8007f06:	f10b 0108 	add.w	r1, fp, #8
 8007f0a:	4648      	mov	r0, r9
 8007f0c:	f7ff fb4e 	bl	80075ac <_free_r>
 8007f10:	e79b      	b.n	8007e4a <_malloc_r+0x31e>
 8007f12:	68ae      	ldr	r6, [r5, #8]
 8007f14:	f044 0201 	orr.w	r2, r4, #1
 8007f18:	f043 0301 	orr.w	r3, r3, #1
 8007f1c:	4434      	add	r4, r6
 8007f1e:	6072      	str	r2, [r6, #4]
 8007f20:	60ac      	str	r4, [r5, #8]
 8007f22:	6063      	str	r3, [r4, #4]
 8007f24:	e634      	b.n	8007b90 <_malloc_r+0x64>
 8007f26:	bf00      	nop
 8007f28:	20001a90 	.word	0x20001a90
 8007f2c:	200006c4 	.word	0x200006c4
 8007f30:	00000080 	.word	0x00000080
 8007f34:	20001a60 	.word	0x20001a60
 8007f38:	0000007f 	.word	0x0000007f
 8007f3c:	20001a88 	.word	0x20001a88
 8007f40:	20001a8c 	.word	0x20001a8c

08007f44 <__ascii_mbtowc>:
 8007f44:	b082      	sub	sp, #8
 8007f46:	b901      	cbnz	r1, 8007f4a <__ascii_mbtowc+0x6>
 8007f48:	a901      	add	r1, sp, #4
 8007f4a:	b142      	cbz	r2, 8007f5e <__ascii_mbtowc+0x1a>
 8007f4c:	b14b      	cbz	r3, 8007f62 <__ascii_mbtowc+0x1e>
 8007f4e:	7813      	ldrb	r3, [r2, #0]
 8007f50:	600b      	str	r3, [r1, #0]
 8007f52:	7812      	ldrb	r2, [r2, #0]
 8007f54:	1c10      	adds	r0, r2, #0
 8007f56:	bf18      	it	ne
 8007f58:	2001      	movne	r0, #1
 8007f5a:	b002      	add	sp, #8
 8007f5c:	4770      	bx	lr
 8007f5e:	4610      	mov	r0, r2
 8007f60:	e7fb      	b.n	8007f5a <__ascii_mbtowc+0x16>
 8007f62:	f06f 0001 	mvn.w	r0, #1
 8007f66:	e7f8      	b.n	8007f5a <__ascii_mbtowc+0x16>

08007f68 <memchr>:
 8007f68:	b510      	push	{r4, lr}
 8007f6a:	b2c9      	uxtb	r1, r1
 8007f6c:	4402      	add	r2, r0
 8007f6e:	4290      	cmp	r0, r2
 8007f70:	4603      	mov	r3, r0
 8007f72:	d101      	bne.n	8007f78 <memchr+0x10>
 8007f74:	2000      	movs	r0, #0
 8007f76:	bd10      	pop	{r4, pc}
 8007f78:	781c      	ldrb	r4, [r3, #0]
 8007f7a:	3001      	adds	r0, #1
 8007f7c:	428c      	cmp	r4, r1
 8007f7e:	d1f6      	bne.n	8007f6e <memchr+0x6>
 8007f80:	4618      	mov	r0, r3
 8007f82:	bd10      	pop	{r4, pc}

08007f84 <memmove>:
 8007f84:	4288      	cmp	r0, r1
 8007f86:	b510      	push	{r4, lr}
 8007f88:	eb01 0302 	add.w	r3, r1, r2
 8007f8c:	d803      	bhi.n	8007f96 <memmove+0x12>
 8007f8e:	1e42      	subs	r2, r0, #1
 8007f90:	4299      	cmp	r1, r3
 8007f92:	d10c      	bne.n	8007fae <memmove+0x2a>
 8007f94:	bd10      	pop	{r4, pc}
 8007f96:	4298      	cmp	r0, r3
 8007f98:	d2f9      	bcs.n	8007f8e <memmove+0xa>
 8007f9a:	1881      	adds	r1, r0, r2
 8007f9c:	1ad2      	subs	r2, r2, r3
 8007f9e:	42d3      	cmn	r3, r2
 8007fa0:	d100      	bne.n	8007fa4 <memmove+0x20>
 8007fa2:	bd10      	pop	{r4, pc}
 8007fa4:	f813 4d01 	ldrb.w	r4, [r3, #-1]!
 8007fa8:	f801 4d01 	strb.w	r4, [r1, #-1]!
 8007fac:	e7f7      	b.n	8007f9e <memmove+0x1a>
 8007fae:	f811 4b01 	ldrb.w	r4, [r1], #1
 8007fb2:	f802 4f01 	strb.w	r4, [r2, #1]!
 8007fb6:	e7eb      	b.n	8007f90 <memmove+0xc>

08007fb8 <__malloc_lock>:
 8007fb8:	4801      	ldr	r0, [pc, #4]	; (8007fc0 <__malloc_lock+0x8>)
 8007fba:	f7ff bd41 	b.w	8007a40 <__retarget_lock_acquire_recursive>
 8007fbe:	bf00      	nop
 8007fc0:	2000232c 	.word	0x2000232c

08007fc4 <__malloc_unlock>:
 8007fc4:	4801      	ldr	r0, [pc, #4]	; (8007fcc <__malloc_unlock+0x8>)
 8007fc6:	f7ff bd3c 	b.w	8007a42 <__retarget_lock_release_recursive>
 8007fca:	bf00      	nop
 8007fcc:	2000232c 	.word	0x2000232c

08007fd0 <_Balloc>:
 8007fd0:	b570      	push	{r4, r5, r6, lr}
 8007fd2:	6a45      	ldr	r5, [r0, #36]	; 0x24
 8007fd4:	4604      	mov	r4, r0
 8007fd6:	460e      	mov	r6, r1
 8007fd8:	b93d      	cbnz	r5, 8007fea <_Balloc+0x1a>
 8007fda:	2010      	movs	r0, #16
 8007fdc:	f7ff fd9e 	bl	8007b1c <malloc>
 8007fe0:	6260      	str	r0, [r4, #36]	; 0x24
 8007fe2:	6045      	str	r5, [r0, #4]
 8007fe4:	6085      	str	r5, [r0, #8]
 8007fe6:	6005      	str	r5, [r0, #0]
 8007fe8:	60c5      	str	r5, [r0, #12]
 8007fea:	6a65      	ldr	r5, [r4, #36]	; 0x24
 8007fec:	68eb      	ldr	r3, [r5, #12]
 8007fee:	b183      	cbz	r3, 8008012 <_Balloc+0x42>
 8007ff0:	6a63      	ldr	r3, [r4, #36]	; 0x24
 8007ff2:	68db      	ldr	r3, [r3, #12]
 8007ff4:	f853 0026 	ldr.w	r0, [r3, r6, lsl #2]
 8007ff8:	b9b8      	cbnz	r0, 800802a <_Balloc+0x5a>
 8007ffa:	2101      	movs	r1, #1
 8007ffc:	fa01 f506 	lsl.w	r5, r1, r6
 8008000:	1d6a      	adds	r2, r5, #5
 8008002:	0092      	lsls	r2, r2, #2
 8008004:	4620      	mov	r0, r4
 8008006:	f000 fd59 	bl	8008abc <_calloc_r>
 800800a:	b160      	cbz	r0, 8008026 <_Balloc+0x56>
 800800c:	6046      	str	r6, [r0, #4]
 800800e:	6085      	str	r5, [r0, #8]
 8008010:	e00e      	b.n	8008030 <_Balloc+0x60>
 8008012:	2221      	movs	r2, #33	; 0x21
 8008014:	2104      	movs	r1, #4
 8008016:	4620      	mov	r0, r4
 8008018:	f000 fd50 	bl	8008abc <_calloc_r>
 800801c:	6a63      	ldr	r3, [r4, #36]	; 0x24
 800801e:	60e8      	str	r0, [r5, #12]
 8008020:	68db      	ldr	r3, [r3, #12]
 8008022:	2b00      	cmp	r3, #0
 8008024:	d1e4      	bne.n	8007ff0 <_Balloc+0x20>
 8008026:	2000      	movs	r0, #0
 8008028:	bd70      	pop	{r4, r5, r6, pc}
 800802a:	6802      	ldr	r2, [r0, #0]
 800802c:	f843 2026 	str.w	r2, [r3, r6, lsl #2]
 8008030:	2300      	movs	r3, #0
 8008032:	6103      	str	r3, [r0, #16]
 8008034:	60c3      	str	r3, [r0, #12]
 8008036:	bd70      	pop	{r4, r5, r6, pc}

08008038 <_Bfree>:
 8008038:	b570      	push	{r4, r5, r6, lr}
 800803a:	6a44      	ldr	r4, [r0, #36]	; 0x24
 800803c:	4606      	mov	r6, r0
 800803e:	460d      	mov	r5, r1
 8008040:	b93c      	cbnz	r4, 8008052 <_Bfree+0x1a>
 8008042:	2010      	movs	r0, #16
 8008044:	f7ff fd6a 	bl	8007b1c <malloc>
 8008048:	6270      	str	r0, [r6, #36]	; 0x24
 800804a:	6044      	str	r4, [r0, #4]
 800804c:	6084      	str	r4, [r0, #8]
 800804e:	6004      	str	r4, [r0, #0]
 8008050:	60c4      	str	r4, [r0, #12]
 8008052:	b13d      	cbz	r5, 8008064 <_Bfree+0x2c>
 8008054:	6a73      	ldr	r3, [r6, #36]	; 0x24
 8008056:	686a      	ldr	r2, [r5, #4]
 8008058:	68db      	ldr	r3, [r3, #12]
 800805a:	f853 1022 	ldr.w	r1, [r3, r2, lsl #2]
 800805e:	6029      	str	r1, [r5, #0]
 8008060:	f843 5022 	str.w	r5, [r3, r2, lsl #2]
 8008064:	bd70      	pop	{r4, r5, r6, pc}

08008066 <__multadd>:
 8008066:	e92d 41f0 	stmdb	sp!, {r4, r5, r6, r7, r8, lr}
 800806a:	461f      	mov	r7, r3
 800806c:	4606      	mov	r6, r0
 800806e:	460c      	mov	r4, r1
 8008070:	2300      	movs	r3, #0
 8008072:	690d      	ldr	r5, [r1, #16]
 8008074:	f101 0e14 	add.w	lr, r1, #20
 8008078:	f8de 0000 	ldr.w	r0, [lr]
 800807c:	3301      	adds	r3, #1
 800807e:	b281      	uxth	r1, r0
 8008080:	fb02 7101 	mla	r1, r2, r1, r7
 8008084:	0c00      	lsrs	r0, r0, #16
 8008086:	0c0f      	lsrs	r7, r1, #16
 8008088:	fb02 7000 	mla	r0, r2, r0, r7
 800808c:	b289      	uxth	r1, r1
 800808e:	eb01 4100 	add.w	r1, r1, r0, lsl #16
 8008092:	429d      	cmp	r5, r3
 8008094:	ea4f 4710 	mov.w	r7, r0, lsr #16
 8008098:	f84e 1b04 	str.w	r1, [lr], #4
 800809c:	dcec      	bgt.n	8008078 <__multadd+0x12>
 800809e:	b1d7      	cbz	r7, 80080d6 <__multadd+0x70>
 80080a0:	68a3      	ldr	r3, [r4, #8]
 80080a2:	429d      	cmp	r5, r3
 80080a4:	db12      	blt.n	80080cc <__multadd+0x66>
 80080a6:	6861      	ldr	r1, [r4, #4]
 80080a8:	4630      	mov	r0, r6
 80080aa:	3101      	adds	r1, #1
 80080ac:	f7ff ff90 	bl	8007fd0 <_Balloc>
 80080b0:	4680      	mov	r8, r0
 80080b2:	6922      	ldr	r2, [r4, #16]
 80080b4:	f104 010c 	add.w	r1, r4, #12
 80080b8:	3202      	adds	r2, #2
 80080ba:	0092      	lsls	r2, r2, #2
 80080bc:	300c      	adds	r0, #12
 80080be:	f7fb ff6c 	bl	8003f9a <memcpy>
 80080c2:	4621      	mov	r1, r4
 80080c4:	4630      	mov	r0, r6
 80080c6:	f7ff ffb7 	bl	8008038 <_Bfree>
 80080ca:	4644      	mov	r4, r8
 80080cc:	eb04 0385 	add.w	r3, r4, r5, lsl #2
 80080d0:	3501      	adds	r5, #1
 80080d2:	615f      	str	r7, [r3, #20]
 80080d4:	6125      	str	r5, [r4, #16]
 80080d6:	4620      	mov	r0, r4
 80080d8:	e8bd 81f0 	ldmia.w	sp!, {r4, r5, r6, r7, r8, pc}

080080dc <__hi0bits>:
 80080dc:	0c02      	lsrs	r2, r0, #16
 80080de:	0412      	lsls	r2, r2, #16
 80080e0:	4603      	mov	r3, r0
 80080e2:	b9b2      	cbnz	r2, 8008112 <__hi0bits+0x36>
 80080e4:	0403      	lsls	r3, r0, #16
 80080e6:	2010      	movs	r0, #16
 80080e8:	f013 4f7f 	tst.w	r3, #4278190080	; 0xff000000
 80080ec:	bf04      	itt	eq
 80080ee:	021b      	lsleq	r3, r3, #8
 80080f0:	3008      	addeq	r0, #8
 80080f2:	f013 4f70 	tst.w	r3, #4026531840	; 0xf0000000
 80080f6:	bf04      	itt	eq
 80080f8:	011b      	lsleq	r3, r3, #4
 80080fa:	3004      	addeq	r0, #4
 80080fc:	f013 4f40 	tst.w	r3, #3221225472	; 0xc0000000
 8008100:	bf04      	itt	eq
 8008102:	009b      	lsleq	r3, r3, #2
 8008104:	3002      	addeq	r0, #2
 8008106:	2b00      	cmp	r3, #0
 8008108:	db06      	blt.n	8008118 <__hi0bits+0x3c>
 800810a:	005b      	lsls	r3, r3, #1
 800810c:	d503      	bpl.n	8008116 <__hi0bits+0x3a>
 800810e:	3001      	adds	r0, #1
 8008110:	4770      	bx	lr
 8008112:	2000      	movs	r0, #0
 8008114:	e7e8      	b.n	80080e8 <__hi0bits+0xc>
 8008116:	2020      	movs	r0, #32
 8008118:	4770      	bx	lr

0800811a <__lo0bits>:
 800811a:	6803      	ldr	r3, [r0, #0]
 800811c:	4601      	mov	r1, r0
 800811e:	f013 0207 	ands.w	r2, r3, #7
 8008122:	d00b      	beq.n	800813c <__lo0bits+0x22>
 8008124:	07da      	lsls	r2, r3, #31
 8008126:	d423      	bmi.n	8008170 <__lo0bits+0x56>
 8008128:	0798      	lsls	r0, r3, #30
 800812a:	bf49      	itett	mi
 800812c:	085b      	lsrmi	r3, r3, #1
 800812e:	089b      	lsrpl	r3, r3, #2
 8008130:	2001      	movmi	r0, #1
 8008132:	600b      	strmi	r3, [r1, #0]
 8008134:	bf5c      	itt	pl
 8008136:	600b      	strpl	r3, [r1, #0]
 8008138:	2002      	movpl	r0, #2
 800813a:	4770      	bx	lr
 800813c:	b298      	uxth	r0, r3
 800813e:	b9a8      	cbnz	r0, 800816c <__lo0bits+0x52>
 8008140:	2010      	movs	r0, #16
 8008142:	0c1b      	lsrs	r3, r3, #16
 8008144:	f013 0fff 	tst.w	r3, #255	; 0xff
 8008148:	bf04      	itt	eq
 800814a:	0a1b      	lsreq	r3, r3, #8
 800814c:	3008      	addeq	r0, #8
 800814e:	071a      	lsls	r2, r3, #28
 8008150:	bf04      	itt	eq
 8008152:	091b      	lsreq	r3, r3, #4
 8008154:	3004      	addeq	r0, #4
 8008156:	079a      	lsls	r2, r3, #30
 8008158:	bf04      	itt	eq
 800815a:	089b      	lsreq	r3, r3, #2
 800815c:	3002      	addeq	r0, #2
 800815e:	07da      	lsls	r2, r3, #31
 8008160:	d402      	bmi.n	8008168 <__lo0bits+0x4e>
 8008162:	085b      	lsrs	r3, r3, #1
 8008164:	d006      	beq.n	8008174 <__lo0bits+0x5a>
 8008166:	3001      	adds	r0, #1
 8008168:	600b      	str	r3, [r1, #0]
 800816a:	4770      	bx	lr
 800816c:	4610      	mov	r0, r2
 800816e:	e7e9      	b.n	8008144 <__lo0bits+0x2a>
 8008170:	2000      	movs	r0, #0
 8008172:	4770      	bx	lr
 8008174:	2020      	movs	r0, #32
 8008176:	4770      	bx	lr

08008178 <__i2b>:
 8008178:	b510      	push	{r4, lr}
 800817a:	460c      	mov	r4, r1
 800817c:	2101      	movs	r1, #1
 800817e:	f7ff ff27 	bl	8007fd0 <_Balloc>
 8008182:	2201      	movs	r2, #1
 8008184:	6144      	str	r4, [r0, #20]
 8008186:	6102      	str	r2, [r0, #16]
 8008188:	bd10      	pop	{r4, pc}

0800818a <__multiply>:
 800818a:	e92d 4ff7 	stmdb	sp!, {r0, r1, r2, r4, r5, r6, r7, r8, r9, sl, fp, lr}
 800818e:	4614      	mov	r4, r2
 8008190:	690a      	ldr	r2, [r1, #16]
 8008192:	6923      	ldr	r3, [r4, #16]
 8008194:	4689      	mov	r9, r1
 8008196:	429a      	cmp	r2, r3
 8008198:	bfbe      	ittt	lt
 800819a:	460b      	movlt	r3, r1
 800819c:	46a1      	movlt	r9, r4
 800819e:	461c      	movlt	r4, r3
 80081a0:	f8d9 7010 	ldr.w	r7, [r9, #16]
 80081a4:	f8d4 a010 	ldr.w	sl, [r4, #16]
 80081a8:	f8d9 3008 	ldr.w	r3, [r9, #8]
 80081ac:	f8d9 1004 	ldr.w	r1, [r9, #4]
 80081b0:	eb07 060a 	add.w	r6, r7, sl
 80081b4:	429e      	cmp	r6, r3
 80081b6:	bfc8      	it	gt
 80081b8:	3101      	addgt	r1, #1
 80081ba:	f7ff ff09 	bl	8007fd0 <_Balloc>
 80081be:	f100 0514 	add.w	r5, r0, #20
 80081c2:	462b      	mov	r3, r5
 80081c4:	2200      	movs	r2, #0
 80081c6:	eb05 0886 	add.w	r8, r5, r6, lsl #2
 80081ca:	4543      	cmp	r3, r8
 80081cc:	d316      	bcc.n	80081fc <__multiply+0x72>
 80081ce:	f104 0214 	add.w	r2, r4, #20
 80081d2:	f109 0114 	add.w	r1, r9, #20
 80081d6:	eb02 038a 	add.w	r3, r2, sl, lsl #2
 80081da:	eb01 0787 	add.w	r7, r1, r7, lsl #2
 80081de:	9301      	str	r3, [sp, #4]
 80081e0:	9c01      	ldr	r4, [sp, #4]
 80081e2:	4613      	mov	r3, r2
 80081e4:	4294      	cmp	r4, r2
 80081e6:	d80c      	bhi.n	8008202 <__multiply+0x78>
 80081e8:	2e00      	cmp	r6, #0
 80081ea:	dd03      	ble.n	80081f4 <__multiply+0x6a>
 80081ec:	f858 3d04 	ldr.w	r3, [r8, #-4]!
 80081f0:	2b00      	cmp	r3, #0
 80081f2:	d054      	beq.n	800829e <__multiply+0x114>
 80081f4:	6106      	str	r6, [r0, #16]
 80081f6:	b003      	add	sp, #12
 80081f8:	e8bd 8ff0 	ldmia.w	sp!, {r4, r5, r6, r7, r8, r9, sl, fp, pc}
 80081fc:	f843 2b04 	str.w	r2, [r3], #4
 8008200:	e7e3      	b.n	80081ca <__multiply+0x40>
 8008202:	f8b3 a000 	ldrh.w	sl, [r3]
 8008206:	3204      	adds	r2, #4
 8008208:	f1ba 0f00 	cmp.w	sl, #0
 800820c:	d020      	beq.n	8008250 <__multiply+0xc6>
 800820e:	46ae      	mov	lr, r5
 8008210:	4689      	mov	r9, r1
 8008212:	f04f 0c00 	mov.w	ip, #0
 8008216:	f859 4b04 	ldr.w	r4, [r9], #4
 800821a:	f8be b000 	ldrh.w	fp, [lr]
 800821e:	b2a3      	uxth	r3, r4
 8008220:	fb0a b303 	mla	r3, sl, r3, fp
 8008224:	ea4f 4b14 	mov.w	fp, r4, lsr #16
 8008228:	f8de 4000 	ldr.w	r4, [lr]
 800822c:	4463      	add	r3, ip
 800822e:	ea4f 4c14 	mov.w	ip, r4, lsr #16
 8008232:	fb0a c40b 	mla	r4, sl, fp, ip
 8008236:	eb04 4413 	add.w	r4, r4, r3, lsr #16
 800823a:	b29b      	uxth	r3, r3
 800823c:	ea43 4304 	orr.w	r3, r3, r4, lsl #16
 8008240:	454f      	cmp	r7, r9
 8008242:	ea4f 4c14 	mov.w	ip, r4, lsr #16
 8008246:	f84e 3b04 	str.w	r3, [lr], #4
 800824a:	d8e4      	bhi.n	8008216 <__multiply+0x8c>
 800824c:	f8ce c000 	str.w	ip, [lr]
 8008250:	f832 9c02 	ldrh.w	r9, [r2, #-2]
 8008254:	f1b9 0f00 	cmp.w	r9, #0
 8008258:	d01f      	beq.n	800829a <__multiply+0x110>
 800825a:	46ae      	mov	lr, r5
 800825c:	468c      	mov	ip, r1
 800825e:	f04f 0a00 	mov.w	sl, #0
 8008262:	682b      	ldr	r3, [r5, #0]
 8008264:	f8bc 4000 	ldrh.w	r4, [ip]
 8008268:	f8be b002 	ldrh.w	fp, [lr, #2]
 800826c:	b29b      	uxth	r3, r3
 800826e:	fb09 b404 	mla	r4, r9, r4, fp
 8008272:	44a2      	add	sl, r4
 8008274:	ea43 430a 	orr.w	r3, r3, sl, lsl #16
 8008278:	f84e 3b04 	str.w	r3, [lr], #4
 800827c:	f85c 3b04 	ldr.w	r3, [ip], #4
 8008280:	f8be 4000 	ldrh.w	r4, [lr]
 8008284:	0c1b      	lsrs	r3, r3, #16
 8008286:	fb09 4303 	mla	r3, r9, r3, r4
 800828a:	4567      	cmp	r7, ip
 800828c:	eb03 431a 	add.w	r3, r3, sl, lsr #16
 8008290:	ea4f 4a13 	mov.w	sl, r3, lsr #16
 8008294:	d8e6      	bhi.n	8008264 <__multiply+0xda>
 8008296:	f8ce 3000 	str.w	r3, [lr]
 800829a:	3504      	adds	r5, #4
 800829c:	e7a0      	b.n	80081e0 <__multiply+0x56>
 800829e:	3e01      	subs	r6, #1
 80082a0:	e7a2      	b.n	80081e8 <__multiply+0x5e>
	...

080082a4 <__pow5mult>:
 80082a4:	e92d 43f8 	stmdb	sp!, {r3, r4, r5, r6, r7, r8, r9, lr}
 80082a8:	4615      	mov	r5, r2
 80082aa:	f012 0203 	ands.w	r2, r2, #3
 80082ae:	4606      	mov	r6, r0
 80082b0:	460f      	mov	r7, r1
 80082b2:	d007      	beq.n	80082c4 <__pow5mult+0x20>
 80082b4:	4c21      	ldr	r4, [pc, #132]	; (800833c <__pow5mult+0x98>)
 80082b6:	3a01      	subs	r2, #1
 80082b8:	2300      	movs	r3, #0
 80082ba:	f854 2022 	ldr.w	r2, [r4, r2, lsl #2]
 80082be:	f7ff fed2 	bl	8008066 <__multadd>
 80082c2:	4607      	mov	r7, r0
 80082c4:	10ad      	asrs	r5, r5, #2
 80082c6:	d035      	beq.n	8008334 <__pow5mult+0x90>
 80082c8:	6a74      	ldr	r4, [r6, #36]	; 0x24
 80082ca:	b93c      	cbnz	r4, 80082dc <__pow5mult+0x38>
 80082cc:	2010      	movs	r0, #16
 80082ce:	f7ff fc25 	bl	8007b1c <malloc>
 80082d2:	6270      	str	r0, [r6, #36]	; 0x24
 80082d4:	6044      	str	r4, [r0, #4]
 80082d6:	6084      	str	r4, [r0, #8]
 80082d8:	6004      	str	r4, [r0, #0]
 80082da:	60c4      	str	r4, [r0, #12]
 80082dc:	f8d6 8024 	ldr.w	r8, [r6, #36]	; 0x24
 80082e0:	f8d8 4008 	ldr.w	r4, [r8, #8]
 80082e4:	b94c      	cbnz	r4, 80082fa <__pow5mult+0x56>
 80082e6:	f240 2171 	movw	r1, #625	; 0x271
 80082ea:	4630      	mov	r0, r6
 80082ec:	f7ff ff44 	bl	8008178 <__i2b>
 80082f0:	2300      	movs	r3, #0
 80082f2:	4604      	mov	r4, r0
 80082f4:	f8c8 0008 	str.w	r0, [r8, #8]
 80082f8:	6003      	str	r3, [r0, #0]
 80082fa:	f04f 0800 	mov.w	r8, #0
 80082fe:	07eb      	lsls	r3, r5, #31
 8008300:	d50a      	bpl.n	8008318 <__pow5mult+0x74>
 8008302:	4639      	mov	r1, r7
 8008304:	4622      	mov	r2, r4
 8008306:	4630      	mov	r0, r6
 8008308:	f7ff ff3f 	bl	800818a <__multiply>
 800830c:	4681      	mov	r9, r0
 800830e:	4639      	mov	r1, r7
 8008310:	4630      	mov	r0, r6
 8008312:	f7ff fe91 	bl	8008038 <_Bfree>
 8008316:	464f      	mov	r7, r9
 8008318:	106d      	asrs	r5, r5, #1
 800831a:	d00b      	beq.n	8008334 <__pow5mult+0x90>
 800831c:	6820      	ldr	r0, [r4, #0]
 800831e:	b938      	cbnz	r0, 8008330 <__pow5mult+0x8c>
 8008320:	4622      	mov	r2, r4
 8008322:	4621      	mov	r1, r4
 8008324:	4630      	mov	r0, r6
 8008326:	f7ff ff30 	bl	800818a <__multiply>
 800832a:	6020      	str	r0, [r4, #0]
 800832c:	f8c0 8000 	str.w	r8, [r0]
 8008330:	4604      	mov	r4, r0
 8008332:	e7e4      	b.n	80082fe <__pow5mult+0x5a>
 8008334:	4638      	mov	r0, r7
 8008336:	e8bd 83f8 	ldmia.w	sp!, {r3, r4, r5, r6, r7, r8, r9, pc}
 800833a:	bf00      	nop
 800833c:	080094d0 	.word	0x080094d0

08008340 <__lshift>:
 8008340:	e92d 47f0 	stmdb	sp!, {r4, r5, r6, r7, r8, r9, sl, lr}
 8008344:	460c      	mov	r4, r1
 8008346:	4607      	mov	r7, r0
 8008348:	4616      	mov	r6, r2
 800834a:	6923      	ldr	r3, [r4, #16]
 800834c:	ea4f 1a62 	mov.w	sl, r2, asr #5
 8008350:	eb0a 0903 	add.w	r9, sl, r3
 8008354:	6849      	ldr	r1, [r1, #4]
 8008356:	68a3      	ldr	r3, [r4, #8]
 8008358:	f109 0501 	add.w	r5, r9, #1
 800835c:	42ab      	cmp	r3, r5
 800835e:	db31      	blt.n	80083c4 <__lshift+0x84>
 8008360:	4638      	mov	r0, r7
 8008362:	f7ff fe35 	bl	8007fd0 <_Balloc>
 8008366:	2200      	movs	r2, #0
 8008368:	4680      	mov	r8, r0
 800836a:	4611      	mov	r1, r2
 800836c:	f100 0314 	add.w	r3, r0, #20
 8008370:	4552      	cmp	r2, sl
 8008372:	db2a      	blt.n	80083ca <__lshift+0x8a>
 8008374:	6920      	ldr	r0, [r4, #16]
 8008376:	ea2a 7aea 	bic.w	sl, sl, sl, asr #31
 800837a:	f104 0114 	add.w	r1, r4, #20
 800837e:	f016 021f 	ands.w	r2, r6, #31
 8008382:	eb03 038a 	add.w	r3, r3, sl, lsl #2
 8008386:	eb01 0e80 	add.w	lr, r1, r0, lsl #2
 800838a:	d022      	beq.n	80083d2 <__lshift+0x92>
 800838c:	2000      	movs	r0, #0
 800838e:	f1c2 0c20 	rsb	ip, r2, #32
 8008392:	680e      	ldr	r6, [r1, #0]
 8008394:	4096      	lsls	r6, r2
 8008396:	4330      	orrs	r0, r6
 8008398:	f843 0b04 	str.w	r0, [r3], #4
 800839c:	f851 0b04 	ldr.w	r0, [r1], #4
 80083a0:	458e      	cmp	lr, r1
 80083a2:	fa20 f00c 	lsr.w	r0, r0, ip
 80083a6:	d8f4      	bhi.n	8008392 <__lshift+0x52>
 80083a8:	6018      	str	r0, [r3, #0]
 80083aa:	b108      	cbz	r0, 80083b0 <__lshift+0x70>
 80083ac:	f109 0502 	add.w	r5, r9, #2
 80083b0:	3d01      	subs	r5, #1
 80083b2:	4638      	mov	r0, r7
 80083b4:	f8c8 5010 	str.w	r5, [r8, #16]
 80083b8:	4621      	mov	r1, r4
 80083ba:	f7ff fe3d 	bl	8008038 <_Bfree>
 80083be:	4640      	mov	r0, r8
 80083c0:	e8bd 87f0 	ldmia.w	sp!, {r4, r5, r6, r7, r8, r9, sl, pc}
 80083c4:	3101      	adds	r1, #1
 80083c6:	005b      	lsls	r3, r3, #1
 80083c8:	e7c8      	b.n	800835c <__lshift+0x1c>
 80083ca:	f843 1022 	str.w	r1, [r3, r2, lsl #2]
 80083ce:	3201      	adds	r2, #1
 80083d0:	e7ce      	b.n	8008370 <__lshift+0x30>
 80083d2:	3b04      	subs	r3, #4
 80083d4:	f851 2b04 	ldr.w	r2, [r1], #4
 80083d8:	458e      	cmp	lr, r1
 80083da:	f843 2f04 	str.w	r2, [r3, #4]!
 80083de:	d8f9      	bhi.n	80083d4 <__lshift+0x94>
 80083e0:	e7e6      	b.n	80083b0 <__lshift+0x70>

080083e2 <__mcmp>:
 80083e2:	6903      	ldr	r3, [r0, #16]
 80083e4:	690a      	ldr	r2, [r1, #16]
 80083e6:	b530      	push	{r4, r5, lr}
 80083e8:	1a9b      	subs	r3, r3, r2
 80083ea:	d10c      	bne.n	8008406 <__mcmp+0x24>
 80083ec:	0092      	lsls	r2, r2, #2
 80083ee:	3014      	adds	r0, #20
 80083f0:	3114      	adds	r1, #20
 80083f2:	1884      	adds	r4, r0, r2
 80083f4:	4411      	add	r1, r2
 80083f6:	f854 5d04 	ldr.w	r5, [r4, #-4]!
 80083fa:	f851 2d04 	ldr.w	r2, [r1, #-4]!
 80083fe:	4295      	cmp	r5, r2
 8008400:	d003      	beq.n	800840a <__mcmp+0x28>
 8008402:	d305      	bcc.n	8008410 <__mcmp+0x2e>
 8008404:	2301      	movs	r3, #1
 8008406:	4618      	mov	r0, r3
 8008408:	bd30      	pop	{r4, r5, pc}
 800840a:	42a0      	cmp	r0, r4
 800840c:	d3f3      	bcc.n	80083f6 <__mcmp+0x14>
 800840e:	e7fa      	b.n	8008406 <__mcmp+0x24>
 8008410:	f04f 33ff 	mov.w	r3, #4294967295
 8008414:	e7f7      	b.n	8008406 <__mcmp+0x24>

08008416 <__mdiff>:
 8008416:	e92d 47f0 	stmdb	sp!, {r4, r5, r6, r7, r8, r9, sl, lr}
 800841a:	460d      	mov	r5, r1
 800841c:	4607      	mov	r7, r0
 800841e:	4611      	mov	r1, r2
 8008420:	4628      	mov	r0, r5
 8008422:	4614      	mov	r4, r2
 8008424:	f7ff ffdd 	bl	80083e2 <__mcmp>
 8008428:	1e06      	subs	r6, r0, #0
 800842a:	d108      	bne.n	800843e <__mdiff+0x28>
 800842c:	4631      	mov	r1, r6
 800842e:	4638      	mov	r0, r7
 8008430:	f7ff fdce 	bl	8007fd0 <_Balloc>
 8008434:	2301      	movs	r3, #1
 8008436:	6146      	str	r6, [r0, #20]
 8008438:	6103      	str	r3, [r0, #16]
 800843a:	e8bd 87f0 	ldmia.w	sp!, {r4, r5, r6, r7, r8, r9, sl, pc}
 800843e:	bfa4      	itt	ge
 8008440:	4623      	movge	r3, r4
 8008442:	462c      	movge	r4, r5
 8008444:	4638      	mov	r0, r7
 8008446:	6861      	ldr	r1, [r4, #4]
 8008448:	bfa6      	itte	ge
 800844a:	461d      	movge	r5, r3
 800844c:	2600      	movge	r6, #0
 800844e:	2601      	movlt	r6, #1
 8008450:	f7ff fdbe 	bl	8007fd0 <_Balloc>
 8008454:	f04f 0c00 	mov.w	ip, #0
 8008458:	60c6      	str	r6, [r0, #12]
 800845a:	692b      	ldr	r3, [r5, #16]
 800845c:	6926      	ldr	r6, [r4, #16]
 800845e:	f104 0214 	add.w	r2, r4, #20
 8008462:	f105 0914 	add.w	r9, r5, #20
 8008466:	eb02 0786 	add.w	r7, r2, r6, lsl #2
 800846a:	eb09 0883 	add.w	r8, r9, r3, lsl #2
 800846e:	f100 0114 	add.w	r1, r0, #20
 8008472:	f852 ab04 	ldr.w	sl, [r2], #4
 8008476:	f859 5b04 	ldr.w	r5, [r9], #4
 800847a:	fa1f f38a 	uxth.w	r3, sl
 800847e:	4463      	add	r3, ip
 8008480:	b2ac      	uxth	r4, r5
 8008482:	1b1b      	subs	r3, r3, r4
 8008484:	0c2c      	lsrs	r4, r5, #16
 8008486:	ebc4 441a 	rsb	r4, r4, sl, lsr #16
 800848a:	eb04 4423 	add.w	r4, r4, r3, asr #16
 800848e:	b29b      	uxth	r3, r3
 8008490:	ea4f 4c24 	mov.w	ip, r4, asr #16
 8008494:	45c8      	cmp	r8, r9
 8008496:	ea43 4404 	orr.w	r4, r3, r4, lsl #16
 800849a:	4696      	mov	lr, r2
 800849c:	f841 4b04 	str.w	r4, [r1], #4
 80084a0:	d8e7      	bhi.n	8008472 <__mdiff+0x5c>
 80084a2:	45be      	cmp	lr, r7
 80084a4:	d305      	bcc.n	80084b2 <__mdiff+0x9c>
 80084a6:	f851 3d04 	ldr.w	r3, [r1, #-4]!
 80084aa:	b18b      	cbz	r3, 80084d0 <__mdiff+0xba>
 80084ac:	6106      	str	r6, [r0, #16]
 80084ae:	e8bd 87f0 	ldmia.w	sp!, {r4, r5, r6, r7, r8, r9, sl, pc}
 80084b2:	f85e 4b04 	ldr.w	r4, [lr], #4
 80084b6:	b2a2      	uxth	r2, r4
 80084b8:	4462      	add	r2, ip
 80084ba:	1413      	asrs	r3, r2, #16
 80084bc:	eb03 4314 	add.w	r3, r3, r4, lsr #16
 80084c0:	b292      	uxth	r2, r2
 80084c2:	ea42 4203 	orr.w	r2, r2, r3, lsl #16
 80084c6:	ea4f 4c23 	mov.w	ip, r3, asr #16
 80084ca:	f841 2b04 	str.w	r2, [r1], #4
 80084ce:	e7e8      	b.n	80084a2 <__mdiff+0x8c>
 80084d0:	3e01      	subs	r6, #1
 80084d2:	e7e8      	b.n	80084a6 <__mdiff+0x90>

080084d4 <__d2b>:
 80084d4:	e92d 41f3 	stmdb	sp!, {r0, r1, r4, r5, r6, r7, r8, lr}
 80084d8:	461c      	mov	r4, r3
 80084da:	2101      	movs	r1, #1
 80084dc:	4690      	mov	r8, r2
 80084de:	9e08      	ldr	r6, [sp, #32]
 80084e0:	9d09      	ldr	r5, [sp, #36]	; 0x24
 80084e2:	f7ff fd75 	bl	8007fd0 <_Balloc>
 80084e6:	f3c4 0213 	ubfx	r2, r4, #0, #20
 80084ea:	f3c4 540a 	ubfx	r4, r4, #20, #11
 80084ee:	4607      	mov	r7, r0
 80084f0:	bb34      	cbnz	r4, 8008540 <__d2b+0x6c>
 80084f2:	9201      	str	r2, [sp, #4]
 80084f4:	f1b8 0f00 	cmp.w	r8, #0
 80084f8:	d027      	beq.n	800854a <__d2b+0x76>
 80084fa:	a802      	add	r0, sp, #8
 80084fc:	f840 8d08 	str.w	r8, [r0, #-8]!
 8008500:	f7ff fe0b 	bl	800811a <__lo0bits>
 8008504:	9900      	ldr	r1, [sp, #0]
 8008506:	b1f0      	cbz	r0, 8008546 <__d2b+0x72>
 8008508:	9a01      	ldr	r2, [sp, #4]
 800850a:	f1c0 0320 	rsb	r3, r0, #32
 800850e:	fa02 f303 	lsl.w	r3, r2, r3
 8008512:	430b      	orrs	r3, r1
 8008514:	40c2      	lsrs	r2, r0
 8008516:	617b      	str	r3, [r7, #20]
 8008518:	9201      	str	r2, [sp, #4]
 800851a:	9b01      	ldr	r3, [sp, #4]
 800851c:	2b00      	cmp	r3, #0
 800851e:	bf14      	ite	ne
 8008520:	2102      	movne	r1, #2
 8008522:	2101      	moveq	r1, #1
 8008524:	61bb      	str	r3, [r7, #24]
 8008526:	6139      	str	r1, [r7, #16]
 8008528:	b1c4      	cbz	r4, 800855c <__d2b+0x88>
 800852a:	f2a4 4433 	subw	r4, r4, #1075	; 0x433
 800852e:	4404      	add	r4, r0
 8008530:	6034      	str	r4, [r6, #0]
 8008532:	f1c0 0035 	rsb	r0, r0, #53	; 0x35
 8008536:	6028      	str	r0, [r5, #0]
 8008538:	4638      	mov	r0, r7
 800853a:	b002      	add	sp, #8
 800853c:	e8bd 81f0 	ldmia.w	sp!, {r4, r5, r6, r7, r8, pc}
 8008540:	f442 1280 	orr.w	r2, r2, #1048576	; 0x100000
 8008544:	e7d5      	b.n	80084f2 <__d2b+0x1e>
 8008546:	6179      	str	r1, [r7, #20]
 8008548:	e7e7      	b.n	800851a <__d2b+0x46>
 800854a:	a801      	add	r0, sp, #4
 800854c:	f7ff fde5 	bl	800811a <__lo0bits>
 8008550:	2101      	movs	r1, #1
 8008552:	9b01      	ldr	r3, [sp, #4]
 8008554:	6139      	str	r1, [r7, #16]
 8008556:	617b      	str	r3, [r7, #20]
 8008558:	3020      	adds	r0, #32
 800855a:	e7e5      	b.n	8008528 <__d2b+0x54>
 800855c:	f2a0 4032 	subw	r0, r0, #1074	; 0x432
 8008560:	eb07 0381 	add.w	r3, r7, r1, lsl #2
 8008564:	6030      	str	r0, [r6, #0]
 8008566:	6918      	ldr	r0, [r3, #16]
 8008568:	f7ff fdb8 	bl	80080dc <__hi0bits>
 800856c:	ebc0 1041 	rsb	r0, r0, r1, lsl #5
 8008570:	e7e1      	b.n	8008536 <__d2b+0x62>
	...

08008574 <_realloc_r>:
 8008574:	e92d 4ff7 	stmdb	sp!, {r0, r1, r2, r4, r5, r6, r7, r8, r9, sl, fp, lr}
 8008578:	4682      	mov	sl, r0
 800857a:	460c      	mov	r4, r1
 800857c:	b929      	cbnz	r1, 800858a <_realloc_r+0x16>
 800857e:	4611      	mov	r1, r2
 8008580:	b003      	add	sp, #12
 8008582:	e8bd 4ff0 	ldmia.w	sp!, {r4, r5, r6, r7, r8, r9, sl, fp, lr}
 8008586:	f7ff bad1 	b.w	8007b2c <_malloc_r>
 800858a:	9201      	str	r2, [sp, #4]
 800858c:	f7ff fd14 	bl	8007fb8 <__malloc_lock>
 8008590:	9a01      	ldr	r2, [sp, #4]
 8008592:	f854 5c04 	ldr.w	r5, [r4, #-4]
 8008596:	f102 080b 	add.w	r8, r2, #11
 800859a:	f1b8 0f16 	cmp.w	r8, #22
 800859e:	f1a4 0908 	sub.w	r9, r4, #8
 80085a2:	f025 0603 	bic.w	r6, r5, #3
 80085a6:	d90a      	bls.n	80085be <_realloc_r+0x4a>
 80085a8:	f038 0807 	bics.w	r8, r8, #7
 80085ac:	d509      	bpl.n	80085c2 <_realloc_r+0x4e>
 80085ae:	230c      	movs	r3, #12
 80085b0:	2700      	movs	r7, #0
 80085b2:	f8ca 3000 	str.w	r3, [sl]
 80085b6:	4638      	mov	r0, r7
 80085b8:	b003      	add	sp, #12
 80085ba:	e8bd 8ff0 	ldmia.w	sp!, {r4, r5, r6, r7, r8, r9, sl, fp, pc}
 80085be:	f04f 0810 	mov.w	r8, #16
 80085c2:	4590      	cmp	r8, r2
 80085c4:	d3f3      	bcc.n	80085ae <_realloc_r+0x3a>
 80085c6:	45b0      	cmp	r8, r6
 80085c8:	f340 8148 	ble.w	800885c <_realloc_r+0x2e8>
 80085cc:	4ba9      	ldr	r3, [pc, #676]	; (8008874 <_realloc_r+0x300>)
 80085ce:	eb09 0106 	add.w	r1, r9, r6
 80085d2:	f8d3 e008 	ldr.w	lr, [r3, #8]
 80085d6:	469b      	mov	fp, r3
 80085d8:	4571      	cmp	r1, lr
 80085da:	684b      	ldr	r3, [r1, #4]
 80085dc:	d005      	beq.n	80085ea <_realloc_r+0x76>
 80085de:	f023 0001 	bic.w	r0, r3, #1
 80085e2:	4408      	add	r0, r1
 80085e4:	6840      	ldr	r0, [r0, #4]
 80085e6:	07c7      	lsls	r7, r0, #31
 80085e8:	d447      	bmi.n	800867a <_realloc_r+0x106>
 80085ea:	f023 0303 	bic.w	r3, r3, #3
 80085ee:	4571      	cmp	r1, lr
 80085f0:	eb06 0703 	add.w	r7, r6, r3
 80085f4:	d119      	bne.n	800862a <_realloc_r+0xb6>
 80085f6:	f108 0010 	add.w	r0, r8, #16
 80085fa:	4287      	cmp	r7, r0
 80085fc:	db3f      	blt.n	800867e <_realloc_r+0x10a>
 80085fe:	eba7 0708 	sub.w	r7, r7, r8
 8008602:	eb09 0308 	add.w	r3, r9, r8
 8008606:	f047 0701 	orr.w	r7, r7, #1
 800860a:	f8cb 3008 	str.w	r3, [fp, #8]
 800860e:	605f      	str	r7, [r3, #4]
 8008610:	f854 3c04 	ldr.w	r3, [r4, #-4]
 8008614:	4650      	mov	r0, sl
 8008616:	f003 0301 	and.w	r3, r3, #1
 800861a:	ea43 0308 	orr.w	r3, r3, r8
 800861e:	f844 3c04 	str.w	r3, [r4, #-4]
 8008622:	f7ff fccf 	bl	8007fc4 <__malloc_unlock>
 8008626:	4627      	mov	r7, r4
 8008628:	e7c5      	b.n	80085b6 <_realloc_r+0x42>
 800862a:	45b8      	cmp	r8, r7
 800862c:	dc27      	bgt.n	800867e <_realloc_r+0x10a>
 800862e:	68cb      	ldr	r3, [r1, #12]
 8008630:	688a      	ldr	r2, [r1, #8]
 8008632:	60d3      	str	r3, [r2, #12]
 8008634:	609a      	str	r2, [r3, #8]
 8008636:	eba7 0008 	sub.w	r0, r7, r8
 800863a:	280f      	cmp	r0, #15
 800863c:	f8d9 3004 	ldr.w	r3, [r9, #4]
 8008640:	eb09 0207 	add.w	r2, r9, r7
 8008644:	f240 810c 	bls.w	8008860 <_realloc_r+0x2ec>
 8008648:	f003 0301 	and.w	r3, r3, #1
 800864c:	eb09 0108 	add.w	r1, r9, r8
 8008650:	ea43 0308 	orr.w	r3, r3, r8
 8008654:	f040 0001 	orr.w	r0, r0, #1
 8008658:	f8c9 3004 	str.w	r3, [r9, #4]
 800865c:	6048      	str	r0, [r1, #4]
 800865e:	6853      	ldr	r3, [r2, #4]
 8008660:	3108      	adds	r1, #8
 8008662:	f043 0301 	orr.w	r3, r3, #1
 8008666:	6053      	str	r3, [r2, #4]
 8008668:	4650      	mov	r0, sl
 800866a:	f7fe ff9f 	bl	80075ac <_free_r>
 800866e:	4650      	mov	r0, sl
 8008670:	f7ff fca8 	bl	8007fc4 <__malloc_unlock>
 8008674:	f109 0708 	add.w	r7, r9, #8
 8008678:	e79d      	b.n	80085b6 <_realloc_r+0x42>
 800867a:	2300      	movs	r3, #0
 800867c:	4619      	mov	r1, r3
 800867e:	07e8      	lsls	r0, r5, #31
 8008680:	f100 8085 	bmi.w	800878e <_realloc_r+0x21a>
 8008684:	f854 5c08 	ldr.w	r5, [r4, #-8]
 8008688:	eba9 0505 	sub.w	r5, r9, r5
 800868c:	6868      	ldr	r0, [r5, #4]
 800868e:	f020 0003 	bic.w	r0, r0, #3
 8008692:	4430      	add	r0, r6
 8008694:	2900      	cmp	r1, #0
 8008696:	d077      	beq.n	8008788 <_realloc_r+0x214>
 8008698:	4571      	cmp	r1, lr
 800869a:	d151      	bne.n	8008740 <_realloc_r+0x1cc>
 800869c:	4403      	add	r3, r0
 800869e:	f108 0110 	add.w	r1, r8, #16
 80086a2:	428b      	cmp	r3, r1
 80086a4:	db70      	blt.n	8008788 <_realloc_r+0x214>
 80086a6:	462f      	mov	r7, r5
 80086a8:	68ea      	ldr	r2, [r5, #12]
 80086aa:	f857 1f08 	ldr.w	r1, [r7, #8]!
 80086ae:	60ca      	str	r2, [r1, #12]
 80086b0:	6091      	str	r1, [r2, #8]
 80086b2:	1f32      	subs	r2, r6, #4
 80086b4:	2a24      	cmp	r2, #36	; 0x24
 80086b6:	d83c      	bhi.n	8008732 <_realloc_r+0x1be>
 80086b8:	2a13      	cmp	r2, #19
 80086ba:	d937      	bls.n	800872c <_realloc_r+0x1b8>
 80086bc:	6821      	ldr	r1, [r4, #0]
 80086be:	2a1b      	cmp	r2, #27
 80086c0:	60a9      	str	r1, [r5, #8]
 80086c2:	6861      	ldr	r1, [r4, #4]
 80086c4:	60e9      	str	r1, [r5, #12]
 80086c6:	d81c      	bhi.n	8008702 <_realloc_r+0x18e>
 80086c8:	f105 0210 	add.w	r2, r5, #16
 80086cc:	f104 0108 	add.w	r1, r4, #8
 80086d0:	6808      	ldr	r0, [r1, #0]
 80086d2:	6010      	str	r0, [r2, #0]
 80086d4:	6848      	ldr	r0, [r1, #4]
 80086d6:	6050      	str	r0, [r2, #4]
 80086d8:	6889      	ldr	r1, [r1, #8]
 80086da:	6091      	str	r1, [r2, #8]
 80086dc:	eba3 0308 	sub.w	r3, r3, r8
 80086e0:	eb05 0208 	add.w	r2, r5, r8
 80086e4:	f043 0301 	orr.w	r3, r3, #1
 80086e8:	f8cb 2008 	str.w	r2, [fp, #8]
 80086ec:	6053      	str	r3, [r2, #4]
 80086ee:	686b      	ldr	r3, [r5, #4]
 80086f0:	f003 0301 	and.w	r3, r3, #1
 80086f4:	ea43 0308 	orr.w	r3, r3, r8
 80086f8:	606b      	str	r3, [r5, #4]
 80086fa:	4650      	mov	r0, sl
 80086fc:	f7ff fc62 	bl	8007fc4 <__malloc_unlock>
 8008700:	e759      	b.n	80085b6 <_realloc_r+0x42>
 8008702:	68a1      	ldr	r1, [r4, #8]
 8008704:	2a24      	cmp	r2, #36	; 0x24
 8008706:	6129      	str	r1, [r5, #16]
 8008708:	68e1      	ldr	r1, [r4, #12]
 800870a:	bf18      	it	ne
 800870c:	f105 0218 	addne.w	r2, r5, #24
 8008710:	6169      	str	r1, [r5, #20]
 8008712:	bf09      	itett	eq
 8008714:	6922      	ldreq	r2, [r4, #16]
 8008716:	f104 0110 	addne.w	r1, r4, #16
 800871a:	61aa      	streq	r2, [r5, #24]
 800871c:	6960      	ldreq	r0, [r4, #20]
 800871e:	bf02      	ittt	eq
 8008720:	f105 0220 	addeq.w	r2, r5, #32
 8008724:	f104 0118 	addeq.w	r1, r4, #24
 8008728:	61e8      	streq	r0, [r5, #28]
 800872a:	e7d1      	b.n	80086d0 <_realloc_r+0x15c>
 800872c:	463a      	mov	r2, r7
 800872e:	4621      	mov	r1, r4
 8008730:	e7ce      	b.n	80086d0 <_realloc_r+0x15c>
 8008732:	4621      	mov	r1, r4
 8008734:	4638      	mov	r0, r7
 8008736:	9301      	str	r3, [sp, #4]
 8008738:	f7ff fc24 	bl	8007f84 <memmove>
 800873c:	9b01      	ldr	r3, [sp, #4]
 800873e:	e7cd      	b.n	80086dc <_realloc_r+0x168>
 8008740:	18c7      	adds	r7, r0, r3
 8008742:	45b8      	cmp	r8, r7
 8008744:	dc20      	bgt.n	8008788 <_realloc_r+0x214>
 8008746:	68cb      	ldr	r3, [r1, #12]
 8008748:	688a      	ldr	r2, [r1, #8]
 800874a:	60d3      	str	r3, [r2, #12]
 800874c:	609a      	str	r2, [r3, #8]
 800874e:	4628      	mov	r0, r5
 8008750:	68eb      	ldr	r3, [r5, #12]
 8008752:	f850 2f08 	ldr.w	r2, [r0, #8]!
 8008756:	60d3      	str	r3, [r2, #12]
 8008758:	609a      	str	r2, [r3, #8]
 800875a:	1f32      	subs	r2, r6, #4
 800875c:	2a24      	cmp	r2, #36	; 0x24
 800875e:	d843      	bhi.n	80087e8 <_realloc_r+0x274>
 8008760:	2a13      	cmp	r2, #19
 8008762:	d93f      	bls.n	80087e4 <_realloc_r+0x270>
 8008764:	6823      	ldr	r3, [r4, #0]
 8008766:	2a1b      	cmp	r2, #27
 8008768:	60ab      	str	r3, [r5, #8]
 800876a:	6863      	ldr	r3, [r4, #4]
 800876c:	60eb      	str	r3, [r5, #12]
 800876e:	d824      	bhi.n	80087ba <_realloc_r+0x246>
 8008770:	f105 0010 	add.w	r0, r5, #16
 8008774:	f104 0308 	add.w	r3, r4, #8
 8008778:	681a      	ldr	r2, [r3, #0]
 800877a:	6002      	str	r2, [r0, #0]
 800877c:	685a      	ldr	r2, [r3, #4]
 800877e:	6042      	str	r2, [r0, #4]
 8008780:	689b      	ldr	r3, [r3, #8]
 8008782:	6083      	str	r3, [r0, #8]
 8008784:	46a9      	mov	r9, r5
 8008786:	e756      	b.n	8008636 <_realloc_r+0xc2>
 8008788:	4580      	cmp	r8, r0
 800878a:	4607      	mov	r7, r0
 800878c:	dddf      	ble.n	800874e <_realloc_r+0x1da>
 800878e:	4611      	mov	r1, r2
 8008790:	4650      	mov	r0, sl
 8008792:	f7ff f9cb 	bl	8007b2c <_malloc_r>
 8008796:	4607      	mov	r7, r0
 8008798:	2800      	cmp	r0, #0
 800879a:	d0ae      	beq.n	80086fa <_realloc_r+0x186>
 800879c:	f854 3c04 	ldr.w	r3, [r4, #-4]
 80087a0:	f1a0 0208 	sub.w	r2, r0, #8
 80087a4:	f023 0301 	bic.w	r3, r3, #1
 80087a8:	444b      	add	r3, r9
 80087aa:	429a      	cmp	r2, r3
 80087ac:	d120      	bne.n	80087f0 <_realloc_r+0x27c>
 80087ae:	f850 7c04 	ldr.w	r7, [r0, #-4]
 80087b2:	f027 0703 	bic.w	r7, r7, #3
 80087b6:	4437      	add	r7, r6
 80087b8:	e73d      	b.n	8008636 <_realloc_r+0xc2>
 80087ba:	68a3      	ldr	r3, [r4, #8]
 80087bc:	2a24      	cmp	r2, #36	; 0x24
 80087be:	612b      	str	r3, [r5, #16]
 80087c0:	68e3      	ldr	r3, [r4, #12]
 80087c2:	bf18      	it	ne
 80087c4:	f105 0018 	addne.w	r0, r5, #24
 80087c8:	616b      	str	r3, [r5, #20]
 80087ca:	bf09      	itett	eq
 80087cc:	6923      	ldreq	r3, [r4, #16]
 80087ce:	f104 0310 	addne.w	r3, r4, #16
 80087d2:	61ab      	streq	r3, [r5, #24]
 80087d4:	6962      	ldreq	r2, [r4, #20]
 80087d6:	bf02      	ittt	eq
 80087d8:	f105 0020 	addeq.w	r0, r5, #32
 80087dc:	f104 0318 	addeq.w	r3, r4, #24
 80087e0:	61ea      	streq	r2, [r5, #28]
 80087e2:	e7c9      	b.n	8008778 <_realloc_r+0x204>
 80087e4:	4623      	mov	r3, r4
 80087e6:	e7c7      	b.n	8008778 <_realloc_r+0x204>
 80087e8:	4621      	mov	r1, r4
 80087ea:	f7ff fbcb 	bl	8007f84 <memmove>
 80087ee:	e7c9      	b.n	8008784 <_realloc_r+0x210>
 80087f0:	1f32      	subs	r2, r6, #4
 80087f2:	2a24      	cmp	r2, #36	; 0x24
 80087f4:	d82e      	bhi.n	8008854 <_realloc_r+0x2e0>
 80087f6:	2a13      	cmp	r2, #19
 80087f8:	d929      	bls.n	800884e <_realloc_r+0x2da>
 80087fa:	6823      	ldr	r3, [r4, #0]
 80087fc:	2a1b      	cmp	r2, #27
 80087fe:	6003      	str	r3, [r0, #0]
 8008800:	6863      	ldr	r3, [r4, #4]
 8008802:	6043      	str	r3, [r0, #4]
 8008804:	d80e      	bhi.n	8008824 <_realloc_r+0x2b0>
 8008806:	f100 0308 	add.w	r3, r0, #8
 800880a:	f104 0208 	add.w	r2, r4, #8
 800880e:	6811      	ldr	r1, [r2, #0]
 8008810:	6019      	str	r1, [r3, #0]
 8008812:	6851      	ldr	r1, [r2, #4]
 8008814:	6059      	str	r1, [r3, #4]
 8008816:	6892      	ldr	r2, [r2, #8]
 8008818:	609a      	str	r2, [r3, #8]
 800881a:	4621      	mov	r1, r4
 800881c:	4650      	mov	r0, sl
 800881e:	f7fe fec5 	bl	80075ac <_free_r>
 8008822:	e76a      	b.n	80086fa <_realloc_r+0x186>
 8008824:	68a3      	ldr	r3, [r4, #8]
 8008826:	2a24      	cmp	r2, #36	; 0x24
 8008828:	6083      	str	r3, [r0, #8]
 800882a:	68e3      	ldr	r3, [r4, #12]
 800882c:	bf18      	it	ne
 800882e:	f104 0210 	addne.w	r2, r4, #16
 8008832:	60c3      	str	r3, [r0, #12]
 8008834:	bf09      	itett	eq
 8008836:	6923      	ldreq	r3, [r4, #16]
 8008838:	f100 0310 	addne.w	r3, r0, #16
 800883c:	6103      	streq	r3, [r0, #16]
 800883e:	6961      	ldreq	r1, [r4, #20]
 8008840:	bf02      	ittt	eq
 8008842:	f100 0318 	addeq.w	r3, r0, #24
 8008846:	f104 0218 	addeq.w	r2, r4, #24
 800884a:	6141      	streq	r1, [r0, #20]
 800884c:	e7df      	b.n	800880e <_realloc_r+0x29a>
 800884e:	4603      	mov	r3, r0
 8008850:	4622      	mov	r2, r4
 8008852:	e7dc      	b.n	800880e <_realloc_r+0x29a>
 8008854:	4621      	mov	r1, r4
 8008856:	f7ff fb95 	bl	8007f84 <memmove>
 800885a:	e7de      	b.n	800881a <_realloc_r+0x2a6>
 800885c:	4637      	mov	r7, r6
 800885e:	e6ea      	b.n	8008636 <_realloc_r+0xc2>
 8008860:	f003 0301 	and.w	r3, r3, #1
 8008864:	431f      	orrs	r7, r3
 8008866:	f8c9 7004 	str.w	r7, [r9, #4]
 800886a:	6853      	ldr	r3, [r2, #4]
 800886c:	f043 0301 	orr.w	r3, r3, #1
 8008870:	6053      	str	r3, [r2, #4]
 8008872:	e6fc      	b.n	800866e <_realloc_r+0xfa>
 8008874:	200002bc 	.word	0x200002bc

08008878 <_sbrk_r>:
 8008878:	b538      	push	{r3, r4, r5, lr}
 800887a:	2300      	movs	r3, #0
 800887c:	4c05      	ldr	r4, [pc, #20]	; (8008894 <_sbrk_r+0x1c>)
 800887e:	4605      	mov	r5, r0
 8008880:	4608      	mov	r0, r1
 8008882:	6023      	str	r3, [r4, #0]
 8008884:	f7fb faa0 	bl	8003dc8 <_sbrk>
 8008888:	1c43      	adds	r3, r0, #1
 800888a:	d102      	bne.n	8008892 <_sbrk_r+0x1a>
 800888c:	6823      	ldr	r3, [r4, #0]
 800888e:	b103      	cbz	r3, 8008892 <_sbrk_r+0x1a>
 8008890:	602b      	str	r3, [r5, #0]
 8008892:	bd38      	pop	{r3, r4, r5, pc}
 8008894:	20002324 	.word	0x20002324

08008898 <__sread>:
 8008898:	b510      	push	{r4, lr}
 800889a:	460c      	mov	r4, r1
 800889c:	f9b1 100e 	ldrsh.w	r1, [r1, #14]
 80088a0:	f000 fa54 	bl	8008d4c <_read_r>
 80088a4:	2800      	cmp	r0, #0
 80088a6:	bfab      	itete	ge
 80088a8:	6d63      	ldrge	r3, [r4, #84]	; 0x54
 80088aa:	89a3      	ldrhlt	r3, [r4, #12]
 80088ac:	181b      	addge	r3, r3, r0
 80088ae:	f423 5380 	biclt.w	r3, r3, #4096	; 0x1000
 80088b2:	bfac      	ite	ge
 80088b4:	6563      	strge	r3, [r4, #84]	; 0x54
 80088b6:	81a3      	strhlt	r3, [r4, #12]
 80088b8:	bd10      	pop	{r4, pc}

080088ba <__swrite>:
 80088ba:	e92d 41f0 	stmdb	sp!, {r4, r5, r6, r7, r8, lr}
 80088be:	461f      	mov	r7, r3
 80088c0:	898b      	ldrh	r3, [r1, #12]
 80088c2:	4605      	mov	r5, r0
 80088c4:	05db      	lsls	r3, r3, #23
 80088c6:	460c      	mov	r4, r1
 80088c8:	4616      	mov	r6, r2
 80088ca:	d505      	bpl.n	80088d8 <__swrite+0x1e>
 80088cc:	2302      	movs	r3, #2
 80088ce:	2200      	movs	r2, #0
 80088d0:	f9b1 100e 	ldrsh.w	r1, [r1, #14]
 80088d4:	f000 fa28 	bl	8008d28 <_lseek_r>
 80088d8:	89a3      	ldrh	r3, [r4, #12]
 80088da:	4632      	mov	r2, r6
 80088dc:	f423 5380 	bic.w	r3, r3, #4096	; 0x1000
 80088e0:	81a3      	strh	r3, [r4, #12]
 80088e2:	f9b4 100e 	ldrsh.w	r1, [r4, #14]
 80088e6:	463b      	mov	r3, r7
 80088e8:	4628      	mov	r0, r5
 80088ea:	e8bd 41f0 	ldmia.w	sp!, {r4, r5, r6, r7, r8, lr}
 80088ee:	f000 b8d3 	b.w	8008a98 <_write_r>

080088f2 <__sseek>:
 80088f2:	b510      	push	{r4, lr}
 80088f4:	460c      	mov	r4, r1
 80088f6:	f9b1 100e 	ldrsh.w	r1, [r1, #14]
 80088fa:	f000 fa15 	bl	8008d28 <_lseek_r>
 80088fe:	1c43      	adds	r3, r0, #1
 8008900:	89a3      	ldrh	r3, [r4, #12]
 8008902:	bf15      	itete	ne
 8008904:	6560      	strne	r0, [r4, #84]	; 0x54
 8008906:	f423 5380 	biceq.w	r3, r3, #4096	; 0x1000
 800890a:	f443 5380 	orrne.w	r3, r3, #4096	; 0x1000
 800890e:	81a3      	strheq	r3, [r4, #12]
 8008910:	bf18      	it	ne
 8008912:	81a3      	strhne	r3, [r4, #12]
 8008914:	bd10      	pop	{r4, pc}

08008916 <__sclose>:
 8008916:	f9b1 100e 	ldrsh.w	r1, [r1, #14]
 800891a:	f000 b8fd 	b.w	8008b18 <_close_r>

0800891e <__ssprint_r>:
 800891e:	6893      	ldr	r3, [r2, #8]
 8008920:	e92d 4ff7 	stmdb	sp!, {r0, r1, r2, r4, r5, r6, r7, r8, r9, sl, fp, lr}
 8008924:	4681      	mov	r9, r0
 8008926:	460c      	mov	r4, r1
 8008928:	4617      	mov	r7, r2
 800892a:	2b00      	cmp	r3, #0
 800892c:	d060      	beq.n	80089f0 <__ssprint_r+0xd2>
 800892e:	f04f 0b00 	mov.w	fp, #0
 8008932:	465e      	mov	r6, fp
 8008934:	f8d2 a000 	ldr.w	sl, [r2]
 8008938:	b356      	cbz	r6, 8008990 <__ssprint_r+0x72>
 800893a:	68a3      	ldr	r3, [r4, #8]
 800893c:	429e      	cmp	r6, r3
 800893e:	d344      	bcc.n	80089ca <__ssprint_r+0xac>
 8008940:	89a2      	ldrh	r2, [r4, #12]
 8008942:	f412 6f90 	tst.w	r2, #1152	; 0x480
 8008946:	d03e      	beq.n	80089c6 <__ssprint_r+0xa8>
 8008948:	2302      	movs	r3, #2
 800894a:	6825      	ldr	r5, [r4, #0]
 800894c:	6921      	ldr	r1, [r4, #16]
 800894e:	eba5 0801 	sub.w	r8, r5, r1
 8008952:	6965      	ldr	r5, [r4, #20]
 8008954:	eb05 0545 	add.w	r5, r5, r5, lsl #1
 8008958:	fb95 f5f3 	sdiv	r5, r5, r3
 800895c:	f108 0301 	add.w	r3, r8, #1
 8008960:	4433      	add	r3, r6
 8008962:	429d      	cmp	r5, r3
 8008964:	bf38      	it	cc
 8008966:	461d      	movcc	r5, r3
 8008968:	0553      	lsls	r3, r2, #21
 800896a:	d546      	bpl.n	80089fa <__ssprint_r+0xdc>
 800896c:	4629      	mov	r1, r5
 800896e:	4648      	mov	r0, r9
 8008970:	f7ff f8dc 	bl	8007b2c <_malloc_r>
 8008974:	b998      	cbnz	r0, 800899e <__ssprint_r+0x80>
 8008976:	230c      	movs	r3, #12
 8008978:	f8c9 3000 	str.w	r3, [r9]
 800897c:	89a3      	ldrh	r3, [r4, #12]
 800897e:	f04f 30ff 	mov.w	r0, #4294967295
 8008982:	f043 0340 	orr.w	r3, r3, #64	; 0x40
 8008986:	81a3      	strh	r3, [r4, #12]
 8008988:	2300      	movs	r3, #0
 800898a:	60bb      	str	r3, [r7, #8]
 800898c:	607b      	str	r3, [r7, #4]
 800898e:	e031      	b.n	80089f4 <__ssprint_r+0xd6>
 8008990:	f8da b000 	ldr.w	fp, [sl]
 8008994:	f8da 6004 	ldr.w	r6, [sl, #4]
 8008998:	f10a 0a08 	add.w	sl, sl, #8
 800899c:	e7cc      	b.n	8008938 <__ssprint_r+0x1a>
 800899e:	4642      	mov	r2, r8
 80089a0:	6921      	ldr	r1, [r4, #16]
 80089a2:	9001      	str	r0, [sp, #4]
 80089a4:	f7fb faf9 	bl	8003f9a <memcpy>
 80089a8:	89a2      	ldrh	r2, [r4, #12]
 80089aa:	9b01      	ldr	r3, [sp, #4]
 80089ac:	f422 6290 	bic.w	r2, r2, #1152	; 0x480
 80089b0:	f042 0280 	orr.w	r2, r2, #128	; 0x80
 80089b4:	81a2      	strh	r2, [r4, #12]
 80089b6:	6123      	str	r3, [r4, #16]
 80089b8:	4443      	add	r3, r8
 80089ba:	6023      	str	r3, [r4, #0]
 80089bc:	4633      	mov	r3, r6
 80089be:	6165      	str	r5, [r4, #20]
 80089c0:	eba5 0508 	sub.w	r5, r5, r8
 80089c4:	60a5      	str	r5, [r4, #8]
 80089c6:	429e      	cmp	r6, r3
 80089c8:	d200      	bcs.n	80089cc <__ssprint_r+0xae>
 80089ca:	4633      	mov	r3, r6
 80089cc:	461a      	mov	r2, r3
 80089ce:	4659      	mov	r1, fp
 80089d0:	6820      	ldr	r0, [r4, #0]
 80089d2:	9301      	str	r3, [sp, #4]
 80089d4:	f7ff fad6 	bl	8007f84 <memmove>
 80089d8:	68a2      	ldr	r2, [r4, #8]
 80089da:	9b01      	ldr	r3, [sp, #4]
 80089dc:	1ad2      	subs	r2, r2, r3
 80089de:	60a2      	str	r2, [r4, #8]
 80089e0:	6822      	ldr	r2, [r4, #0]
 80089e2:	4413      	add	r3, r2
 80089e4:	6023      	str	r3, [r4, #0]
 80089e6:	68bb      	ldr	r3, [r7, #8]
 80089e8:	1b9e      	subs	r6, r3, r6
 80089ea:	60be      	str	r6, [r7, #8]
 80089ec:	2e00      	cmp	r6, #0
 80089ee:	d1cf      	bne.n	8008990 <__ssprint_r+0x72>
 80089f0:	2000      	movs	r0, #0
 80089f2:	6078      	str	r0, [r7, #4]
 80089f4:	b003      	add	sp, #12
 80089f6:	e8bd 8ff0 	ldmia.w	sp!, {r4, r5, r6, r7, r8, r9, sl, fp, pc}
 80089fa:	462a      	mov	r2, r5
 80089fc:	4648      	mov	r0, r9
 80089fe:	f7ff fdb9 	bl	8008574 <_realloc_r>
 8008a02:	4603      	mov	r3, r0
 8008a04:	2800      	cmp	r0, #0
 8008a06:	d1d6      	bne.n	80089b6 <__ssprint_r+0x98>
 8008a08:	6921      	ldr	r1, [r4, #16]
 8008a0a:	4648      	mov	r0, r9
 8008a0c:	f7fe fdce 	bl	80075ac <_free_r>
 8008a10:	e7b1      	b.n	8008976 <__ssprint_r+0x58>

08008a12 <__sprint_r>:
 8008a12:	e92d 4ff8 	stmdb	sp!, {r3, r4, r5, r6, r7, r8, r9, sl, fp, lr}
 8008a16:	6893      	ldr	r3, [r2, #8]
 8008a18:	4680      	mov	r8, r0
 8008a1a:	460f      	mov	r7, r1
 8008a1c:	4614      	mov	r4, r2
 8008a1e:	b91b      	cbnz	r3, 8008a28 <__sprint_r+0x16>
 8008a20:	6053      	str	r3, [r2, #4]
 8008a22:	4618      	mov	r0, r3
 8008a24:	e8bd 8ff8 	ldmia.w	sp!, {r3, r4, r5, r6, r7, r8, r9, sl, fp, pc}
 8008a28:	6e4b      	ldr	r3, [r1, #100]	; 0x64
 8008a2a:	049d      	lsls	r5, r3, #18
 8008a2c:	d523      	bpl.n	8008a76 <__sprint_r+0x64>
 8008a2e:	6815      	ldr	r5, [r2, #0]
 8008a30:	68a0      	ldr	r0, [r4, #8]
 8008a32:	3508      	adds	r5, #8
 8008a34:	b920      	cbnz	r0, 8008a40 <__sprint_r+0x2e>
 8008a36:	2300      	movs	r3, #0
 8008a38:	60a3      	str	r3, [r4, #8]
 8008a3a:	6063      	str	r3, [r4, #4]
 8008a3c:	e8bd 8ff8 	ldmia.w	sp!, {r3, r4, r5, r6, r7, r8, r9, sl, fp, pc}
 8008a40:	f04f 0900 	mov.w	r9, #0
 8008a44:	f855 6c04 	ldr.w	r6, [r5, #-4]
 8008a48:	f855 bc08 	ldr.w	fp, [r5, #-8]
 8008a4c:	ea4f 0a96 	mov.w	sl, r6, lsr #2
 8008a50:	45ca      	cmp	sl, r9
 8008a52:	dc05      	bgt.n	8008a60 <__sprint_r+0x4e>
 8008a54:	68a3      	ldr	r3, [r4, #8]
 8008a56:	f026 0603 	bic.w	r6, r6, #3
 8008a5a:	1b9e      	subs	r6, r3, r6
 8008a5c:	60a6      	str	r6, [r4, #8]
 8008a5e:	e7e7      	b.n	8008a30 <__sprint_r+0x1e>
 8008a60:	463a      	mov	r2, r7
 8008a62:	f85b 1029 	ldr.w	r1, [fp, r9, lsl #2]
 8008a66:	4640      	mov	r0, r8
 8008a68:	f000 f913 	bl	8008c92 <_fputwc_r>
 8008a6c:	1c43      	adds	r3, r0, #1
 8008a6e:	d0e2      	beq.n	8008a36 <__sprint_r+0x24>
 8008a70:	f109 0901 	add.w	r9, r9, #1
 8008a74:	e7ec      	b.n	8008a50 <__sprint_r+0x3e>
 8008a76:	f7fe fe55 	bl	8007724 <__sfvwrite_r>
 8008a7a:	e7dc      	b.n	8008a36 <__sprint_r+0x24>

08008a7c <__ascii_wctomb>:
 8008a7c:	b149      	cbz	r1, 8008a92 <__ascii_wctomb+0x16>
 8008a7e:	2aff      	cmp	r2, #255	; 0xff
 8008a80:	bf8b      	itete	hi
 8008a82:	238a      	movhi	r3, #138	; 0x8a
 8008a84:	700a      	strbls	r2, [r1, #0]
 8008a86:	6003      	strhi	r3, [r0, #0]
 8008a88:	2001      	movls	r0, #1
 8008a8a:	bf88      	it	hi
 8008a8c:	f04f 30ff 	movhi.w	r0, #4294967295
 8008a90:	4770      	bx	lr
 8008a92:	4608      	mov	r0, r1
 8008a94:	4770      	bx	lr
	...

08008a98 <_write_r>:
 8008a98:	b538      	push	{r3, r4, r5, lr}
 8008a9a:	4605      	mov	r5, r0
 8008a9c:	4608      	mov	r0, r1
 8008a9e:	4611      	mov	r1, r2
 8008aa0:	2200      	movs	r2, #0
 8008aa2:	4c05      	ldr	r4, [pc, #20]	; (8008ab8 <_write_r+0x20>)
 8008aa4:	6022      	str	r2, [r4, #0]
 8008aa6:	461a      	mov	r2, r3
 8008aa8:	f7fb f980 	bl	8003dac <_write>
 8008aac:	1c43      	adds	r3, r0, #1
 8008aae:	d102      	bne.n	8008ab6 <_write_r+0x1e>
 8008ab0:	6823      	ldr	r3, [r4, #0]
 8008ab2:	b103      	cbz	r3, 8008ab6 <_write_r+0x1e>
 8008ab4:	602b      	str	r3, [r5, #0]
 8008ab6:	bd38      	pop	{r3, r4, r5, pc}
 8008ab8:	20002324 	.word	0x20002324

08008abc <_calloc_r>:
 8008abc:	b510      	push	{r4, lr}
 8008abe:	4351      	muls	r1, r2
 8008ac0:	f7ff f834 	bl	8007b2c <_malloc_r>
 8008ac4:	4604      	mov	r4, r0
 8008ac6:	b198      	cbz	r0, 8008af0 <_calloc_r+0x34>
 8008ac8:	f850 2c04 	ldr.w	r2, [r0, #-4]
 8008acc:	f022 0203 	bic.w	r2, r2, #3
 8008ad0:	3a04      	subs	r2, #4
 8008ad2:	2a24      	cmp	r2, #36	; 0x24
 8008ad4:	d81b      	bhi.n	8008b0e <_calloc_r+0x52>
 8008ad6:	2a13      	cmp	r2, #19
 8008ad8:	d917      	bls.n	8008b0a <_calloc_r+0x4e>
 8008ada:	2100      	movs	r1, #0
 8008adc:	2a1b      	cmp	r2, #27
 8008ade:	6001      	str	r1, [r0, #0]
 8008ae0:	6041      	str	r1, [r0, #4]
 8008ae2:	d807      	bhi.n	8008af4 <_calloc_r+0x38>
 8008ae4:	f100 0308 	add.w	r3, r0, #8
 8008ae8:	2200      	movs	r2, #0
 8008aea:	601a      	str	r2, [r3, #0]
 8008aec:	605a      	str	r2, [r3, #4]
 8008aee:	609a      	str	r2, [r3, #8]
 8008af0:	4620      	mov	r0, r4
 8008af2:	bd10      	pop	{r4, pc}
 8008af4:	2a24      	cmp	r2, #36	; 0x24
 8008af6:	6081      	str	r1, [r0, #8]
 8008af8:	60c1      	str	r1, [r0, #12]
 8008afa:	bf11      	iteee	ne
 8008afc:	f100 0310 	addne.w	r3, r0, #16
 8008b00:	6101      	streq	r1, [r0, #16]
 8008b02:	f100 0318 	addeq.w	r3, r0, #24
 8008b06:	6141      	streq	r1, [r0, #20]
 8008b08:	e7ee      	b.n	8008ae8 <_calloc_r+0x2c>
 8008b0a:	4603      	mov	r3, r0
 8008b0c:	e7ec      	b.n	8008ae8 <_calloc_r+0x2c>
 8008b0e:	2100      	movs	r1, #0
 8008b10:	f7fb fa4e 	bl	8003fb0 <memset>
 8008b14:	e7ec      	b.n	8008af0 <_calloc_r+0x34>
	...

08008b18 <_close_r>:
 8008b18:	b538      	push	{r3, r4, r5, lr}
 8008b1a:	2300      	movs	r3, #0
 8008b1c:	4c05      	ldr	r4, [pc, #20]	; (8008b34 <_close_r+0x1c>)
 8008b1e:	4605      	mov	r5, r0
 8008b20:	4608      	mov	r0, r1
 8008b22:	6023      	str	r3, [r4, #0]
 8008b24:	f7fb f95e 	bl	8003de4 <_close>
 8008b28:	1c43      	adds	r3, r0, #1
 8008b2a:	d102      	bne.n	8008b32 <_close_r+0x1a>
 8008b2c:	6823      	ldr	r3, [r4, #0]
 8008b2e:	b103      	cbz	r3, 8008b32 <_close_r+0x1a>
 8008b30:	602b      	str	r3, [r5, #0]
 8008b32:	bd38      	pop	{r3, r4, r5, pc}
 8008b34:	20002324 	.word	0x20002324

08008b38 <_fclose_r>:
 8008b38:	b570      	push	{r4, r5, r6, lr}
 8008b3a:	4605      	mov	r5, r0
 8008b3c:	460c      	mov	r4, r1
 8008b3e:	b911      	cbnz	r1, 8008b46 <_fclose_r+0xe>
 8008b40:	2600      	movs	r6, #0
 8008b42:	4630      	mov	r0, r6
 8008b44:	bd70      	pop	{r4, r5, r6, pc}
 8008b46:	b118      	cbz	r0, 8008b50 <_fclose_r+0x18>
 8008b48:	6983      	ldr	r3, [r0, #24]
 8008b4a:	b90b      	cbnz	r3, 8008b50 <_fclose_r+0x18>
 8008b4c:	f7fe fc56 	bl	80073fc <__sinit>
 8008b50:	4b2c      	ldr	r3, [pc, #176]	; (8008c04 <_fclose_r+0xcc>)
 8008b52:	429c      	cmp	r4, r3
 8008b54:	d114      	bne.n	8008b80 <_fclose_r+0x48>
 8008b56:	686c      	ldr	r4, [r5, #4]
 8008b58:	6e63      	ldr	r3, [r4, #100]	; 0x64
 8008b5a:	07d8      	lsls	r0, r3, #31
 8008b5c:	d405      	bmi.n	8008b6a <_fclose_r+0x32>
 8008b5e:	89a3      	ldrh	r3, [r4, #12]
 8008b60:	0599      	lsls	r1, r3, #22
 8008b62:	d402      	bmi.n	8008b6a <_fclose_r+0x32>
 8008b64:	6da0      	ldr	r0, [r4, #88]	; 0x58
 8008b66:	f7fe ff6b 	bl	8007a40 <__retarget_lock_acquire_recursive>
 8008b6a:	f9b4 300c 	ldrsh.w	r3, [r4, #12]
 8008b6e:	b98b      	cbnz	r3, 8008b94 <_fclose_r+0x5c>
 8008b70:	6e66      	ldr	r6, [r4, #100]	; 0x64
 8008b72:	f016 0601 	ands.w	r6, r6, #1
 8008b76:	d1e3      	bne.n	8008b40 <_fclose_r+0x8>
 8008b78:	6da0      	ldr	r0, [r4, #88]	; 0x58
 8008b7a:	f7fe ff62 	bl	8007a42 <__retarget_lock_release_recursive>
 8008b7e:	e7e0      	b.n	8008b42 <_fclose_r+0xa>
 8008b80:	4b21      	ldr	r3, [pc, #132]	; (8008c08 <_fclose_r+0xd0>)
 8008b82:	429c      	cmp	r4, r3
 8008b84:	d101      	bne.n	8008b8a <_fclose_r+0x52>
 8008b86:	68ac      	ldr	r4, [r5, #8]
 8008b88:	e7e6      	b.n	8008b58 <_fclose_r+0x20>
 8008b8a:	4b20      	ldr	r3, [pc, #128]	; (8008c0c <_fclose_r+0xd4>)
 8008b8c:	429c      	cmp	r4, r3
 8008b8e:	bf08      	it	eq
 8008b90:	68ec      	ldreq	r4, [r5, #12]
 8008b92:	e7e1      	b.n	8008b58 <_fclose_r+0x20>
 8008b94:	4621      	mov	r1, r4
 8008b96:	4628      	mov	r0, r5
 8008b98:	f7fe fb0a 	bl	80071b0 <__sflush_r>
 8008b9c:	6b23      	ldr	r3, [r4, #48]	; 0x30
 8008b9e:	4606      	mov	r6, r0
 8008ba0:	b133      	cbz	r3, 8008bb0 <_fclose_r+0x78>
 8008ba2:	6a21      	ldr	r1, [r4, #32]
 8008ba4:	4628      	mov	r0, r5
 8008ba6:	4798      	blx	r3
 8008ba8:	2800      	cmp	r0, #0
 8008baa:	bfb8      	it	lt
 8008bac:	f04f 36ff 	movlt.w	r6, #4294967295
 8008bb0:	89a3      	ldrh	r3, [r4, #12]
 8008bb2:	061a      	lsls	r2, r3, #24
 8008bb4:	d503      	bpl.n	8008bbe <_fclose_r+0x86>
 8008bb6:	6921      	ldr	r1, [r4, #16]
 8008bb8:	4628      	mov	r0, r5
 8008bba:	f7fe fcf7 	bl	80075ac <_free_r>
 8008bbe:	6b61      	ldr	r1, [r4, #52]	; 0x34
 8008bc0:	b141      	cbz	r1, 8008bd4 <_fclose_r+0x9c>
 8008bc2:	f104 0344 	add.w	r3, r4, #68	; 0x44
 8008bc6:	4299      	cmp	r1, r3
 8008bc8:	d002      	beq.n	8008bd0 <_fclose_r+0x98>
 8008bca:	4628      	mov	r0, r5
 8008bcc:	f7fe fcee 	bl	80075ac <_free_r>
 8008bd0:	2300      	movs	r3, #0
 8008bd2:	6363      	str	r3, [r4, #52]	; 0x34
 8008bd4:	6ca1      	ldr	r1, [r4, #72]	; 0x48
 8008bd6:	b121      	cbz	r1, 8008be2 <_fclose_r+0xaa>
 8008bd8:	4628      	mov	r0, r5
 8008bda:	f7fe fce7 	bl	80075ac <_free_r>
 8008bde:	2300      	movs	r3, #0
 8008be0:	64a3      	str	r3, [r4, #72]	; 0x48
 8008be2:	f7fe fbf3 	bl	80073cc <__sfp_lock_acquire>
 8008be6:	2300      	movs	r3, #0
 8008be8:	81a3      	strh	r3, [r4, #12]
 8008bea:	6e63      	ldr	r3, [r4, #100]	; 0x64
 8008bec:	07db      	lsls	r3, r3, #31
 8008bee:	d402      	bmi.n	8008bf6 <_fclose_r+0xbe>
 8008bf0:	6da0      	ldr	r0, [r4, #88]	; 0x58
 8008bf2:	f7fe ff26 	bl	8007a42 <__retarget_lock_release_recursive>
 8008bf6:	6da0      	ldr	r0, [r4, #88]	; 0x58
 8008bf8:	f7fe ff21 	bl	8007a3e <__retarget_lock_close_recursive>
 8008bfc:	f7fe fbec 	bl	80073d8 <__sfp_lock_release>
 8008c00:	e79f      	b.n	8008b42 <_fclose_r+0xa>
 8008c02:	bf00      	nop
 8008c04:	08009390 	.word	0x08009390
 8008c08:	080093b0 	.word	0x080093b0
 8008c0c:	08009370 	.word	0x08009370

08008c10 <__fputwc>:
 8008c10:	e92d 43f7 	stmdb	sp!, {r0, r1, r2, r4, r5, r6, r7, r8, r9, lr}
 8008c14:	4680      	mov	r8, r0
 8008c16:	460e      	mov	r6, r1
 8008c18:	4614      	mov	r4, r2
 8008c1a:	f7fe feef 	bl	80079fc <__locale_mb_cur_max>
 8008c1e:	2801      	cmp	r0, #1
 8008c20:	d11c      	bne.n	8008c5c <__fputwc+0x4c>
 8008c22:	1e73      	subs	r3, r6, #1
 8008c24:	2bfe      	cmp	r3, #254	; 0xfe
 8008c26:	d819      	bhi.n	8008c5c <__fputwc+0x4c>
 8008c28:	4605      	mov	r5, r0
 8008c2a:	f88d 6004 	strb.w	r6, [sp, #4]
 8008c2e:	2700      	movs	r7, #0
 8008c30:	f10d 0904 	add.w	r9, sp, #4
 8008c34:	42af      	cmp	r7, r5
 8008c36:	d020      	beq.n	8008c7a <__fputwc+0x6a>
 8008c38:	68a3      	ldr	r3, [r4, #8]
 8008c3a:	f817 1009 	ldrb.w	r1, [r7, r9]
 8008c3e:	3b01      	subs	r3, #1
 8008c40:	2b00      	cmp	r3, #0
 8008c42:	60a3      	str	r3, [r4, #8]
 8008c44:	da04      	bge.n	8008c50 <__fputwc+0x40>
 8008c46:	69a2      	ldr	r2, [r4, #24]
 8008c48:	4293      	cmp	r3, r2
 8008c4a:	db1a      	blt.n	8008c82 <__fputwc+0x72>
 8008c4c:	290a      	cmp	r1, #10
 8008c4e:	d018      	beq.n	8008c82 <__fputwc+0x72>
 8008c50:	6823      	ldr	r3, [r4, #0]
 8008c52:	1c5a      	adds	r2, r3, #1
 8008c54:	6022      	str	r2, [r4, #0]
 8008c56:	7019      	strb	r1, [r3, #0]
 8008c58:	3701      	adds	r7, #1
 8008c5a:	e7eb      	b.n	8008c34 <__fputwc+0x24>
 8008c5c:	4632      	mov	r2, r6
 8008c5e:	f104 035c 	add.w	r3, r4, #92	; 0x5c
 8008c62:	a901      	add	r1, sp, #4
 8008c64:	4640      	mov	r0, r8
 8008c66:	f000 f8e1 	bl	8008e2c <_wcrtomb_r>
 8008c6a:	1c42      	adds	r2, r0, #1
 8008c6c:	4605      	mov	r5, r0
 8008c6e:	d1de      	bne.n	8008c2e <__fputwc+0x1e>
 8008c70:	4606      	mov	r6, r0
 8008c72:	89a3      	ldrh	r3, [r4, #12]
 8008c74:	f043 0340 	orr.w	r3, r3, #64	; 0x40
 8008c78:	81a3      	strh	r3, [r4, #12]
 8008c7a:	4630      	mov	r0, r6
 8008c7c:	b003      	add	sp, #12
 8008c7e:	e8bd 83f0 	ldmia.w	sp!, {r4, r5, r6, r7, r8, r9, pc}
 8008c82:	4622      	mov	r2, r4
 8008c84:	4640      	mov	r0, r8
 8008c86:	f000 f873 	bl	8008d70 <__swbuf_r>
 8008c8a:	1c43      	adds	r3, r0, #1
 8008c8c:	d1e4      	bne.n	8008c58 <__fputwc+0x48>
 8008c8e:	4606      	mov	r6, r0
 8008c90:	e7f3      	b.n	8008c7a <__fputwc+0x6a>

08008c92 <_fputwc_r>:
 8008c92:	6e53      	ldr	r3, [r2, #100]	; 0x64
 8008c94:	b570      	push	{r4, r5, r6, lr}
 8008c96:	07db      	lsls	r3, r3, #31
 8008c98:	4605      	mov	r5, r0
 8008c9a:	460e      	mov	r6, r1
 8008c9c:	4614      	mov	r4, r2
 8008c9e:	d405      	bmi.n	8008cac <_fputwc_r+0x1a>
 8008ca0:	8993      	ldrh	r3, [r2, #12]
 8008ca2:	0598      	lsls	r0, r3, #22
 8008ca4:	d402      	bmi.n	8008cac <_fputwc_r+0x1a>
 8008ca6:	6d90      	ldr	r0, [r2, #88]	; 0x58
 8008ca8:	f7fe feca 	bl	8007a40 <__retarget_lock_acquire_recursive>
 8008cac:	f9b4 300c 	ldrsh.w	r3, [r4, #12]
 8008cb0:	0499      	lsls	r1, r3, #18
 8008cb2:	d406      	bmi.n	8008cc2 <_fputwc_r+0x30>
 8008cb4:	f443 5300 	orr.w	r3, r3, #8192	; 0x2000
 8008cb8:	81a3      	strh	r3, [r4, #12]
 8008cba:	6e63      	ldr	r3, [r4, #100]	; 0x64
 8008cbc:	f443 5300 	orr.w	r3, r3, #8192	; 0x2000
 8008cc0:	6663      	str	r3, [r4, #100]	; 0x64
 8008cc2:	4622      	mov	r2, r4
 8008cc4:	4628      	mov	r0, r5
 8008cc6:	4631      	mov	r1, r6
 8008cc8:	f7ff ffa2 	bl	8008c10 <__fputwc>
 8008ccc:	6e63      	ldr	r3, [r4, #100]	; 0x64
 8008cce:	4605      	mov	r5, r0
 8008cd0:	07da      	lsls	r2, r3, #31
 8008cd2:	d405      	bmi.n	8008ce0 <_fputwc_r+0x4e>
 8008cd4:	89a3      	ldrh	r3, [r4, #12]
 8008cd6:	059b      	lsls	r3, r3, #22
 8008cd8:	d402      	bmi.n	8008ce0 <_fputwc_r+0x4e>
 8008cda:	6da0      	ldr	r0, [r4, #88]	; 0x58
 8008cdc:	f7fe feb1 	bl	8007a42 <__retarget_lock_release_recursive>
 8008ce0:	4628      	mov	r0, r5
 8008ce2:	bd70      	pop	{r4, r5, r6, pc}

08008ce4 <_fstat_r>:
 8008ce4:	b538      	push	{r3, r4, r5, lr}
 8008ce6:	2300      	movs	r3, #0
 8008ce8:	4c06      	ldr	r4, [pc, #24]	; (8008d04 <_fstat_r+0x20>)
 8008cea:	4605      	mov	r5, r0
 8008cec:	4608      	mov	r0, r1
 8008cee:	4611      	mov	r1, r2
 8008cf0:	6023      	str	r3, [r4, #0]
 8008cf2:	f7fb f87f 	bl	8003df4 <_fstat>
 8008cf6:	1c43      	adds	r3, r0, #1
 8008cf8:	d102      	bne.n	8008d00 <_fstat_r+0x1c>
 8008cfa:	6823      	ldr	r3, [r4, #0]
 8008cfc:	b103      	cbz	r3, 8008d00 <_fstat_r+0x1c>
 8008cfe:	602b      	str	r3, [r5, #0]
 8008d00:	bd38      	pop	{r3, r4, r5, pc}
 8008d02:	bf00      	nop
 8008d04:	20002324 	.word	0x20002324

08008d08 <_isatty_r>:
 8008d08:	b538      	push	{r3, r4, r5, lr}
 8008d0a:	2300      	movs	r3, #0
 8008d0c:	4c05      	ldr	r4, [pc, #20]	; (8008d24 <_isatty_r+0x1c>)
 8008d0e:	4605      	mov	r5, r0
 8008d10:	4608      	mov	r0, r1
 8008d12:	6023      	str	r3, [r4, #0]
 8008d14:	f7fb f876 	bl	8003e04 <_isatty>
 8008d18:	1c43      	adds	r3, r0, #1
 8008d1a:	d102      	bne.n	8008d22 <_isatty_r+0x1a>
 8008d1c:	6823      	ldr	r3, [r4, #0]
 8008d1e:	b103      	cbz	r3, 8008d22 <_isatty_r+0x1a>
 8008d20:	602b      	str	r3, [r5, #0]
 8008d22:	bd38      	pop	{r3, r4, r5, pc}
 8008d24:	20002324 	.word	0x20002324

08008d28 <_lseek_r>:
 8008d28:	b538      	push	{r3, r4, r5, lr}
 8008d2a:	4605      	mov	r5, r0
 8008d2c:	4608      	mov	r0, r1
 8008d2e:	4611      	mov	r1, r2
 8008d30:	2200      	movs	r2, #0
 8008d32:	4c05      	ldr	r4, [pc, #20]	; (8008d48 <_lseek_r+0x20>)
 8008d34:	6022      	str	r2, [r4, #0]
 8008d36:	461a      	mov	r2, r3
 8008d38:	f7fb f86c 	bl	8003e14 <_lseek>
 8008d3c:	1c43      	adds	r3, r0, #1
 8008d3e:	d102      	bne.n	8008d46 <_lseek_r+0x1e>
 8008d40:	6823      	ldr	r3, [r4, #0]
 8008d42:	b103      	cbz	r3, 8008d46 <_lseek_r+0x1e>
 8008d44:	602b      	str	r3, [r5, #0]
 8008d46:	bd38      	pop	{r3, r4, r5, pc}
 8008d48:	20002324 	.word	0x20002324

08008d4c <_read_r>:
 8008d4c:	b538      	push	{r3, r4, r5, lr}
 8008d4e:	4605      	mov	r5, r0
 8008d50:	4608      	mov	r0, r1
 8008d52:	4611      	mov	r1, r2
 8008d54:	2200      	movs	r2, #0
 8008d56:	4c05      	ldr	r4, [pc, #20]	; (8008d6c <_read_r+0x20>)
 8008d58:	6022      	str	r2, [r4, #0]
 8008d5a:	461a      	mov	r2, r3
 8008d5c:	f7fb f862 	bl	8003e24 <_read>
 8008d60:	1c43      	adds	r3, r0, #1
 8008d62:	d102      	bne.n	8008d6a <_read_r+0x1e>
 8008d64:	6823      	ldr	r3, [r4, #0]
 8008d66:	b103      	cbz	r3, 8008d6a <_read_r+0x1e>
 8008d68:	602b      	str	r3, [r5, #0]
 8008d6a:	bd38      	pop	{r3, r4, r5, pc}
 8008d6c:	20002324 	.word	0x20002324

08008d70 <__swbuf_r>:
 8008d70:	b5f8      	push	{r3, r4, r5, r6, r7, lr}
 8008d72:	460e      	mov	r6, r1
 8008d74:	4614      	mov	r4, r2
 8008d76:	4605      	mov	r5, r0
 8008d78:	b118      	cbz	r0, 8008d82 <__swbuf_r+0x12>
 8008d7a:	6983      	ldr	r3, [r0, #24]
 8008d7c:	b90b      	cbnz	r3, 8008d82 <__swbuf_r+0x12>
 8008d7e:	f7fe fb3d 	bl	80073fc <__sinit>
 8008d82:	4b27      	ldr	r3, [pc, #156]	; (8008e20 <__swbuf_r+0xb0>)
 8008d84:	429c      	cmp	r4, r3
 8008d86:	d12f      	bne.n	8008de8 <__swbuf_r+0x78>
 8008d88:	686c      	ldr	r4, [r5, #4]
 8008d8a:	69a3      	ldr	r3, [r4, #24]
 8008d8c:	60a3      	str	r3, [r4, #8]
 8008d8e:	89a3      	ldrh	r3, [r4, #12]
 8008d90:	0719      	lsls	r1, r3, #28
 8008d92:	d533      	bpl.n	8008dfc <__swbuf_r+0x8c>
 8008d94:	6923      	ldr	r3, [r4, #16]
 8008d96:	2b00      	cmp	r3, #0
 8008d98:	d030      	beq.n	8008dfc <__swbuf_r+0x8c>
 8008d9a:	f9b4 300c 	ldrsh.w	r3, [r4, #12]
 8008d9e:	b2f6      	uxtb	r6, r6
 8008da0:	049a      	lsls	r2, r3, #18
 8008da2:	4637      	mov	r7, r6
 8008da4:	d534      	bpl.n	8008e10 <__swbuf_r+0xa0>
 8008da6:	6923      	ldr	r3, [r4, #16]
 8008da8:	6820      	ldr	r0, [r4, #0]
 8008daa:	1ac0      	subs	r0, r0, r3
 8008dac:	6963      	ldr	r3, [r4, #20]
 8008dae:	4298      	cmp	r0, r3
 8008db0:	db04      	blt.n	8008dbc <__swbuf_r+0x4c>
 8008db2:	4621      	mov	r1, r4
 8008db4:	4628      	mov	r0, r5
 8008db6:	f7fe fa8d 	bl	80072d4 <_fflush_r>
 8008dba:	bb28      	cbnz	r0, 8008e08 <__swbuf_r+0x98>
 8008dbc:	68a3      	ldr	r3, [r4, #8]
 8008dbe:	3001      	adds	r0, #1
 8008dc0:	3b01      	subs	r3, #1
 8008dc2:	60a3      	str	r3, [r4, #8]
 8008dc4:	6823      	ldr	r3, [r4, #0]
 8008dc6:	1c5a      	adds	r2, r3, #1
 8008dc8:	6022      	str	r2, [r4, #0]
 8008dca:	701e      	strb	r6, [r3, #0]
 8008dcc:	6963      	ldr	r3, [r4, #20]
 8008dce:	4298      	cmp	r0, r3
 8008dd0:	d004      	beq.n	8008ddc <__swbuf_r+0x6c>
 8008dd2:	89a3      	ldrh	r3, [r4, #12]
 8008dd4:	07db      	lsls	r3, r3, #31
 8008dd6:	d519      	bpl.n	8008e0c <__swbuf_r+0x9c>
 8008dd8:	2e0a      	cmp	r6, #10
 8008dda:	d117      	bne.n	8008e0c <__swbuf_r+0x9c>
 8008ddc:	4621      	mov	r1, r4
 8008dde:	4628      	mov	r0, r5
 8008de0:	f7fe fa78 	bl	80072d4 <_fflush_r>
 8008de4:	b190      	cbz	r0, 8008e0c <__swbuf_r+0x9c>
 8008de6:	e00f      	b.n	8008e08 <__swbuf_r+0x98>
 8008de8:	4b0e      	ldr	r3, [pc, #56]	; (8008e24 <__swbuf_r+0xb4>)
 8008dea:	429c      	cmp	r4, r3
 8008dec:	d101      	bne.n	8008df2 <__swbuf_r+0x82>
 8008dee:	68ac      	ldr	r4, [r5, #8]
 8008df0:	e7cb      	b.n	8008d8a <__swbuf_r+0x1a>
 8008df2:	4b0d      	ldr	r3, [pc, #52]	; (8008e28 <__swbuf_r+0xb8>)
 8008df4:	429c      	cmp	r4, r3
 8008df6:	bf08      	it	eq
 8008df8:	68ec      	ldreq	r4, [r5, #12]
 8008dfa:	e7c6      	b.n	8008d8a <__swbuf_r+0x1a>
 8008dfc:	4621      	mov	r1, r4
 8008dfe:	4628      	mov	r0, r5
 8008e00:	f7fd fb08 	bl	8006414 <__swsetup_r>
 8008e04:	2800      	cmp	r0, #0
 8008e06:	d0c8      	beq.n	8008d9a <__swbuf_r+0x2a>
 8008e08:	f04f 37ff 	mov.w	r7, #4294967295
 8008e0c:	4638      	mov	r0, r7
 8008e0e:	bdf8      	pop	{r3, r4, r5, r6, r7, pc}
 8008e10:	f443 5300 	orr.w	r3, r3, #8192	; 0x2000
 8008e14:	81a3      	strh	r3, [r4, #12]
 8008e16:	6e63      	ldr	r3, [r4, #100]	; 0x64
 8008e18:	f423 5300 	bic.w	r3, r3, #8192	; 0x2000
 8008e1c:	6663      	str	r3, [r4, #100]	; 0x64
 8008e1e:	e7c2      	b.n	8008da6 <__swbuf_r+0x36>
 8008e20:	08009390 	.word	0x08009390
 8008e24:	080093b0 	.word	0x080093b0
 8008e28:	08009370 	.word	0x08009370

08008e2c <_wcrtomb_r>:
 8008e2c:	b5f0      	push	{r4, r5, r6, r7, lr}
 8008e2e:	4605      	mov	r5, r0
 8008e30:	b085      	sub	sp, #20
 8008e32:	461e      	mov	r6, r3
 8008e34:	460f      	mov	r7, r1
 8008e36:	4c0f      	ldr	r4, [pc, #60]	; (8008e74 <_wcrtomb_r+0x48>)
 8008e38:	b991      	cbnz	r1, 8008e60 <_wcrtomb_r+0x34>
 8008e3a:	6822      	ldr	r2, [r4, #0]
 8008e3c:	490e      	ldr	r1, [pc, #56]	; (8008e78 <_wcrtomb_r+0x4c>)
 8008e3e:	6a12      	ldr	r2, [r2, #32]
 8008e40:	2a00      	cmp	r2, #0
 8008e42:	bf08      	it	eq
 8008e44:	460a      	moveq	r2, r1
 8008e46:	f8d2 40e0 	ldr.w	r4, [r2, #224]	; 0xe0
 8008e4a:	463a      	mov	r2, r7
 8008e4c:	a901      	add	r1, sp, #4
 8008e4e:	47a0      	blx	r4
 8008e50:	1c43      	adds	r3, r0, #1
 8008e52:	bf01      	itttt	eq
 8008e54:	2300      	moveq	r3, #0
 8008e56:	6033      	streq	r3, [r6, #0]
 8008e58:	238a      	moveq	r3, #138	; 0x8a
 8008e5a:	602b      	streq	r3, [r5, #0]
 8008e5c:	b005      	add	sp, #20
 8008e5e:	bdf0      	pop	{r4, r5, r6, r7, pc}
 8008e60:	6824      	ldr	r4, [r4, #0]
 8008e62:	4f05      	ldr	r7, [pc, #20]	; (8008e78 <_wcrtomb_r+0x4c>)
 8008e64:	6a24      	ldr	r4, [r4, #32]
 8008e66:	2c00      	cmp	r4, #0
 8008e68:	bf08      	it	eq
 8008e6a:	463c      	moveq	r4, r7
 8008e6c:	f8d4 40e0 	ldr.w	r4, [r4, #224]	; 0xe0
 8008e70:	e7ed      	b.n	8008e4e <_wcrtomb_r+0x22>
 8008e72:	bf00      	nop
 8008e74:	2000005c 	.word	0x2000005c
 8008e78:	20000150 	.word	0x20000150

08008e7c <_init>:
 8008e7c:	b5f8      	push	{r3, r4, r5, r6, r7, lr}
 8008e7e:	bf00      	nop
 8008e80:	bcf8      	pop	{r3, r4, r5, r6, r7}
 8008e82:	bc08      	pop	{r3}
 8008e84:	469e      	mov	lr, r3
 8008e86:	4770      	bx	lr

08008e88 <_fini>:
 8008e88:	b5f8      	push	{r3, r4, r5, r6, r7, lr}
 8008e8a:	bf00      	nop
 8008e8c:	bcf8      	pop	{r3, r4, r5, r6, r7}
 8008e8e:	bc08      	pop	{r3}
 8008e90:	469e      	mov	lr, r3
 8008e92:	4770      	bx	lr
